
NUCLEO_F401RE/MusicControl.elf:     file format elf32-littlearm
architecture: arm, flags 0x00000112:
EXEC_P, HAS_SYMS, D_PAGED
start address 0x08004f55


Disassembly of section .text:

08000000 <g_pfnVectors>:
 8000000:	00 80 01 20 55 4f 00 08 a1 4f 00 08 a1 4f 00 08     ... UO...O...O..
 8000010:	a1 4f 00 08 a1 4f 00 08 a1 4f 00 08 00 00 00 00     .O...O...O......
	...
 800002c:	a1 4f 00 08 a1 4f 00 08 00 00 00 00 a1 4f 00 08     .O...O.......O..
 800003c:	a1 4f 00 08 a1 4f 00 08 a1 4f 00 08 a1 4f 00 08     .O...O...O...O..
 800004c:	a1 4f 00 08 a1 4f 00 08 a1 4f 00 08 a1 4f 00 08     .O...O...O...O..
 800005c:	a1 4f 00 08 a1 4f 00 08 a1 4f 00 08 a1 4f 00 08     .O...O...O...O..
 800006c:	a1 4f 00 08 a1 4f 00 08 a1 4f 00 08 a1 4f 00 08     .O...O...O...O..
 800007c:	a1 4f 00 08 a1 4f 00 08 a1 4f 00 08 a1 4f 00 08     .O...O...O...O..
	...
 800009c:	a1 4f 00 08 a1 4f 00 08 a1 4f 00 08 a1 4f 00 08     .O...O...O...O..
 80000ac:	a1 4f 00 08 a1 4f 00 08 a1 4f 00 08 a1 4f 00 08     .O...O...O...O..
 80000bc:	a1 4f 00 08 a1 4f 00 08 a1 4f 00 08 a1 4f 00 08     .O...O...O...O..
 80000cc:	a1 4f 00 08 a1 4f 00 08 a1 4f 00 08 a1 4f 00 08     .O...O...O...O..
 80000dc:	00 00 00 00 a1 4f 00 08 a1 4f 00 08 a1 4f 00 08     .....O...O...O..
	...
 80000fc:	a1 4f 00 08 00 00 00 00 a1 4f 00 08 a1 4f 00 08     .O.......O...O..
 800010c:	a1 4f 00 08 00 00 00 00 00 00 00 00 00 00 00 00     .O..............
 800011c:	00 00 00 00 a1 4f 00 08 a1 4f 00 08 a1 4f 00 08     .....O...O...O..
 800012c:	a1 4f 00 08 a1 4f 00 08 00 00 00 00 00 00 00 00     .O...O..........
	...
 800014c:	a1 4f 00 08 a1 4f 00 08 a1 4f 00 08 a1 4f 00 08     .O...O...O...O..
 800015c:	a1 4f 00 08 a1 4f 00 08 a1 4f 00 08 00 00 00 00     .O...O...O......
	...
 8000184:	a1 4f 00 08 00 00 00 00 00 00 00 00 a1 4f 00 08     .O...........O..

08000194 <__do_global_dtors_aux>:
 8000194:	b510      	push	{r4, lr}
 8000196:	4c05      	ldr	r4, [pc, #20]	; (80001ac <__do_global_dtors_aux+0x18>)
 8000198:	7823      	ldrb	r3, [r4, #0]
 800019a:	b933      	cbnz	r3, 80001aa <__do_global_dtors_aux+0x16>
 800019c:	4b04      	ldr	r3, [pc, #16]	; (80001b0 <__do_global_dtors_aux+0x1c>)
 800019e:	b113      	cbz	r3, 80001a6 <__do_global_dtors_aux+0x12>
 80001a0:	4804      	ldr	r0, [pc, #16]	; (80001b4 <__do_global_dtors_aux+0x20>)
 80001a2:	f3af 8000 	nop.w
 80001a6:	2301      	movs	r3, #1
 80001a8:	7023      	strb	r3, [r4, #0]
 80001aa:	bd10      	pop	{r4, pc}
 80001ac:	20000218 	.word	0x20000218
 80001b0:	00000000 	.word	0x00000000
 80001b4:	08007a7c 	.word	0x08007a7c

080001b8 <frame_dummy>:
 80001b8:	4b08      	ldr	r3, [pc, #32]	; (80001dc <frame_dummy+0x24>)
 80001ba:	b510      	push	{r4, lr}
 80001bc:	b11b      	cbz	r3, 80001c6 <frame_dummy+0xe>
 80001be:	4808      	ldr	r0, [pc, #32]	; (80001e0 <frame_dummy+0x28>)
 80001c0:	4908      	ldr	r1, [pc, #32]	; (80001e4 <frame_dummy+0x2c>)
 80001c2:	f3af 8000 	nop.w
 80001c6:	4808      	ldr	r0, [pc, #32]	; (80001e8 <frame_dummy+0x30>)
 80001c8:	6803      	ldr	r3, [r0, #0]
 80001ca:	b903      	cbnz	r3, 80001ce <frame_dummy+0x16>
 80001cc:	bd10      	pop	{r4, pc}
 80001ce:	4b07      	ldr	r3, [pc, #28]	; (80001ec <frame_dummy+0x34>)
 80001d0:	2b00      	cmp	r3, #0
 80001d2:	d0fb      	beq.n	80001cc <frame_dummy+0x14>
 80001d4:	e8bd 4010 	ldmia.w	sp!, {r4, lr}
 80001d8:	4718      	bx	r3
 80001da:	bf00      	nop
 80001dc:	00000000 	.word	0x00000000
 80001e0:	08007a7c 	.word	0x08007a7c
 80001e4:	2000021c 	.word	0x2000021c
 80001e8:	20000214 	.word	0x20000214
 80001ec:	00000000 	.word	0x00000000

080001f0 <gpio_read>:
 80001f0:	b500      	push	{lr}
 80001f2:	b083      	sub	sp, #12
 80001f4:	9001      	str	r0, [sp, #4]
 80001f6:	9b01      	ldr	r3, [sp, #4]
 80001f8:	781b      	ldrb	r3, [r3, #0]
 80001fa:	b25b      	sxtb	r3, r3
 80001fc:	f1b3 3fff 	cmp.w	r3, #4294967295
 8000200:	d104      	bne.n	800020c <gpio_read+0x1c>
 8000202:	480a      	ldr	r0, [pc, #40]	; (800022c <gpio_read+0x3c>)
 8000204:	490a      	ldr	r1, [pc, #40]	; (8000230 <gpio_read+0x40>)
 8000206:	223f      	movs	r2, #63	; 0x3f
 8000208:	f001 fe94 	bl	8001f34 <mbed_assert_internal>
 800020c:	9b01      	ldr	r3, [sp, #4]
 800020e:	689b      	ldr	r3, [r3, #8]
 8000210:	681a      	ldr	r2, [r3, #0]
 8000212:	9b01      	ldr	r3, [sp, #4]
 8000214:	685b      	ldr	r3, [r3, #4]
 8000216:	4013      	ands	r3, r2
 8000218:	2b00      	cmp	r3, #0
 800021a:	d001      	beq.n	8000220 <gpio_read+0x30>
 800021c:	2301      	movs	r3, #1
 800021e:	e000      	b.n	8000222 <gpio_read+0x32>
 8000220:	2300      	movs	r3, #0
 8000222:	4618      	mov	r0, r3
 8000224:	b003      	add	sp, #12
 8000226:	f85d fb04 	ldr.w	pc, [sp], #4
 800022a:	bf00      	nop
 800022c:	08006fac 	.word	0x08006fac
 8000230:	08006fc4 	.word	0x08006fc4

08000234 <mbed::DigitalIn::DigitalIn(PinName)>:
 8000234:	b500      	push	{lr}
 8000236:	b083      	sub	sp, #12
 8000238:	9001      	str	r0, [sp, #4]
 800023a:	460b      	mov	r3, r1
 800023c:	f88d 3003 	strb.w	r3, [sp, #3]
 8000240:	9b01      	ldr	r3, [sp, #4]
 8000242:	2200      	movs	r2, #0
 8000244:	701a      	strb	r2, [r3, #0]
 8000246:	9b01      	ldr	r3, [sp, #4]
 8000248:	2200      	movs	r2, #0
 800024a:	605a      	str	r2, [r3, #4]
 800024c:	9b01      	ldr	r3, [sp, #4]
 800024e:	2200      	movs	r2, #0
 8000250:	609a      	str	r2, [r3, #8]
 8000252:	9b01      	ldr	r3, [sp, #4]
 8000254:	2200      	movs	r2, #0
 8000256:	60da      	str	r2, [r3, #12]
 8000258:	9b01      	ldr	r3, [sp, #4]
 800025a:	2200      	movs	r2, #0
 800025c:	611a      	str	r2, [r3, #16]
 800025e:	9a01      	ldr	r2, [sp, #4]
 8000260:	f99d 3003 	ldrsb.w	r3, [sp, #3]
 8000264:	4610      	mov	r0, r2
 8000266:	4619      	mov	r1, r3
 8000268:	f001 ff08 	bl	800207c <gpio_init_in>
 800026c:	9b01      	ldr	r3, [sp, #4]
 800026e:	4618      	mov	r0, r3
 8000270:	b003      	add	sp, #12
 8000272:	f85d fb04 	ldr.w	pc, [sp], #4
 8000276:	bf00      	nop

08000278 <mbed::DigitalIn::read()>:
 8000278:	b500      	push	{lr}
 800027a:	b083      	sub	sp, #12
 800027c:	9001      	str	r0, [sp, #4]
 800027e:	9b01      	ldr	r3, [sp, #4]
 8000280:	4618      	mov	r0, r3
 8000282:	f7ff ffb5 	bl	80001f0 <gpio_read>
 8000286:	4603      	mov	r3, r0
 8000288:	4618      	mov	r0, r3
 800028a:	b003      	add	sp, #12
 800028c:	f85d fb04 	ldr.w	pc, [sp], #4

08000290 <mbed::DigitalIn::operator int()>:
 8000290:	b500      	push	{lr}
 8000292:	b083      	sub	sp, #12
 8000294:	9001      	str	r0, [sp, #4]
 8000296:	9801      	ldr	r0, [sp, #4]
 8000298:	f7ff ffee 	bl	8000278 <mbed::DigitalIn::read()>
 800029c:	4603      	mov	r3, r0
 800029e:	4618      	mov	r0, r3
 80002a0:	b003      	add	sp, #12
 80002a2:	f85d fb04 	ldr.w	pc, [sp], #4
 80002a6:	bf00      	nop

080002a8 <mbed::DigitalOut::DigitalOut(PinName)>:
 80002a8:	b500      	push	{lr}
 80002aa:	b083      	sub	sp, #12
 80002ac:	9001      	str	r0, [sp, #4]
 80002ae:	460b      	mov	r3, r1
 80002b0:	f88d 3003 	strb.w	r3, [sp, #3]
 80002b4:	9b01      	ldr	r3, [sp, #4]
 80002b6:	2200      	movs	r2, #0
 80002b8:	701a      	strb	r2, [r3, #0]
 80002ba:	9b01      	ldr	r3, [sp, #4]
 80002bc:	2200      	movs	r2, #0
 80002be:	605a      	str	r2, [r3, #4]
 80002c0:	9b01      	ldr	r3, [sp, #4]
 80002c2:	2200      	movs	r2, #0
 80002c4:	609a      	str	r2, [r3, #8]
 80002c6:	9b01      	ldr	r3, [sp, #4]
 80002c8:	2200      	movs	r2, #0
 80002ca:	60da      	str	r2, [r3, #12]
 80002cc:	9b01      	ldr	r3, [sp, #4]
 80002ce:	2200      	movs	r2, #0
 80002d0:	611a      	str	r2, [r3, #16]
 80002d2:	9a01      	ldr	r2, [sp, #4]
 80002d4:	f99d 3003 	ldrsb.w	r3, [sp, #3]
 80002d8:	4610      	mov	r0, r2
 80002da:	4619      	mov	r1, r3
 80002dc:	f001 fef4 	bl	80020c8 <gpio_init_out>
 80002e0:	9b01      	ldr	r3, [sp, #4]
 80002e2:	4618      	mov	r0, r3
 80002e4:	b003      	add	sp, #12
 80002e6:	f85d fb04 	ldr.w	pc, [sp], #4
 80002ea:	bf00      	nop

080002ec <mbed::SerialBase::~SerialBase()>:
 80002ec:	b500      	push	{lr}
 80002ee:	b083      	sub	sp, #12
 80002f0:	9001      	str	r0, [sp, #4]
 80002f2:	9b01      	ldr	r3, [sp, #4]
 80002f4:	4a06      	ldr	r2, [pc, #24]	; (8000310 <mbed::SerialBase::~SerialBase()+0x24>)
 80002f6:	601a      	str	r2, [r3, #0]
 80002f8:	2300      	movs	r3, #0
 80002fa:	2b00      	cmp	r3, #0
 80002fc:	d002      	beq.n	8000304 <mbed::SerialBase::~SerialBase()+0x18>
 80002fe:	9801      	ldr	r0, [sp, #4]
 8000300:	f004 fe60 	bl	8004fc4 <operator delete(void*)>
 8000304:	9b01      	ldr	r3, [sp, #4]
 8000306:	4618      	mov	r0, r3
 8000308:	b003      	add	sp, #12
 800030a:	f85d fb04 	ldr.w	pc, [sp], #4
 800030e:	bf00      	nop
 8000310:	08007088 	.word	0x08007088

08000314 <mbed::SerialBase::~SerialBase()>:
 8000314:	b500      	push	{lr}
 8000316:	b083      	sub	sp, #12
 8000318:	9001      	str	r0, [sp, #4]
 800031a:	9801      	ldr	r0, [sp, #4]
 800031c:	f7ff ffe6 	bl	80002ec <mbed::SerialBase::~SerialBase()>
 8000320:	9801      	ldr	r0, [sp, #4]
 8000322:	f004 fe4f 	bl	8004fc4 <operator delete(void*)>
 8000326:	9b01      	ldr	r3, [sp, #4]
 8000328:	4618      	mov	r0, r3
 800032a:	b003      	add	sp, #12
 800032c:	f85d fb04 	ldr.w	pc, [sp], #4

08000330 <main>:
 8000330:	b508      	push	{r3, lr}
 8000332:	483d      	ldr	r0, [pc, #244]	; (8000428 <main+0xf8>)
 8000334:	2100      	movs	r1, #0
 8000336:	2200      	movs	r2, #0
 8000338:	f001 f8c6 	bl	80014c8 <TextLCD_Base::locate(int, int)>
 800033c:	483a      	ldr	r0, [pc, #232]	; (8000428 <main+0xf8>)
 800033e:	493b      	ldr	r1, [pc, #236]	; (800042c <main+0xfc>)
 8000340:	f004 fdee 	bl	8004f20 <mbed::Stream::printf(char const*, ...)>
 8000344:	483a      	ldr	r0, [pc, #232]	; (8000430 <main+0x100>)
 8000346:	493b      	ldr	r1, [pc, #236]	; (8000434 <main+0x104>)
 8000348:	f004 fdea 	bl	8004f20 <mbed::Stream::printf(char const*, ...)>
 800034c:	483a      	ldr	r0, [pc, #232]	; (8000438 <main+0x108>)
 800034e:	f44f 31e1 	mov.w	r1, #115200	; 0x1c200
 8000352:	f004 fcd5 	bl	8004d00 <mbed::SerialBase::baud(int)>
 8000356:	4839      	ldr	r0, [pc, #228]	; (800043c <main+0x10c>)
 8000358:	f001 ffa8 	bl	80022ac <wait>
 800035c:	4838      	ldr	r0, [pc, #224]	; (8000440 <main+0x110>)
 800035e:	4939      	ldr	r1, [pc, #228]	; (8000444 <main+0x114>)
 8000360:	f004 fdde 	bl	8004f20 <mbed::Stream::printf(char const*, ...)>
 8000364:	4838      	ldr	r0, [pc, #224]	; (8000448 <main+0x118>)
 8000366:	f7ff ff93 	bl	8000290 <mbed::DigitalIn::operator int()>
 800036a:	4603      	mov	r3, r0
 800036c:	2b00      	cmp	r3, #0
 800036e:	bf14      	ite	ne
 8000370:	2301      	movne	r3, #1
 8000372:	2300      	moveq	r3, #0
 8000374:	b2db      	uxtb	r3, r3
 8000376:	2b00      	cmp	r3, #0
 8000378:	d009      	beq.n	800038e <main+0x5e>
 800037a:	482b      	ldr	r0, [pc, #172]	; (8000428 <main+0xf8>)
 800037c:	2100      	movs	r1, #0
 800037e:	2201      	movs	r2, #1
 8000380:	f001 f8a2 	bl	80014c8 <TextLCD_Base::locate(int, int)>
 8000384:	4828      	ldr	r0, [pc, #160]	; (8000428 <main+0xf8>)
 8000386:	4931      	ldr	r1, [pc, #196]	; (800044c <main+0x11c>)
 8000388:	f004 fdca 	bl	8004f20 <mbed::Stream::printf(char const*, ...)>
 800038c:	e04b      	b.n	8000426 <main+0xf6>
 800038e:	4830      	ldr	r0, [pc, #192]	; (8000450 <main+0x120>)
 8000390:	f7ff ff7e 	bl	8000290 <mbed::DigitalIn::operator int()>
 8000394:	4603      	mov	r3, r0
 8000396:	2b00      	cmp	r3, #0
 8000398:	bf14      	ite	ne
 800039a:	2301      	movne	r3, #1
 800039c:	2300      	moveq	r3, #0
 800039e:	b2db      	uxtb	r3, r3
 80003a0:	2b00      	cmp	r3, #0
 80003a2:	d00d      	beq.n	80003c0 <main+0x90>
 80003a4:	4820      	ldr	r0, [pc, #128]	; (8000428 <main+0xf8>)
 80003a6:	2100      	movs	r1, #0
 80003a8:	2201      	movs	r2, #1
 80003aa:	f001 f88d 	bl	80014c8 <TextLCD_Base::locate(int, int)>
 80003ae:	481e      	ldr	r0, [pc, #120]	; (8000428 <main+0xf8>)
 80003b0:	4928      	ldr	r1, [pc, #160]	; (8000454 <main+0x124>)
 80003b2:	f004 fdb5 	bl	8004f20 <mbed::Stream::printf(char const*, ...)>
 80003b6:	4822      	ldr	r0, [pc, #136]	; (8000440 <main+0x110>)
 80003b8:	4927      	ldr	r1, [pc, #156]	; (8000458 <main+0x128>)
 80003ba:	f004 fdb1 	bl	8004f20 <mbed::Stream::printf(char const*, ...)>
 80003be:	e032      	b.n	8000426 <main+0xf6>
 80003c0:	4826      	ldr	r0, [pc, #152]	; (800045c <main+0x12c>)
 80003c2:	f7ff ff65 	bl	8000290 <mbed::DigitalIn::operator int()>
 80003c6:	4603      	mov	r3, r0
 80003c8:	2b00      	cmp	r3, #0
 80003ca:	bf14      	ite	ne
 80003cc:	2301      	movne	r3, #1
 80003ce:	2300      	moveq	r3, #0
 80003d0:	b2db      	uxtb	r3, r3
 80003d2:	2b00      	cmp	r3, #0
 80003d4:	d009      	beq.n	80003ea <main+0xba>
 80003d6:	4814      	ldr	r0, [pc, #80]	; (8000428 <main+0xf8>)
 80003d8:	2100      	movs	r1, #0
 80003da:	2201      	movs	r2, #1
 80003dc:	f001 f874 	bl	80014c8 <TextLCD_Base::locate(int, int)>
 80003e0:	4811      	ldr	r0, [pc, #68]	; (8000428 <main+0xf8>)
 80003e2:	491f      	ldr	r1, [pc, #124]	; (8000460 <main+0x130>)
 80003e4:	f004 fd9c 	bl	8004f20 <mbed::Stream::printf(char const*, ...)>
 80003e8:	e01d      	b.n	8000426 <main+0xf6>
 80003ea:	481e      	ldr	r0, [pc, #120]	; (8000464 <main+0x134>)
 80003ec:	f7ff ff50 	bl	8000290 <mbed::DigitalIn::operator int()>
 80003f0:	4603      	mov	r3, r0
 80003f2:	2b00      	cmp	r3, #0
 80003f4:	bf14      	ite	ne
 80003f6:	2301      	movne	r3, #1
 80003f8:	2300      	moveq	r3, #0
 80003fa:	b2db      	uxtb	r3, r3
 80003fc:	2b00      	cmp	r3, #0
 80003fe:	d009      	beq.n	8000414 <main+0xe4>
 8000400:	4809      	ldr	r0, [pc, #36]	; (8000428 <main+0xf8>)
 8000402:	2100      	movs	r1, #0
 8000404:	2201      	movs	r2, #1
 8000406:	f001 f85f 	bl	80014c8 <TextLCD_Base::locate(int, int)>
 800040a:	4807      	ldr	r0, [pc, #28]	; (8000428 <main+0xf8>)
 800040c:	4916      	ldr	r1, [pc, #88]	; (8000468 <main+0x138>)
 800040e:	f004 fd87 	bl	8004f20 <mbed::Stream::printf(char const*, ...)>
 8000412:	e008      	b.n	8000426 <main+0xf6>
 8000414:	4804      	ldr	r0, [pc, #16]	; (8000428 <main+0xf8>)
 8000416:	2100      	movs	r1, #0
 8000418:	2201      	movs	r2, #1
 800041a:	f001 f855 	bl	80014c8 <TextLCD_Base::locate(int, int)>
 800041e:	4802      	ldr	r0, [pc, #8]	; (8000428 <main+0xf8>)
 8000420:	4912      	ldr	r1, [pc, #72]	; (800046c <main+0x13c>)
 8000422:	f004 fd7d 	bl	8004f20 <mbed::Stream::printf(char const*, ...)>
 8000426:	e79d      	b.n	8000364 <main+0x34>
 8000428:	20000380 	.word	0x20000380
 800042c:	08007028 	.word	0x08007028
 8000430:	20000290 	.word	0x20000290
 8000434:	08007038 	.word	0x08007038
 8000438:	200002a8 	.word	0x200002a8
 800043c:	40400000 	.word	0x40400000
 8000440:	20000304 	.word	0x20000304
 8000444:	08007048 	.word	0x08007048
 8000448:	20000330 	.word	0x20000330
 800044c:	08007050 	.word	0x08007050
 8000450:	20000344 	.word	0x20000344
 8000454:	08007058 	.word	0x08007058
 8000458:	08007060 	.word	0x08007060
 800045c:	20000358 	.word	0x20000358
 8000460:	08007068 	.word	0x08007068
 8000464:	2000036c 	.word	0x2000036c
 8000468:	08007070 	.word	0x08007070
 800046c:	08007078 	.word	0x08007078

08000470 <mbed::Serial::~Serial()>:
 8000470:	b500      	push	{lr}
 8000472:	b083      	sub	sp, #12
 8000474:	9001      	str	r0, [sp, #4]
 8000476:	9b01      	ldr	r3, [sp, #4]
 8000478:	4a0d      	ldr	r2, [pc, #52]	; (80004b0 <mbed::Serial::~Serial()+0x40>)
 800047a:	601a      	str	r2, [r3, #0]
 800047c:	9b01      	ldr	r3, [sp, #4]
 800047e:	4a0d      	ldr	r2, [pc, #52]	; (80004b4 <mbed::Serial::~Serial()+0x44>)
 8000480:	65da      	str	r2, [r3, #92]	; 0x5c
 8000482:	9b01      	ldr	r3, [sp, #4]
 8000484:	4a0c      	ldr	r2, [pc, #48]	; (80004b8 <mbed::Serial::~Serial()+0x48>)
 8000486:	661a      	str	r2, [r3, #96]	; 0x60
 8000488:	9b01      	ldr	r3, [sp, #4]
 800048a:	335c      	adds	r3, #92	; 0x5c
 800048c:	4618      	mov	r0, r3
 800048e:	f004 fcaf 	bl	8004df0 <mbed::Stream::~Stream()>
 8000492:	9b01      	ldr	r3, [sp, #4]
 8000494:	4618      	mov	r0, r3
 8000496:	f7ff ff29 	bl	80002ec <mbed::SerialBase::~SerialBase()>
 800049a:	2300      	movs	r3, #0
 800049c:	2b00      	cmp	r3, #0
 800049e:	d002      	beq.n	80004a6 <mbed::Serial::~Serial()+0x36>
 80004a0:	9801      	ldr	r0, [sp, #4]
 80004a2:	f004 fd8f 	bl	8004fc4 <operator delete(void*)>
 80004a6:	9b01      	ldr	r3, [sp, #4]
 80004a8:	4618      	mov	r0, r3
 80004aa:	b003      	add	sp, #12
 80004ac:	f85d fb04 	ldr.w	pc, [sp], #4
 80004b0:	08007810 	.word	0x08007810
 80004b4:	08007828 	.word	0x08007828
 80004b8:	0800785c 	.word	0x0800785c

080004bc <non-virtual thunk to mbed::Serial::~Serial()>:
 80004bc:	f1a0 005c 	sub.w	r0, r0, #92	; 0x5c
 80004c0:	f7ff bfd6 	b.w	8000470 <mbed::Serial::~Serial()>

080004c4 <non-virtual thunk to mbed::Serial::~Serial()>:
 80004c4:	f1a0 0060 	sub.w	r0, r0, #96	; 0x60
 80004c8:	f7ff bfd2 	b.w	8000470 <mbed::Serial::~Serial()>

080004cc <mbed::Serial::~Serial()>:
 80004cc:	b500      	push	{lr}
 80004ce:	b083      	sub	sp, #12
 80004d0:	9001      	str	r0, [sp, #4]
 80004d2:	9801      	ldr	r0, [sp, #4]
 80004d4:	f7ff ffcc 	bl	8000470 <mbed::Serial::~Serial()>
 80004d8:	9801      	ldr	r0, [sp, #4]
 80004da:	f004 fd73 	bl	8004fc4 <operator delete(void*)>
 80004de:	9b01      	ldr	r3, [sp, #4]
 80004e0:	4618      	mov	r0, r3
 80004e2:	b003      	add	sp, #12
 80004e4:	f85d fb04 	ldr.w	pc, [sp], #4

080004e8 <non-virtual thunk to mbed::Serial::~Serial()>:
 80004e8:	f1a0 005c 	sub.w	r0, r0, #92	; 0x5c
 80004ec:	e7ee      	b.n	80004cc <mbed::Serial::~Serial()>
 80004ee:	bf00      	nop

080004f0 <non-virtual thunk to mbed::Serial::~Serial()>:
 80004f0:	f1a0 0060 	sub.w	r0, r0, #96	; 0x60
 80004f4:	e7ea      	b.n	80004cc <mbed::Serial::~Serial()>
 80004f6:	bf00      	nop

080004f8 <__static_initialization_and_destruction_0(int, int)>:
 80004f8:	b500      	push	{lr}
 80004fa:	b08b      	sub	sp, #44	; 0x2c
 80004fc:	9009      	str	r0, [sp, #36]	; 0x24
 80004fe:	9108      	str	r1, [sp, #32]
 8000500:	9b09      	ldr	r3, [sp, #36]	; 0x24
 8000502:	2b01      	cmp	r3, #1
 8000504:	d14b      	bne.n	800059e <__static_initialization_and_destruction_0(int, int)+0xa6>
 8000506:	9b08      	ldr	r3, [sp, #32]
 8000508:	f64f 72ff 	movw	r2, #65535	; 0xffff
 800050c:	4293      	cmp	r3, r2
 800050e:	d146      	bne.n	800059e <__static_initialization_and_destruction_0(int, int)+0xa6>
 8000510:	4824      	ldr	r0, [pc, #144]	; (80005a4 <__static_initialization_and_destruction_0(int, int)+0xac>)
 8000512:	2102      	movs	r1, #2
 8000514:	2203      	movs	r2, #3
 8000516:	2300      	movs	r3, #0
 8000518:	f004 fb50 	bl	8004bbc <mbed::Serial::Serial(PinName, PinName, char const*)>
 800051c:	4821      	ldr	r0, [pc, #132]	; (80005a4 <__static_initialization_and_destruction_0(int, int)+0xac>)
 800051e:	4922      	ldr	r1, [pc, #136]	; (80005a8 <__static_initialization_and_destruction_0(int, int)+0xb0>)
 8000520:	4a22      	ldr	r2, [pc, #136]	; (80005ac <__static_initialization_and_destruction_0(int, int)+0xb4>)
 8000522:	f004 fd59 	bl	8004fd8 <__aeabi_atexit>
 8000526:	4822      	ldr	r0, [pc, #136]	; (80005b0 <__static_initialization_and_destruction_0(int, int)+0xb8>)
 8000528:	210b      	movs	r1, #11
 800052a:	220c      	movs	r2, #12
 800052c:	2300      	movs	r3, #0
 800052e:	f004 fb45 	bl	8004bbc <mbed::Serial::Serial(PinName, PinName, char const*)>
 8000532:	481f      	ldr	r0, [pc, #124]	; (80005b0 <__static_initialization_and_destruction_0(int, int)+0xb8>)
 8000534:	491c      	ldr	r1, [pc, #112]	; (80005a8 <__static_initialization_and_destruction_0(int, int)+0xb0>)
 8000536:	4a1d      	ldr	r2, [pc, #116]	; (80005ac <__static_initialization_and_destruction_0(int, int)+0xb4>)
 8000538:	f004 fd4e 	bl	8004fd8 <__aeabi_atexit>
 800053c:	481d      	ldr	r0, [pc, #116]	; (80005b4 <__static_initialization_and_destruction_0(int, int)+0xbc>)
 800053e:	2105      	movs	r1, #5
 8000540:	f7ff feb2 	bl	80002a8 <mbed::DigitalOut::DigitalOut(PinName)>
 8000544:	481c      	ldr	r0, [pc, #112]	; (80005b8 <__static_initialization_and_destruction_0(int, int)+0xc0>)
 8000546:	2116      	movs	r1, #22
 8000548:	f7ff fe74 	bl	8000234 <mbed::DigitalIn::DigitalIn(PinName)>
 800054c:	481b      	ldr	r0, [pc, #108]	; (80005bc <__static_initialization_and_destruction_0(int, int)+0xc4>)
 800054e:	2107      	movs	r1, #7
 8000550:	f7ff fe70 	bl	8000234 <mbed::DigitalIn::DigitalIn(PinName)>
 8000554:	481a      	ldr	r0, [pc, #104]	; (80005c0 <__static_initialization_and_destruction_0(int, int)+0xc8>)
 8000556:	2106      	movs	r1, #6
 8000558:	f7ff fe6c 	bl	8000234 <mbed::DigitalIn::DigitalIn(PinName)>
 800055c:	4819      	ldr	r0, [pc, #100]	; (80005c4 <__static_initialization_and_destruction_0(int, int)+0xcc>)
 800055e:	2105      	movs	r1, #5
 8000560:	f7ff fe68 	bl	8000234 <mbed::DigitalIn::DigitalIn(PinName)>
 8000564:	2314      	movs	r3, #20
 8000566:	9300      	str	r3, [sp, #0]
 8000568:	231a      	movs	r3, #26
 800056a:	9301      	str	r3, [sp, #4]
 800056c:	2308      	movs	r3, #8
 800056e:	9302      	str	r3, [sp, #8]
 8000570:	f44f 7304 	mov.w	r3, #528	; 0x210
 8000574:	9303      	str	r3, [sp, #12]
 8000576:	f04f 33ff 	mov.w	r3, #4294967295
 800057a:	9304      	str	r3, [sp, #16]
 800057c:	f04f 33ff 	mov.w	r3, #4294967295
 8000580:	9305      	str	r3, [sp, #20]
 8000582:	f04f 7380 	mov.w	r3, #16777216	; 0x1000000
 8000586:	9306      	str	r3, [sp, #24]
 8000588:	480f      	ldr	r0, [pc, #60]	; (80005c8 <__static_initialization_and_destruction_0(int, int)+0xd0>)
 800058a:	2109      	movs	r1, #9
 800058c:	2227      	movs	r2, #39	; 0x27
 800058e:	2315      	movs	r3, #21
 8000590:	f001 faf2 	bl	8001b78 <TextLCD::TextLCD(PinName, PinName, PinName, PinName, PinName, PinName, TextLCD_Base::LCDType, PinName, PinName, TextLCD_Base::LCDCtrl)>
 8000594:	480c      	ldr	r0, [pc, #48]	; (80005c8 <__static_initialization_and_destruction_0(int, int)+0xd0>)
 8000596:	490d      	ldr	r1, [pc, #52]	; (80005cc <__static_initialization_and_destruction_0(int, int)+0xd4>)
 8000598:	4a04      	ldr	r2, [pc, #16]	; (80005ac <__static_initialization_and_destruction_0(int, int)+0xb4>)
 800059a:	f004 fd1d 	bl	8004fd8 <__aeabi_atexit>
 800059e:	b00b      	add	sp, #44	; 0x2c
 80005a0:	f85d fb04 	ldr.w	pc, [sp], #4
 80005a4:	20000234 	.word	0x20000234
 80005a8:	08000471 	.word	0x08000471
 80005ac:	20000194 	.word	0x20000194
 80005b0:	200002a8 	.word	0x200002a8
 80005b4:	2000031c 	.word	0x2000031c
 80005b8:	20000330 	.word	0x20000330
 80005bc:	20000344 	.word	0x20000344
 80005c0:	20000358 	.word	0x20000358
 80005c4:	2000036c 	.word	0x2000036c
 80005c8:	20000380 	.word	0x20000380
 80005cc:	08001ccd 	.word	0x08001ccd

080005d0 <_GLOBAL__sub_I_pc>:
 80005d0:	b508      	push	{r3, lr}
 80005d2:	2001      	movs	r0, #1
 80005d4:	f64f 71ff 	movw	r1, #65535	; 0xffff
 80005d8:	f7ff ff8e 	bl	80004f8 <__static_initialization_and_destruction_0(int, int)>
 80005dc:	bd08      	pop	{r3, pc}
 80005de:	bf00      	nop

080005e0 <gpio_write>:
 80005e0:	b500      	push	{lr}
 80005e2:	b083      	sub	sp, #12
 80005e4:	9001      	str	r0, [sp, #4]
 80005e6:	9100      	str	r1, [sp, #0]
 80005e8:	9b01      	ldr	r3, [sp, #4]
 80005ea:	781b      	ldrb	r3, [r3, #0]
 80005ec:	b25b      	sxtb	r3, r3
 80005ee:	f1b3 3fff 	cmp.w	r3, #4294967295
 80005f2:	d104      	bne.n	80005fe <gpio_write+0x1e>
 80005f4:	480b      	ldr	r0, [pc, #44]	; (8000624 <gpio_write+0x44>)
 80005f6:	490c      	ldr	r1, [pc, #48]	; (8000628 <gpio_write+0x48>)
 80005f8:	2235      	movs	r2, #53	; 0x35
 80005fa:	f001 fc9b 	bl	8001f34 <mbed_assert_internal>
 80005fe:	9b00      	ldr	r3, [sp, #0]
 8000600:	2b00      	cmp	r3, #0
 8000602:	d006      	beq.n	8000612 <gpio_write+0x32>
 8000604:	9b01      	ldr	r3, [sp, #4]
 8000606:	68db      	ldr	r3, [r3, #12]
 8000608:	9a01      	ldr	r2, [sp, #4]
 800060a:	6852      	ldr	r2, [r2, #4]
 800060c:	b292      	uxth	r2, r2
 800060e:	801a      	strh	r2, [r3, #0]
 8000610:	e005      	b.n	800061e <gpio_write+0x3e>
 8000612:	9b01      	ldr	r3, [sp, #4]
 8000614:	691b      	ldr	r3, [r3, #16]
 8000616:	9a01      	ldr	r2, [sp, #4]
 8000618:	6852      	ldr	r2, [r2, #4]
 800061a:	b292      	uxth	r2, r2
 800061c:	801a      	strh	r2, [r3, #0]
 800061e:	b003      	add	sp, #12
 8000620:	f85d fb04 	ldr.w	pc, [sp], #4
 8000624:	08007090 	.word	0x08007090
 8000628:	080070a8 	.word	0x080070a8

0800062c <mbed::DigitalOut::write(int)>:
 800062c:	b500      	push	{lr}
 800062e:	b083      	sub	sp, #12
 8000630:	9001      	str	r0, [sp, #4]
 8000632:	9100      	str	r1, [sp, #0]
 8000634:	9b01      	ldr	r3, [sp, #4]
 8000636:	4618      	mov	r0, r3
 8000638:	9900      	ldr	r1, [sp, #0]
 800063a:	f7ff ffd1 	bl	80005e0 <gpio_write>
 800063e:	b003      	add	sp, #12
 8000640:	f85d fb04 	ldr.w	pc, [sp], #4

08000644 <mbed::DigitalOut::operator=(int)>:
 8000644:	b500      	push	{lr}
 8000646:	b083      	sub	sp, #12
 8000648:	9001      	str	r0, [sp, #4]
 800064a:	9100      	str	r1, [sp, #0]
 800064c:	9801      	ldr	r0, [sp, #4]
 800064e:	9900      	ldr	r1, [sp, #0]
 8000650:	f7ff ffec 	bl	800062c <mbed::DigitalOut::write(int)>
 8000654:	9b01      	ldr	r3, [sp, #4]
 8000656:	4618      	mov	r0, r3
 8000658:	b003      	add	sp, #12
 800065a:	f85d fb04 	ldr.w	pc, [sp], #4
 800065e:	bf00      	nop

08000660 <TextLCD_Base::TextLCD_Base(TextLCD_Base::LCDType, TextLCD_Base::LCDCtrl)>:
 8000660:	b500      	push	{lr}
 8000662:	b085      	sub	sp, #20
 8000664:	9003      	str	r0, [sp, #12]
 8000666:	9102      	str	r1, [sp, #8]
 8000668:	9201      	str	r2, [sp, #4]
 800066a:	9b03      	ldr	r3, [sp, #12]
 800066c:	4618      	mov	r0, r3
 800066e:	2100      	movs	r1, #0
 8000670:	f004 fb8c 	bl	8004d8c <mbed::Stream::Stream(char const*)>
 8000674:	9b03      	ldr	r3, [sp, #12]
 8000676:	4a10      	ldr	r2, [pc, #64]	; (80006b8 <TextLCD_Base::TextLCD_Base(TextLCD_Base::LCDType, TextLCD_Base::LCDCtrl)+0x58>)
 8000678:	601a      	str	r2, [r3, #0]
 800067a:	9b03      	ldr	r3, [sp, #12]
 800067c:	4a0f      	ldr	r2, [pc, #60]	; (80006bc <TextLCD_Base::TextLCD_Base(TextLCD_Base::LCDType, TextLCD_Base::LCDCtrl)+0x5c>)
 800067e:	605a      	str	r2, [r3, #4]
 8000680:	9b03      	ldr	r3, [sp, #12]
 8000682:	9a02      	ldr	r2, [sp, #8]
 8000684:	619a      	str	r2, [r3, #24]
 8000686:	9b03      	ldr	r3, [sp, #12]
 8000688:	9a01      	ldr	r2, [sp, #4]
 800068a:	62da      	str	r2, [r3, #44]	; 0x2c
 800068c:	9b03      	ldr	r3, [sp, #12]
 800068e:	699b      	ldr	r3, [r3, #24]
 8000690:	b2da      	uxtb	r2, r3
 8000692:	9b03      	ldr	r3, [sp, #12]
 8000694:	61da      	str	r2, [r3, #28]
 8000696:	9b03      	ldr	r3, [sp, #12]
 8000698:	699b      	ldr	r3, [r3, #24]
 800069a:	121b      	asrs	r3, r3, #8
 800069c:	b2da      	uxtb	r2, r3
 800069e:	9b03      	ldr	r3, [sp, #12]
 80006a0:	621a      	str	r2, [r3, #32]
 80006a2:	9b03      	ldr	r3, [sp, #12]
 80006a4:	699b      	ldr	r3, [r3, #24]
 80006a6:	f403 2270 	and.w	r2, r3, #983040	; 0xf0000
 80006aa:	9b03      	ldr	r3, [sp, #12]
 80006ac:	625a      	str	r2, [r3, #36]	; 0x24
 80006ae:	9b03      	ldr	r3, [sp, #12]
 80006b0:	4618      	mov	r0, r3
 80006b2:	b005      	add	sp, #20
 80006b4:	f85d fb04 	ldr.w	pc, [sp], #4
 80006b8:	080073b0 	.word	0x080073b0
 80006bc:	080073f8 	.word	0x080073f8

080006c0 <TextLCD_Base::_init(TextLCD_Base::_LCDDatalength)>:
 80006c0:	b500      	push	{lr}
 80006c2:	b083      	sub	sp, #12
 80006c4:	9001      	str	r0, [sp, #4]
 80006c6:	460b      	mov	r3, r1
 80006c8:	f88d 3003 	strb.w	r3, [sp, #3]
 80006cc:	9b01      	ldr	r3, [sp, #4]
 80006ce:	699b      	ldr	r3, [r3, #24]
 80006d0:	4a0e      	ldr	r2, [pc, #56]	; (800070c <TextLCD_Base::_init(TextLCD_Base::_LCDDatalength)+0x4c>)
 80006d2:	4293      	cmp	r3, r2
 80006d4:	d109      	bne.n	80006ea <TextLCD_Base::_init(TextLCD_Base::_LCDDatalength)+0x2a>
 80006d6:	9b01      	ldr	r3, [sp, #4]
 80006d8:	2201      	movs	r2, #1
 80006da:	f883 2030 	strb.w	r2, [r3, #48]	; 0x30
 80006de:	f89d 3003 	ldrb.w	r3, [sp, #3]
 80006e2:	9801      	ldr	r0, [sp, #4]
 80006e4:	4619      	mov	r1, r3
 80006e6:	f000 f813 	bl	8000710 <TextLCD_Base::_initCtrl(TextLCD_Base::_LCDDatalength)>
 80006ea:	9b01      	ldr	r3, [sp, #4]
 80006ec:	2200      	movs	r2, #0
 80006ee:	f883 2030 	strb.w	r2, [r3, #48]	; 0x30
 80006f2:	f89d 3003 	ldrb.w	r3, [sp, #3]
 80006f6:	9801      	ldr	r0, [sp, #4]
 80006f8:	4619      	mov	r1, r3
 80006fa:	f000 f809 	bl	8000710 <TextLCD_Base::_initCtrl(TextLCD_Base::_LCDDatalength)>
 80006fe:	9801      	ldr	r0, [sp, #4]
 8000700:	f000 fea2 	bl	8001448 <TextLCD_Base::cls()>
 8000704:	b003      	add	sp, #12
 8000706:	f85d fb04 	ldr.w	pc, [sp], #4
 800070a:	bf00      	nop
 800070c:	00050428 	.word	0x00050428

08000710 <TextLCD_Base::_initCtrl(TextLCD_Base::_LCDDatalength)>:
 8000710:	b500      	push	{lr}
 8000712:	b085      	sub	sp, #20
 8000714:	9001      	str	r0, [sp, #4]
 8000716:	460b      	mov	r3, r1
 8000718:	f88d 3003 	strb.w	r3, [sp, #3]
 800071c:	2300      	movs	r3, #0
 800071e:	9303      	str	r3, [sp, #12]
 8000720:	2300      	movs	r3, #0
 8000722:	9302      	str	r3, [sp, #8]
 8000724:	9b01      	ldr	r3, [sp, #4]
 8000726:	681b      	ldr	r3, [r3, #0]
 8000728:	3330      	adds	r3, #48	; 0x30
 800072a:	681b      	ldr	r3, [r3, #0]
 800072c:	9801      	ldr	r0, [sp, #4]
 800072e:	2100      	movs	r1, #0
 8000730:	4798      	blx	r3
 8000732:	2014      	movs	r0, #20
 8000734:	f001 fdce 	bl	80022d4 <wait_ms>
 8000738:	9801      	ldr	r0, [sp, #4]
 800073a:	2103      	movs	r1, #3
 800073c:	f000 ff3e 	bl	80015bc <TextLCD_Base::_writeNibble(int)>
 8000740:	200f      	movs	r0, #15
 8000742:	f001 fdc7 	bl	80022d4 <wait_ms>
 8000746:	9801      	ldr	r0, [sp, #4]
 8000748:	2103      	movs	r1, #3
 800074a:	f000 ff37 	bl	80015bc <TextLCD_Base::_writeNibble(int)>
 800074e:	200f      	movs	r0, #15
 8000750:	f001 fdc0 	bl	80022d4 <wait_ms>
 8000754:	9801      	ldr	r0, [sp, #4]
 8000756:	2103      	movs	r1, #3
 8000758:	f000 ff30 	bl	80015bc <TextLCD_Base::_writeNibble(int)>
 800075c:	200f      	movs	r0, #15
 800075e:	f001 fdb9 	bl	80022d4 <wait_ms>
 8000762:	9801      	ldr	r0, [sp, #4]
 8000764:	2102      	movs	r1, #2
 8000766:	f000 ff29 	bl	80015bc <TextLCD_Base::_writeNibble(int)>
 800076a:	2028      	movs	r0, #40	; 0x28
 800076c:	f001 fdc0 	bl	80022f0 <wait_us>
 8000770:	9b01      	ldr	r3, [sp, #4]
 8000772:	6adb      	ldr	r3, [r3, #44]	; 0x2c
 8000774:	4aa6      	ldr	r2, [pc, #664]	; (8000a10 <TextLCD_Base::_initCtrl(TextLCD_Base::_LCDDatalength)+0x300>)
 8000776:	4293      	cmp	r3, r2
 8000778:	f000 83d4 	beq.w	8000f24 <TextLCD_Base::_initCtrl(TextLCD_Base::_LCDDatalength)+0x814>
 800077c:	4aa4      	ldr	r2, [pc, #656]	; (8000a10 <TextLCD_Base::_initCtrl(TextLCD_Base::_LCDDatalength)+0x300>)
 800077e:	4293      	cmp	r3, r2
 8000780:	d821      	bhi.n	80007c6 <TextLCD_Base::_initCtrl(TextLCD_Base::_LCDDatalength)+0xb6>
 8000782:	4aa4      	ldr	r2, [pc, #656]	; (8000a14 <TextLCD_Base::_initCtrl(TextLCD_Base::_LCDDatalength)+0x304>)
 8000784:	4293      	cmp	r3, r2
 8000786:	d046      	beq.n	8000816 <TextLCD_Base::_initCtrl(TextLCD_Base::_LCDDatalength)+0x106>
 8000788:	4aa2      	ldr	r2, [pc, #648]	; (8000a14 <TextLCD_Base::_initCtrl(TextLCD_Base::_LCDDatalength)+0x304>)
 800078a:	4293      	cmp	r3, r2
 800078c:	d80d      	bhi.n	80007aa <TextLCD_Base::_initCtrl(TextLCD_Base::_LCDDatalength)+0x9a>
 800078e:	4aa2      	ldr	r2, [pc, #648]	; (8000a18 <TextLCD_Base::_initCtrl(TextLCD_Base::_LCDDatalength)+0x308>)
 8000790:	4293      	cmp	r3, r2
 8000792:	f000 85ab 	beq.w	80012ec <TextLCD_Base::_initCtrl(TextLCD_Base::_LCDDatalength)+0xbdc>
 8000796:	4aa1      	ldr	r2, [pc, #644]	; (8000a1c <TextLCD_Base::_initCtrl(TextLCD_Base::_LCDDatalength)+0x30c>)
 8000798:	4293      	cmp	r3, r2
 800079a:	f000 80aa 	beq.w	80008f2 <TextLCD_Base::_initCtrl(TextLCD_Base::_LCDDatalength)+0x1e2>
 800079e:	4aa0      	ldr	r2, [pc, #640]	; (8000a20 <TextLCD_Base::_initCtrl(TextLCD_Base::_LCDDatalength)+0x310>)
 80007a0:	4293      	cmp	r3, r2
 80007a2:	f000 8471 	beq.w	8001088 <TextLCD_Base::_initCtrl(TextLCD_Base::_LCDDatalength)+0x978>
 80007a6:	f000 bde7 	b.w	8001378 <TextLCD_Base::_initCtrl(TextLCD_Base::_LCDDatalength)+0xc68>
 80007aa:	4a9e      	ldr	r2, [pc, #632]	; (8000a24 <TextLCD_Base::_initCtrl(TextLCD_Base::_LCDDatalength)+0x314>)
 80007ac:	4293      	cmp	r3, r2
 80007ae:	f000 8331 	beq.w	8000e14 <TextLCD_Base::_initCtrl(TextLCD_Base::_LCDDatalength)+0x704>
 80007b2:	4a9d      	ldr	r2, [pc, #628]	; (8000a28 <TextLCD_Base::_initCtrl(TextLCD_Base::_LCDDatalength)+0x318>)
 80007b4:	4293      	cmp	r3, r2
 80007b6:	f000 83e8 	beq.w	8000f8a <TextLCD_Base::_initCtrl(TextLCD_Base::_LCDDatalength)+0x87a>
 80007ba:	4a9c      	ldr	r2, [pc, #624]	; (8000a2c <TextLCD_Base::_initCtrl(TextLCD_Base::_LCDDatalength)+0x31c>)
 80007bc:	4293      	cmp	r3, r2
 80007be:	f000 821d 	beq.w	8000bfc <TextLCD_Base::_initCtrl(TextLCD_Base::_LCDDatalength)+0x4ec>
 80007c2:	f000 bdd9 	b.w	8001378 <TextLCD_Base::_initCtrl(TextLCD_Base::_LCDDatalength)+0xc68>
 80007c6:	4a9a      	ldr	r2, [pc, #616]	; (8000a30 <TextLCD_Base::_initCtrl(TextLCD_Base::_LCDDatalength)+0x320>)
 80007c8:	4293      	cmp	r3, r2
 80007ca:	f000 825d 	beq.w	8000c88 <TextLCD_Base::_initCtrl(TextLCD_Base::_LCDDatalength)+0x578>
 80007ce:	4a98      	ldr	r2, [pc, #608]	; (8000a30 <TextLCD_Base::_initCtrl(TextLCD_Base::_LCDDatalength)+0x320>)
 80007d0:	4293      	cmp	r3, r2
 80007d2:	d80d      	bhi.n	80007f0 <TextLCD_Base::_initCtrl(TextLCD_Base::_LCDDatalength)+0xe0>
 80007d4:	4a97      	ldr	r2, [pc, #604]	; (8000a34 <TextLCD_Base::_initCtrl(TextLCD_Base::_LCDDatalength)+0x324>)
 80007d6:	4293      	cmp	r3, r2
 80007d8:	f000 83ef 	beq.w	8000fba <TextLCD_Base::_initCtrl(TextLCD_Base::_LCDDatalength)+0x8aa>
 80007dc:	4a96      	ldr	r2, [pc, #600]	; (8000a38 <TextLCD_Base::_initCtrl(TextLCD_Base::_LCDDatalength)+0x328>)
 80007de:	4293      	cmp	r3, r2
 80007e0:	f000 84a0 	beq.w	8001124 <TextLCD_Base::_initCtrl(TextLCD_Base::_LCDDatalength)+0xa14>
 80007e4:	4a95      	ldr	r2, [pc, #596]	; (8000a3c <TextLCD_Base::_initCtrl(TextLCD_Base::_LCDDatalength)+0x32c>)
 80007e6:	4293      	cmp	r3, r2
 80007e8:	f000 8349 	beq.w	8000e7e <TextLCD_Base::_initCtrl(TextLCD_Base::_LCDDatalength)+0x76e>
 80007ec:	f000 bdc4 	b.w	8001378 <TextLCD_Base::_initCtrl(TextLCD_Base::_LCDDatalength)+0xc68>
 80007f0:	4a93      	ldr	r2, [pc, #588]	; (8000a40 <TextLCD_Base::_initCtrl(TextLCD_Base::_LCDDatalength)+0x330>)
 80007f2:	4293      	cmp	r3, r2
 80007f4:	d809      	bhi.n	800080a <TextLCD_Base::_initCtrl(TextLCD_Base::_LCDDatalength)+0xfa>
 80007f6:	4a93      	ldr	r2, [pc, #588]	; (8000a44 <TextLCD_Base::_initCtrl(TextLCD_Base::_LCDDatalength)+0x334>)
 80007f8:	4293      	cmp	r3, r2
 80007fa:	f080 8184 	bcs.w	8000b06 <TextLCD_Base::_initCtrl(TextLCD_Base::_LCDDatalength)+0x3f6>
 80007fe:	4a92      	ldr	r2, [pc, #584]	; (8000a48 <TextLCD_Base::_initCtrl(TextLCD_Base::_LCDDatalength)+0x338>)
 8000800:	4293      	cmp	r3, r2
 8000802:	f000 80d2 	beq.w	80009aa <TextLCD_Base::_initCtrl(TextLCD_Base::_LCDDatalength)+0x29a>
 8000806:	f000 bdb7 	b.w	8001378 <TextLCD_Base::_initCtrl(TextLCD_Base::_LCDDatalength)+0xc68>
 800080a:	4a90      	ldr	r2, [pc, #576]	; (8000a4c <TextLCD_Base::_initCtrl(TextLCD_Base::_LCDDatalength)+0x33c>)
 800080c:	4293      	cmp	r3, r2
 800080e:	f000 80cc 	beq.w	80009aa <TextLCD_Base::_initCtrl(TextLCD_Base::_LCDDatalength)+0x29a>
 8000812:	f000 bdb1 	b.w	8001378 <TextLCD_Base::_initCtrl(TextLCD_Base::_LCDDatalength)+0xc68>
 8000816:	9b01      	ldr	r3, [sp, #4]
 8000818:	699b      	ldr	r3, [r3, #24]
 800081a:	f5b3 7f8c 	cmp.w	r3, #280	; 0x118
 800081e:	d024      	beq.n	800086a <TextLCD_Base::_initCtrl(TextLCD_Base::_LCDDatalength)+0x15a>
 8000820:	f5b3 7f8c 	cmp.w	r3, #280	; 0x118
 8000824:	dc10      	bgt.n	8000848 <TextLCD_Base::_initCtrl(TextLCD_Base::_LCDDatalength)+0x138>
 8000826:	f5b3 7f86 	cmp.w	r3, #268	; 0x10c
 800082a:	d01e      	beq.n	800086a <TextLCD_Base::_initCtrl(TextLCD_Base::_LCDDatalength)+0x15a>
 800082c:	f5b3 7f86 	cmp.w	r3, #268	; 0x10c
 8000830:	dc03      	bgt.n	800083a <TextLCD_Base::_initCtrl(TextLCD_Base::_LCDDatalength)+0x12a>
 8000832:	f5b3 7f84 	cmp.w	r3, #264	; 0x108
 8000836:	d018      	beq.n	800086a <TextLCD_Base::_initCtrl(TextLCD_Base::_LCDDatalength)+0x15a>
 8000838:	e02f      	b.n	800089a <TextLCD_Base::_initCtrl(TextLCD_Base::_LCDDatalength)+0x18a>
 800083a:	f5b3 7f88 	cmp.w	r3, #272	; 0x110
 800083e:	d014      	beq.n	800086a <TextLCD_Base::_initCtrl(TextLCD_Base::_LCDDatalength)+0x15a>
 8000840:	f5b3 7f8a 	cmp.w	r3, #276	; 0x114
 8000844:	d011      	beq.n	800086a <TextLCD_Base::_initCtrl(TextLCD_Base::_LCDDatalength)+0x15a>
 8000846:	e028      	b.n	800089a <TextLCD_Base::_initCtrl(TextLCD_Base::_LCDDatalength)+0x18a>
 8000848:	4a81      	ldr	r2, [pc, #516]	; (8000a50 <TextLCD_Base::_initCtrl(TextLCD_Base::_LCDDatalength)+0x340>)
 800084a:	4293      	cmp	r3, r2
 800084c:	d017      	beq.n	800087e <TextLCD_Base::_initCtrl(TextLCD_Base::_LCDDatalength)+0x16e>
 800084e:	4a80      	ldr	r2, [pc, #512]	; (8000a50 <TextLCD_Base::_initCtrl(TextLCD_Base::_LCDDatalength)+0x340>)
 8000850:	4293      	cmp	r3, r2
 8000852:	dc03      	bgt.n	800085c <TextLCD_Base::_initCtrl(TextLCD_Base::_LCDDatalength)+0x14c>
 8000854:	4a7f      	ldr	r2, [pc, #508]	; (8000a54 <TextLCD_Base::_initCtrl(TextLCD_Base::_LCDDatalength)+0x344>)
 8000856:	4293      	cmp	r3, r2
 8000858:	d011      	beq.n	800087e <TextLCD_Base::_initCtrl(TextLCD_Base::_LCDDatalength)+0x16e>
 800085a:	e01e      	b.n	800089a <TextLCD_Base::_initCtrl(TextLCD_Base::_LCDDatalength)+0x18a>
 800085c:	4a7e      	ldr	r2, [pc, #504]	; (8000a58 <TextLCD_Base::_initCtrl(TextLCD_Base::_LCDDatalength)+0x348>)
 800085e:	4293      	cmp	r3, r2
 8000860:	d017      	beq.n	8000892 <TextLCD_Base::_initCtrl(TextLCD_Base::_LCDDatalength)+0x182>
 8000862:	4a7e      	ldr	r2, [pc, #504]	; (8000a5c <TextLCD_Base::_initCtrl(TextLCD_Base::_LCDDatalength)+0x34c>)
 8000864:	4293      	cmp	r3, r2
 8000866:	d014      	beq.n	8000892 <TextLCD_Base::_initCtrl(TextLCD_Base::_LCDDatalength)+0x182>
 8000868:	e017      	b.n	800089a <TextLCD_Base::_initCtrl(TextLCD_Base::_LCDDatalength)+0x18a>
 800086a:	9b01      	ldr	r3, [sp, #4]
 800086c:	2202      	movs	r2, #2
 800086e:	641a      	str	r2, [r3, #64]	; 0x40
 8000870:	9b01      	ldr	r3, [sp, #4]
 8000872:	2204      	movs	r2, #4
 8000874:	645a      	str	r2, [r3, #68]	; 0x44
 8000876:	9b01      	ldr	r3, [sp, #4]
 8000878:	2200      	movs	r2, #0
 800087a:	649a      	str	r2, [r3, #72]	; 0x48
 800087c:	e017      	b.n	80008ae <TextLCD_Base::_initCtrl(TextLCD_Base::_LCDDatalength)+0x19e>
 800087e:	9b01      	ldr	r3, [sp, #4]
 8000880:	2202      	movs	r2, #2
 8000882:	641a      	str	r2, [r3, #64]	; 0x40
 8000884:	9b01      	ldr	r3, [sp, #4]
 8000886:	2204      	movs	r2, #4
 8000888:	645a      	str	r2, [r3, #68]	; 0x44
 800088a:	9b01      	ldr	r3, [sp, #4]
 800088c:	2201      	movs	r2, #1
 800088e:	649a      	str	r2, [r3, #72]	; 0x48
 8000890:	e00d      	b.n	80008ae <TextLCD_Base::_initCtrl(TextLCD_Base::_LCDDatalength)+0x19e>
 8000892:	4873      	ldr	r0, [pc, #460]	; (8000a60 <TextLCD_Base::_initCtrl(TextLCD_Base::_LCDDatalength)+0x350>)
 8000894:	f001 fb72 	bl	8001f7c <error>
 8000898:	e009      	b.n	80008ae <TextLCD_Base::_initCtrl(TextLCD_Base::_LCDDatalength)+0x19e>
 800089a:	9b01      	ldr	r3, [sp, #4]
 800089c:	220a      	movs	r2, #10
 800089e:	641a      	str	r2, [r3, #64]	; 0x40
 80008a0:	9b01      	ldr	r3, [sp, #4]
 80008a2:	220c      	movs	r2, #12
 80008a4:	645a      	str	r2, [r3, #68]	; 0x44
 80008a6:	9b01      	ldr	r3, [sp, #4]
 80008a8:	2200      	movs	r2, #0
 80008aa:	649a      	str	r2, [r3, #72]	; 0x48
 80008ac:	bf00      	nop
 80008ae:	9b01      	ldr	r3, [sp, #4]
 80008b0:	6c5b      	ldr	r3, [r3, #68]	; 0x44
 80008b2:	f043 0320 	orr.w	r3, r3, #32
 80008b6:	9801      	ldr	r0, [sp, #4]
 80008b8:	4619      	mov	r1, r3
 80008ba:	f000 fee5 	bl	8001688 <TextLCD_Base::_writeCommand(int)>
 80008be:	9b01      	ldr	r3, [sp, #4]
 80008c0:	6c9b      	ldr	r3, [r3, #72]	; 0x48
 80008c2:	f043 0308 	orr.w	r3, r3, #8
 80008c6:	9801      	ldr	r0, [sp, #4]
 80008c8:	4619      	mov	r1, r3
 80008ca:	f000 fedd 	bl	8001688 <TextLCD_Base::_writeCommand(int)>
 80008ce:	9801      	ldr	r0, [sp, #4]
 80008d0:	2110      	movs	r1, #16
 80008d2:	f000 fed9 	bl	8001688 <TextLCD_Base::_writeCommand(int)>
 80008d6:	9801      	ldr	r0, [sp, #4]
 80008d8:	2180      	movs	r1, #128	; 0x80
 80008da:	f000 fed5 	bl	8001688 <TextLCD_Base::_writeCommand(int)>
 80008de:	9b01      	ldr	r3, [sp, #4]
 80008e0:	6c1b      	ldr	r3, [r3, #64]	; 0x40
 80008e2:	f043 0320 	orr.w	r3, r3, #32
 80008e6:	9801      	ldr	r0, [sp, #4]
 80008e8:	4619      	mov	r1, r3
 80008ea:	f000 fecd 	bl	8001688 <TextLCD_Base::_writeCommand(int)>
 80008ee:	f000 bd94 	b.w	800141a <TextLCD_Base::_initCtrl(TextLCD_Base::_LCDDatalength)+0xd0a>
 80008f2:	9b01      	ldr	r3, [sp, #4]
 80008f4:	699b      	ldr	r3, [r3, #24]
 80008f6:	f5b3 7f8c 	cmp.w	r3, #280	; 0x118
 80008fa:	d012      	beq.n	8000922 <TextLCD_Base::_initCtrl(TextLCD_Base::_LCDDatalength)+0x212>
 80008fc:	f5b3 7f8c 	cmp.w	r3, #280	; 0x118
 8000900:	dc06      	bgt.n	8000910 <TextLCD_Base::_initCtrl(TextLCD_Base::_LCDDatalength)+0x200>
 8000902:	f5b3 7f84 	cmp.w	r3, #264	; 0x108
 8000906:	d00c      	beq.n	8000922 <TextLCD_Base::_initCtrl(TextLCD_Base::_LCDDatalength)+0x212>
 8000908:	f5b3 7f88 	cmp.w	r3, #272	; 0x110
 800090c:	d009      	beq.n	8000922 <TextLCD_Base::_initCtrl(TextLCD_Base::_LCDDatalength)+0x212>
 800090e:	e020      	b.n	8000952 <TextLCD_Base::_initCtrl(TextLCD_Base::_LCDDatalength)+0x242>
 8000910:	4a51      	ldr	r2, [pc, #324]	; (8000a58 <TextLCD_Base::_initCtrl(TextLCD_Base::_LCDDatalength)+0x348>)
 8000912:	4293      	cmp	r3, r2
 8000914:	d00f      	beq.n	8000936 <TextLCD_Base::_initCtrl(TextLCD_Base::_LCDDatalength)+0x226>
 8000916:	4a51      	ldr	r2, [pc, #324]	; (8000a5c <TextLCD_Base::_initCtrl(TextLCD_Base::_LCDDatalength)+0x34c>)
 8000918:	4293      	cmp	r3, r2
 800091a:	d016      	beq.n	800094a <TextLCD_Base::_initCtrl(TextLCD_Base::_LCDDatalength)+0x23a>
 800091c:	4a51      	ldr	r2, [pc, #324]	; (8000a64 <TextLCD_Base::_initCtrl(TextLCD_Base::_LCDDatalength)+0x354>)
 800091e:	4293      	cmp	r3, r2
 8000920:	d117      	bne.n	8000952 <TextLCD_Base::_initCtrl(TextLCD_Base::_LCDDatalength)+0x242>
 8000922:	9b01      	ldr	r3, [sp, #4]
 8000924:	2202      	movs	r2, #2
 8000926:	641a      	str	r2, [r3, #64]	; 0x40
 8000928:	9b01      	ldr	r3, [sp, #4]
 800092a:	2204      	movs	r2, #4
 800092c:	645a      	str	r2, [r3, #68]	; 0x44
 800092e:	9b01      	ldr	r3, [sp, #4]
 8000930:	2200      	movs	r2, #0
 8000932:	649a      	str	r2, [r3, #72]	; 0x48
 8000934:	e017      	b.n	8000966 <TextLCD_Base::_initCtrl(TextLCD_Base::_LCDDatalength)+0x256>
 8000936:	9b01      	ldr	r3, [sp, #4]
 8000938:	2202      	movs	r2, #2
 800093a:	641a      	str	r2, [r3, #64]	; 0x40
 800093c:	9b01      	ldr	r3, [sp, #4]
 800093e:	2204      	movs	r2, #4
 8000940:	645a      	str	r2, [r3, #68]	; 0x44
 8000942:	9b01      	ldr	r3, [sp, #4]
 8000944:	2201      	movs	r2, #1
 8000946:	649a      	str	r2, [r3, #72]	; 0x48
 8000948:	e00d      	b.n	8000966 <TextLCD_Base::_initCtrl(TextLCD_Base::_LCDDatalength)+0x256>
 800094a:	4845      	ldr	r0, [pc, #276]	; (8000a60 <TextLCD_Base::_initCtrl(TextLCD_Base::_LCDDatalength)+0x350>)
 800094c:	f001 fb16 	bl	8001f7c <error>
 8000950:	e009      	b.n	8000966 <TextLCD_Base::_initCtrl(TextLCD_Base::_LCDDatalength)+0x256>
 8000952:	9b01      	ldr	r3, [sp, #4]
 8000954:	220a      	movs	r2, #10
 8000956:	641a      	str	r2, [r3, #64]	; 0x40
 8000958:	9b01      	ldr	r3, [sp, #4]
 800095a:	220c      	movs	r2, #12
 800095c:	645a      	str	r2, [r3, #68]	; 0x44
 800095e:	9b01      	ldr	r3, [sp, #4]
 8000960:	2200      	movs	r2, #0
 8000962:	649a      	str	r2, [r3, #72]	; 0x48
 8000964:	bf00      	nop
 8000966:	9b01      	ldr	r3, [sp, #4]
 8000968:	6c5b      	ldr	r3, [r3, #68]	; 0x44
 800096a:	f043 0320 	orr.w	r3, r3, #32
 800096e:	9801      	ldr	r0, [sp, #4]
 8000970:	4619      	mov	r1, r3
 8000972:	f000 fe89 	bl	8001688 <TextLCD_Base::_writeCommand(int)>
 8000976:	9b01      	ldr	r3, [sp, #4]
 8000978:	6c9b      	ldr	r3, [r3, #72]	; 0x48
 800097a:	f043 0308 	orr.w	r3, r3, #8
 800097e:	9801      	ldr	r0, [sp, #4]
 8000980:	4619      	mov	r1, r3
 8000982:	f000 fe81 	bl	8001688 <TextLCD_Base::_writeCommand(int)>
 8000986:	9801      	ldr	r0, [sp, #4]
 8000988:	2110      	movs	r1, #16
 800098a:	f000 fe7d 	bl	8001688 <TextLCD_Base::_writeCommand(int)>
 800098e:	9801      	ldr	r0, [sp, #4]
 8000990:	2180      	movs	r1, #128	; 0x80
 8000992:	f000 fe79 	bl	8001688 <TextLCD_Base::_writeCommand(int)>
 8000996:	9b01      	ldr	r3, [sp, #4]
 8000998:	6c1b      	ldr	r3, [r3, #64]	; 0x40
 800099a:	f043 0320 	orr.w	r3, r3, #32
 800099e:	9801      	ldr	r0, [sp, #4]
 80009a0:	4619      	mov	r1, r3
 80009a2:	f000 fe71 	bl	8001688 <TextLCD_Base::_writeCommand(int)>
 80009a6:	f000 bd38 	b.w	800141a <TextLCD_Base::_initCtrl(TextLCD_Base::_LCDDatalength)+0xd0a>
 80009aa:	9b01      	ldr	r3, [sp, #4]
 80009ac:	699b      	ldr	r3, [r3, #24]
 80009ae:	4a2d      	ldr	r2, [pc, #180]	; (8000a64 <TextLCD_Base::_initCtrl(TextLCD_Base::_LCDDatalength)+0x354>)
 80009b0:	4293      	cmp	r3, r2
 80009b2:	d024      	beq.n	80009fe <TextLCD_Base::_initCtrl(TextLCD_Base::_LCDDatalength)+0x2ee>
 80009b4:	4a2b      	ldr	r2, [pc, #172]	; (8000a64 <TextLCD_Base::_initCtrl(TextLCD_Base::_LCDDatalength)+0x354>)
 80009b6:	4293      	cmp	r3, r2
 80009b8:	dc10      	bgt.n	80009dc <TextLCD_Base::_initCtrl(TextLCD_Base::_LCDDatalength)+0x2cc>
 80009ba:	f5b3 7f88 	cmp.w	r3, #272	; 0x110
 80009be:	d01e      	beq.n	80009fe <TextLCD_Base::_initCtrl(TextLCD_Base::_LCDDatalength)+0x2ee>
 80009c0:	f5b3 7f88 	cmp.w	r3, #272	; 0x110
 80009c4:	dc03      	bgt.n	80009ce <TextLCD_Base::_initCtrl(TextLCD_Base::_LCDDatalength)+0x2be>
 80009c6:	f5b3 7f84 	cmp.w	r3, #264	; 0x108
 80009ca:	d018      	beq.n	80009fe <TextLCD_Base::_initCtrl(TextLCD_Base::_LCDDatalength)+0x2ee>
 80009cc:	e050      	b.n	8000a70 <TextLCD_Base::_initCtrl(TextLCD_Base::_LCDDatalength)+0x360>
 80009ce:	f5b3 7f8c 	cmp.w	r3, #280	; 0x118
 80009d2:	d014      	beq.n	80009fe <TextLCD_Base::_initCtrl(TextLCD_Base::_LCDDatalength)+0x2ee>
 80009d4:	4a1f      	ldr	r2, [pc, #124]	; (8000a54 <TextLCD_Base::_initCtrl(TextLCD_Base::_LCDDatalength)+0x344>)
 80009d6:	4293      	cmp	r3, r2
 80009d8:	d015      	beq.n	8000a06 <TextLCD_Base::_initCtrl(TextLCD_Base::_LCDDatalength)+0x2f6>
 80009da:	e049      	b.n	8000a70 <TextLCD_Base::_initCtrl(TextLCD_Base::_LCDDatalength)+0x360>
 80009dc:	4a1e      	ldr	r2, [pc, #120]	; (8000a58 <TextLCD_Base::_initCtrl(TextLCD_Base::_LCDDatalength)+0x348>)
 80009de:	4293      	cmp	r3, r2
 80009e0:	d011      	beq.n	8000a06 <TextLCD_Base::_initCtrl(TextLCD_Base::_LCDDatalength)+0x2f6>
 80009e2:	4a1d      	ldr	r2, [pc, #116]	; (8000a58 <TextLCD_Base::_initCtrl(TextLCD_Base::_LCDDatalength)+0x348>)
 80009e4:	4293      	cmp	r3, r2
 80009e6:	dc03      	bgt.n	80009f0 <TextLCD_Base::_initCtrl(TextLCD_Base::_LCDDatalength)+0x2e0>
 80009e8:	4a1f      	ldr	r2, [pc, #124]	; (8000a68 <TextLCD_Base::_initCtrl(TextLCD_Base::_LCDDatalength)+0x358>)
 80009ea:	4293      	cmp	r3, r2
 80009ec:	d00b      	beq.n	8000a06 <TextLCD_Base::_initCtrl(TextLCD_Base::_LCDDatalength)+0x2f6>
 80009ee:	e03f      	b.n	8000a70 <TextLCD_Base::_initCtrl(TextLCD_Base::_LCDDatalength)+0x360>
 80009f0:	4a1e      	ldr	r2, [pc, #120]	; (8000a6c <TextLCD_Base::_initCtrl(TextLCD_Base::_LCDDatalength)+0x35c>)
 80009f2:	4293      	cmp	r3, r2
 80009f4:	d007      	beq.n	8000a06 <TextLCD_Base::_initCtrl(TextLCD_Base::_LCDDatalength)+0x2f6>
 80009f6:	4a19      	ldr	r2, [pc, #100]	; (8000a5c <TextLCD_Base::_initCtrl(TextLCD_Base::_LCDDatalength)+0x34c>)
 80009f8:	4293      	cmp	r3, r2
 80009fa:	d004      	beq.n	8000a06 <TextLCD_Base::_initCtrl(TextLCD_Base::_LCDDatalength)+0x2f6>
 80009fc:	e038      	b.n	8000a70 <TextLCD_Base::_initCtrl(TextLCD_Base::_LCDDatalength)+0x360>
 80009fe:	9b01      	ldr	r3, [sp, #4]
 8000a00:	2200      	movs	r2, #0
 8000a02:	641a      	str	r2, [r3, #64]	; 0x40
 8000a04:	e038      	b.n	8000a78 <TextLCD_Base::_initCtrl(TextLCD_Base::_LCDDatalength)+0x368>
 8000a06:	4816      	ldr	r0, [pc, #88]	; (8000a60 <TextLCD_Base::_initCtrl(TextLCD_Base::_LCDDatalength)+0x350>)
 8000a08:	f001 fab8 	bl	8001f7c <error>
 8000a0c:	e034      	b.n	8000a78 <TextLCD_Base::_initCtrl(TextLCD_Base::_LCDDatalength)+0x368>
 8000a0e:	bf00      	nop
 8000a10:	81010009 	.word	0x81010009
 8000a14:	21080015 	.word	0x21080015
 8000a18:	11020011 	.word	0x11020011
 8000a1c:	21080006 	.word	0x21080006
 8000a20:	09080001 	.word	0x09080001
 8000a24:	81000007 	.word	0x81000007
 8000a28:	8100000a 	.word	0x8100000a
 8000a2c:	43000014 	.word	0x43000014
 8000a30:	a10b000e 	.word	0xa10b000e
 8000a34:	8103000b 	.word	0x8103000b
 8000a38:	a10a0010 	.word	0xa10a0010
 8000a3c:	81030008 	.word	0x81030008
 8000a40:	c1030003 	.word	0xc1030003
 8000a44:	c1030002 	.word	0xc1030002
 8000a48:	c1020005 	.word	0xc1020005
 8000a4c:	c1030004 	.word	0xc1030004
 8000a50:	00030414 	.word	0x00030414
 8000a54:	0001040c 	.word	0x0001040c
 8000a58:	00030418 	.word	0x00030418
 8000a5c:	00070310 	.word	0x00070310
 8000a60:	0800710c 	.word	0x0800710c
 8000a64:	00030208 	.word	0x00030208
 8000a68:	0003030c 	.word	0x0003030c
 8000a6c:	0004030c 	.word	0x0004030c
 8000a70:	9b01      	ldr	r3, [sp, #4]
 8000a72:	2208      	movs	r2, #8
 8000a74:	641a      	str	r2, [r3, #64]	; 0x40
 8000a76:	bf00      	nop
 8000a78:	9b01      	ldr	r3, [sp, #4]
 8000a7a:	6c1b      	ldr	r3, [r3, #64]	; 0x40
 8000a7c:	f043 0321 	orr.w	r3, r3, #33	; 0x21
 8000a80:	9801      	ldr	r0, [sp, #4]
 8000a82:	4619      	mov	r1, r3
 8000a84:	f000 fe00 	bl	8001688 <TextLCD_Base::_writeCommand(int)>
 8000a88:	9801      	ldr	r0, [sp, #4]
 8000a8a:	211c      	movs	r1, #28
 8000a8c:	f000 fdfc 	bl	8001688 <TextLCD_Base::_writeCommand(int)>
 8000a90:	9b01      	ldr	r3, [sp, #4]
 8000a92:	2218      	movs	r2, #24
 8000a94:	651a      	str	r2, [r3, #80]	; 0x50
 8000a96:	9b01      	ldr	r3, [sp, #4]
 8000a98:	6d1b      	ldr	r3, [r3, #80]	; 0x50
 8000a9a:	f003 030f 	and.w	r3, r3, #15
 8000a9e:	f043 0370 	orr.w	r3, r3, #112	; 0x70
 8000aa2:	9801      	ldr	r0, [sp, #4]
 8000aa4:	4619      	mov	r1, r3
 8000aa6:	f000 fdef 	bl	8001688 <TextLCD_Base::_writeCommand(int)>
 8000aaa:	9b01      	ldr	r3, [sp, #4]
 8000aac:	6adb      	ldr	r3, [r3, #44]	; 0x2c
 8000aae:	4a9b      	ldr	r2, [pc, #620]	; (8000d1c <TextLCD_Base::_initCtrl(TextLCD_Base::_LCDDatalength)+0x60c>)
 8000ab0:	4293      	cmp	r3, r2
 8000ab2:	d103      	bne.n	8000abc <TextLCD_Base::_initCtrl(TextLCD_Base::_LCDDatalength)+0x3ac>
 8000ab4:	9b01      	ldr	r3, [sp, #4]
 8000ab6:	220c      	movs	r2, #12
 8000ab8:	64da      	str	r2, [r3, #76]	; 0x4c
 8000aba:	e002      	b.n	8000ac2 <TextLCD_Base::_initCtrl(TextLCD_Base::_LCDDatalength)+0x3b2>
 8000abc:	9b01      	ldr	r3, [sp, #4]
 8000abe:	2208      	movs	r2, #8
 8000ac0:	64da      	str	r2, [r3, #76]	; 0x4c
 8000ac2:	9b01      	ldr	r3, [sp, #4]
 8000ac4:	6cdb      	ldr	r3, [r3, #76]	; 0x4c
 8000ac6:	f043 0250 	orr.w	r2, r3, #80	; 0x50
 8000aca:	9b01      	ldr	r3, [sp, #4]
 8000acc:	6d1b      	ldr	r3, [r3, #80]	; 0x50
 8000ace:	111b      	asrs	r3, r3, #4
 8000ad0:	f003 0303 	and.w	r3, r3, #3
 8000ad4:	4313      	orrs	r3, r2
 8000ad6:	9801      	ldr	r0, [sp, #4]
 8000ad8:	4619      	mov	r1, r3
 8000ada:	f000 fdd5 	bl	8001688 <TextLCD_Base::_writeCommand(int)>
 8000ade:	200a      	movs	r0, #10
 8000ae0:	f001 fbf8 	bl	80022d4 <wait_ms>
 8000ae4:	9801      	ldr	r0, [sp, #4]
 8000ae6:	216c      	movs	r1, #108	; 0x6c
 8000ae8:	f000 fdce 	bl	8001688 <TextLCD_Base::_writeCommand(int)>
 8000aec:	200a      	movs	r0, #10
 8000aee:	f001 fbf1 	bl	80022d4 <wait_ms>
 8000af2:	9b01      	ldr	r3, [sp, #4]
 8000af4:	6c1b      	ldr	r3, [r3, #64]	; 0x40
 8000af6:	f043 0320 	orr.w	r3, r3, #32
 8000afa:	9801      	ldr	r0, [sp, #4]
 8000afc:	4619      	mov	r1, r3
 8000afe:	f000 fdc3 	bl	8001688 <TextLCD_Base::_writeCommand(int)>
 8000b02:	f000 bc8a 	b.w	800141a <TextLCD_Base::_initCtrl(TextLCD_Base::_LCDDatalength)+0xd0a>
 8000b06:	9b01      	ldr	r3, [sp, #4]
 8000b08:	699b      	ldr	r3, [r3, #24]
 8000b0a:	4a85      	ldr	r2, [pc, #532]	; (8000d20 <TextLCD_Base::_initCtrl(TextLCD_Base::_LCDDatalength)+0x610>)
 8000b0c:	4293      	cmp	r3, r2
 8000b0e:	d021      	beq.n	8000b54 <TextLCD_Base::_initCtrl(TextLCD_Base::_LCDDatalength)+0x444>
 8000b10:	4a83      	ldr	r2, [pc, #524]	; (8000d20 <TextLCD_Base::_initCtrl(TextLCD_Base::_LCDDatalength)+0x610>)
 8000b12:	4293      	cmp	r3, r2
 8000b14:	dc09      	bgt.n	8000b2a <TextLCD_Base::_initCtrl(TextLCD_Base::_LCDDatalength)+0x41a>
 8000b16:	f5b3 7f88 	cmp.w	r3, #272	; 0x110
 8000b1a:	d00f      	beq.n	8000b3c <TextLCD_Base::_initCtrl(TextLCD_Base::_LCDDatalength)+0x42c>
 8000b1c:	f5b3 7f8c 	cmp.w	r3, #280	; 0x118
 8000b20:	d00c      	beq.n	8000b3c <TextLCD_Base::_initCtrl(TextLCD_Base::_LCDDatalength)+0x42c>
 8000b22:	f5b3 7f84 	cmp.w	r3, #264	; 0x108
 8000b26:	d009      	beq.n	8000b3c <TextLCD_Base::_initCtrl(TextLCD_Base::_LCDDatalength)+0x42c>
 8000b28:	e018      	b.n	8000b5c <TextLCD_Base::_initCtrl(TextLCD_Base::_LCDDatalength)+0x44c>
 8000b2a:	4a7e      	ldr	r2, [pc, #504]	; (8000d24 <TextLCD_Base::_initCtrl(TextLCD_Base::_LCDDatalength)+0x614>)
 8000b2c:	4293      	cmp	r3, r2
 8000b2e:	d011      	beq.n	8000b54 <TextLCD_Base::_initCtrl(TextLCD_Base::_LCDDatalength)+0x444>
 8000b30:	4a7d      	ldr	r2, [pc, #500]	; (8000d28 <TextLCD_Base::_initCtrl(TextLCD_Base::_LCDDatalength)+0x618>)
 8000b32:	4293      	cmp	r3, r2
 8000b34:	d008      	beq.n	8000b48 <TextLCD_Base::_initCtrl(TextLCD_Base::_LCDDatalength)+0x438>
 8000b36:	4a7d      	ldr	r2, [pc, #500]	; (8000d2c <TextLCD_Base::_initCtrl(TextLCD_Base::_LCDDatalength)+0x61c>)
 8000b38:	4293      	cmp	r3, r2
 8000b3a:	d10f      	bne.n	8000b5c <TextLCD_Base::_initCtrl(TextLCD_Base::_LCDDatalength)+0x44c>
 8000b3c:	9b01      	ldr	r3, [sp, #4]
 8000b3e:	2200      	movs	r2, #0
 8000b40:	641a      	str	r2, [r3, #64]	; 0x40
 8000b42:	2304      	movs	r3, #4
 8000b44:	9303      	str	r3, [sp, #12]
 8000b46:	e00f      	b.n	8000b68 <TextLCD_Base::_initCtrl(TextLCD_Base::_LCDDatalength)+0x458>
 8000b48:	9b01      	ldr	r3, [sp, #4]
 8000b4a:	2208      	movs	r2, #8
 8000b4c:	641a      	str	r2, [r3, #64]	; 0x40
 8000b4e:	2305      	movs	r3, #5
 8000b50:	9303      	str	r3, [sp, #12]
 8000b52:	e009      	b.n	8000b68 <TextLCD_Base::_initCtrl(TextLCD_Base::_LCDDatalength)+0x458>
 8000b54:	4876      	ldr	r0, [pc, #472]	; (8000d30 <TextLCD_Base::_initCtrl(TextLCD_Base::_LCDDatalength)+0x620>)
 8000b56:	f001 fa11 	bl	8001f7c <error>
 8000b5a:	e005      	b.n	8000b68 <TextLCD_Base::_initCtrl(TextLCD_Base::_LCDDatalength)+0x458>
 8000b5c:	9b01      	ldr	r3, [sp, #4]
 8000b5e:	2208      	movs	r2, #8
 8000b60:	641a      	str	r2, [r3, #64]	; 0x40
 8000b62:	2304      	movs	r3, #4
 8000b64:	9303      	str	r3, [sp, #12]
 8000b66:	bf00      	nop
 8000b68:	9b01      	ldr	r3, [sp, #4]
 8000b6a:	6c1b      	ldr	r3, [r3, #64]	; 0x40
 8000b6c:	f043 0321 	orr.w	r3, r3, #33	; 0x21
 8000b70:	9801      	ldr	r0, [sp, #4]
 8000b72:	4619      	mov	r1, r3
 8000b74:	f000 fd88 	bl	8001688 <TextLCD_Base::_writeCommand(int)>
 8000b78:	9b03      	ldr	r3, [sp, #12]
 8000b7a:	f043 0310 	orr.w	r3, r3, #16
 8000b7e:	9801      	ldr	r0, [sp, #4]
 8000b80:	4619      	mov	r1, r3
 8000b82:	f000 fd81 	bl	8001688 <TextLCD_Base::_writeCommand(int)>
 8000b86:	9b01      	ldr	r3, [sp, #4]
 8000b88:	2228      	movs	r2, #40	; 0x28
 8000b8a:	651a      	str	r2, [r3, #80]	; 0x50
 8000b8c:	9b01      	ldr	r3, [sp, #4]
 8000b8e:	6d1b      	ldr	r3, [r3, #80]	; 0x50
 8000b90:	f003 030f 	and.w	r3, r3, #15
 8000b94:	f043 0370 	orr.w	r3, r3, #112	; 0x70
 8000b98:	9801      	ldr	r0, [sp, #4]
 8000b9a:	4619      	mov	r1, r3
 8000b9c:	f000 fd74 	bl	8001688 <TextLCD_Base::_writeCommand(int)>
 8000ba0:	9b01      	ldr	r3, [sp, #4]
 8000ba2:	6adb      	ldr	r3, [r3, #44]	; 0x2c
 8000ba4:	4a63      	ldr	r2, [pc, #396]	; (8000d34 <TextLCD_Base::_initCtrl(TextLCD_Base::_LCDDatalength)+0x624>)
 8000ba6:	4293      	cmp	r3, r2
 8000ba8:	d103      	bne.n	8000bb2 <TextLCD_Base::_initCtrl(TextLCD_Base::_LCDDatalength)+0x4a2>
 8000baa:	9b01      	ldr	r3, [sp, #4]
 8000bac:	220c      	movs	r2, #12
 8000bae:	64da      	str	r2, [r3, #76]	; 0x4c
 8000bb0:	e002      	b.n	8000bb8 <TextLCD_Base::_initCtrl(TextLCD_Base::_LCDDatalength)+0x4a8>
 8000bb2:	9b01      	ldr	r3, [sp, #4]
 8000bb4:	2208      	movs	r2, #8
 8000bb6:	64da      	str	r2, [r3, #76]	; 0x4c
 8000bb8:	9b01      	ldr	r3, [sp, #4]
 8000bba:	6cdb      	ldr	r3, [r3, #76]	; 0x4c
 8000bbc:	f043 0250 	orr.w	r2, r3, #80	; 0x50
 8000bc0:	9b01      	ldr	r3, [sp, #4]
 8000bc2:	6d1b      	ldr	r3, [r3, #80]	; 0x50
 8000bc4:	111b      	asrs	r3, r3, #4
 8000bc6:	f003 0303 	and.w	r3, r3, #3
 8000bca:	4313      	orrs	r3, r2
 8000bcc:	9801      	ldr	r0, [sp, #4]
 8000bce:	4619      	mov	r1, r3
 8000bd0:	f000 fd5a 	bl	8001688 <TextLCD_Base::_writeCommand(int)>
 8000bd4:	200a      	movs	r0, #10
 8000bd6:	f001 fb7d 	bl	80022d4 <wait_ms>
 8000bda:	9801      	ldr	r0, [sp, #4]
 8000bdc:	216c      	movs	r1, #108	; 0x6c
 8000bde:	f000 fd53 	bl	8001688 <TextLCD_Base::_writeCommand(int)>
 8000be2:	200a      	movs	r0, #10
 8000be4:	f001 fb76 	bl	80022d4 <wait_ms>
 8000be8:	9b01      	ldr	r3, [sp, #4]
 8000bea:	6c1b      	ldr	r3, [r3, #64]	; 0x40
 8000bec:	f043 0320 	orr.w	r3, r3, #32
 8000bf0:	9801      	ldr	r0, [sp, #4]
 8000bf2:	4619      	mov	r1, r3
 8000bf4:	f000 fd48 	bl	8001688 <TextLCD_Base::_writeCommand(int)>
 8000bf8:	f000 bc0f 	b.w	800141a <TextLCD_Base::_initCtrl(TextLCD_Base::_LCDDatalength)+0xd0a>
 8000bfc:	9b01      	ldr	r3, [sp, #4]
 8000bfe:	699b      	ldr	r3, [r3, #24]
 8000c00:	4a47      	ldr	r2, [pc, #284]	; (8000d20 <TextLCD_Base::_initCtrl(TextLCD_Base::_LCDDatalength)+0x610>)
 8000c02:	4293      	cmp	r3, r2
 8000c04:	d01a      	beq.n	8000c3c <TextLCD_Base::_initCtrl(TextLCD_Base::_LCDDatalength)+0x52c>
 8000c06:	4a46      	ldr	r2, [pc, #280]	; (8000d20 <TextLCD_Base::_initCtrl(TextLCD_Base::_LCDDatalength)+0x610>)
 8000c08:	4293      	cmp	r3, r2
 8000c0a:	dc09      	bgt.n	8000c20 <TextLCD_Base::_initCtrl(TextLCD_Base::_LCDDatalength)+0x510>
 8000c0c:	f5b3 7f88 	cmp.w	r3, #272	; 0x110
 8000c10:	d00f      	beq.n	8000c32 <TextLCD_Base::_initCtrl(TextLCD_Base::_LCDDatalength)+0x522>
 8000c12:	f5b3 7f8c 	cmp.w	r3, #280	; 0x118
 8000c16:	d00c      	beq.n	8000c32 <TextLCD_Base::_initCtrl(TextLCD_Base::_LCDDatalength)+0x522>
 8000c18:	f5b3 7f84 	cmp.w	r3, #264	; 0x108
 8000c1c:	d009      	beq.n	8000c32 <TextLCD_Base::_initCtrl(TextLCD_Base::_LCDDatalength)+0x522>
 8000c1e:	e011      	b.n	8000c44 <TextLCD_Base::_initCtrl(TextLCD_Base::_LCDDatalength)+0x534>
 8000c20:	4a40      	ldr	r2, [pc, #256]	; (8000d24 <TextLCD_Base::_initCtrl(TextLCD_Base::_LCDDatalength)+0x614>)
 8000c22:	4293      	cmp	r3, r2
 8000c24:	d00a      	beq.n	8000c3c <TextLCD_Base::_initCtrl(TextLCD_Base::_LCDDatalength)+0x52c>
 8000c26:	4a40      	ldr	r2, [pc, #256]	; (8000d28 <TextLCD_Base::_initCtrl(TextLCD_Base::_LCDDatalength)+0x618>)
 8000c28:	4293      	cmp	r3, r2
 8000c2a:	d007      	beq.n	8000c3c <TextLCD_Base::_initCtrl(TextLCD_Base::_LCDDatalength)+0x52c>
 8000c2c:	4a3f      	ldr	r2, [pc, #252]	; (8000d2c <TextLCD_Base::_initCtrl(TextLCD_Base::_LCDDatalength)+0x61c>)
 8000c2e:	4293      	cmp	r3, r2
 8000c30:	d108      	bne.n	8000c44 <TextLCD_Base::_initCtrl(TextLCD_Base::_LCDDatalength)+0x534>
 8000c32:	f89d 2003 	ldrb.w	r2, [sp, #3]
 8000c36:	9b01      	ldr	r3, [sp, #4]
 8000c38:	641a      	str	r2, [r3, #64]	; 0x40
 8000c3a:	e00c      	b.n	8000c56 <TextLCD_Base::_initCtrl(TextLCD_Base::_LCDDatalength)+0x546>
 8000c3c:	483c      	ldr	r0, [pc, #240]	; (8000d30 <TextLCD_Base::_initCtrl(TextLCD_Base::_LCDDatalength)+0x620>)
 8000c3e:	f001 f99d 	bl	8001f7c <error>
 8000c42:	e008      	b.n	8000c56 <TextLCD_Base::_initCtrl(TextLCD_Base::_LCDDatalength)+0x546>
 8000c44:	f89d 3003 	ldrb.w	r3, [sp, #3]
 8000c48:	f043 0308 	orr.w	r3, r3, #8
 8000c4c:	b2db      	uxtb	r3, r3
 8000c4e:	461a      	mov	r2, r3
 8000c50:	9b01      	ldr	r3, [sp, #4]
 8000c52:	641a      	str	r2, [r3, #64]	; 0x40
 8000c54:	bf00      	nop
 8000c56:	9b01      	ldr	r3, [sp, #4]
 8000c58:	6c1b      	ldr	r3, [r3, #64]	; 0x40
 8000c5a:	f043 0324 	orr.w	r3, r3, #36	; 0x24
 8000c5e:	9801      	ldr	r0, [sp, #4]
 8000c60:	4619      	mov	r1, r3
 8000c62:	f000 fd11 	bl	8001688 <TextLCD_Base::_writeCommand(int)>
 8000c66:	9801      	ldr	r0, [sp, #4]
 8000c68:	2104      	movs	r1, #4
 8000c6a:	f000 fd0d 	bl	8001688 <TextLCD_Base::_writeCommand(int)>
 8000c6e:	9801      	ldr	r0, [sp, #4]
 8000c70:	2140      	movs	r1, #64	; 0x40
 8000c72:	f000 fd09 	bl	8001688 <TextLCD_Base::_writeCommand(int)>
 8000c76:	9b01      	ldr	r3, [sp, #4]
 8000c78:	6c1b      	ldr	r3, [r3, #64]	; 0x40
 8000c7a:	f043 0320 	orr.w	r3, r3, #32
 8000c7e:	9801      	ldr	r0, [sp, #4]
 8000c80:	4619      	mov	r1, r3
 8000c82:	f000 fd01 	bl	8001688 <TextLCD_Base::_writeCommand(int)>
 8000c86:	e3c8      	b.n	800141a <TextLCD_Base::_initCtrl(TextLCD_Base::_LCDDatalength)+0xd0a>
 8000c88:	9b01      	ldr	r3, [sp, #4]
 8000c8a:	699b      	ldr	r3, [r3, #24]
 8000c8c:	4a2a      	ldr	r2, [pc, #168]	; (8000d38 <TextLCD_Base::_initCtrl(TextLCD_Base::_LCDDatalength)+0x628>)
 8000c8e:	4293      	cmp	r3, r2
 8000c90:	d02d      	beq.n	8000cee <TextLCD_Base::_initCtrl(TextLCD_Base::_LCDDatalength)+0x5de>
 8000c92:	4a29      	ldr	r2, [pc, #164]	; (8000d38 <TextLCD_Base::_initCtrl(TextLCD_Base::_LCDDatalength)+0x628>)
 8000c94:	4293      	cmp	r3, r2
 8000c96:	dc10      	bgt.n	8000cba <TextLCD_Base::_initCtrl(TextLCD_Base::_LCDDatalength)+0x5aa>
 8000c98:	f5b3 7f88 	cmp.w	r3, #272	; 0x110
 8000c9c:	d01e      	beq.n	8000cdc <TextLCD_Base::_initCtrl(TextLCD_Base::_LCDDatalength)+0x5cc>
 8000c9e:	f5b3 7f88 	cmp.w	r3, #272	; 0x110
 8000ca2:	dc03      	bgt.n	8000cac <TextLCD_Base::_initCtrl(TextLCD_Base::_LCDDatalength)+0x59c>
 8000ca4:	f5b3 7f84 	cmp.w	r3, #264	; 0x108
 8000ca8:	d018      	beq.n	8000cdc <TextLCD_Base::_initCtrl(TextLCD_Base::_LCDDatalength)+0x5cc>
 8000caa:	e04b      	b.n	8000d44 <TextLCD_Base::_initCtrl(TextLCD_Base::_LCDDatalength)+0x634>
 8000cac:	f5b3 7f8c 	cmp.w	r3, #280	; 0x118
 8000cb0:	d014      	beq.n	8000cdc <TextLCD_Base::_initCtrl(TextLCD_Base::_LCDDatalength)+0x5cc>
 8000cb2:	4a1e      	ldr	r2, [pc, #120]	; (8000d2c <TextLCD_Base::_initCtrl(TextLCD_Base::_LCDDatalength)+0x61c>)
 8000cb4:	4293      	cmp	r3, r2
 8000cb6:	d011      	beq.n	8000cdc <TextLCD_Base::_initCtrl(TextLCD_Base::_LCDDatalength)+0x5cc>
 8000cb8:	e044      	b.n	8000d44 <TextLCD_Base::_initCtrl(TextLCD_Base::_LCDDatalength)+0x634>
 8000cba:	4a20      	ldr	r2, [pc, #128]	; (8000d3c <TextLCD_Base::_initCtrl(TextLCD_Base::_LCDDatalength)+0x62c>)
 8000cbc:	4293      	cmp	r3, r2
 8000cbe:	d01f      	beq.n	8000d00 <TextLCD_Base::_initCtrl(TextLCD_Base::_LCDDatalength)+0x5f0>
 8000cc0:	4a1e      	ldr	r2, [pc, #120]	; (8000d3c <TextLCD_Base::_initCtrl(TextLCD_Base::_LCDDatalength)+0x62c>)
 8000cc2:	4293      	cmp	r3, r2
 8000cc4:	dc03      	bgt.n	8000cce <TextLCD_Base::_initCtrl(TextLCD_Base::_LCDDatalength)+0x5be>
 8000cc6:	4a1e      	ldr	r2, [pc, #120]	; (8000d40 <TextLCD_Base::_initCtrl(TextLCD_Base::_LCDDatalength)+0x630>)
 8000cc8:	4293      	cmp	r3, r2
 8000cca:	d010      	beq.n	8000cee <TextLCD_Base::_initCtrl(TextLCD_Base::_LCDDatalength)+0x5de>
 8000ccc:	e03a      	b.n	8000d44 <TextLCD_Base::_initCtrl(TextLCD_Base::_LCDDatalength)+0x634>
 8000cce:	4a15      	ldr	r2, [pc, #84]	; (8000d24 <TextLCD_Base::_initCtrl(TextLCD_Base::_LCDDatalength)+0x614>)
 8000cd0:	4293      	cmp	r3, r2
 8000cd2:	d01e      	beq.n	8000d12 <TextLCD_Base::_initCtrl(TextLCD_Base::_LCDDatalength)+0x602>
 8000cd4:	4a14      	ldr	r2, [pc, #80]	; (8000d28 <TextLCD_Base::_initCtrl(TextLCD_Base::_LCDDatalength)+0x618>)
 8000cd6:	4293      	cmp	r3, r2
 8000cd8:	d01b      	beq.n	8000d12 <TextLCD_Base::_initCtrl(TextLCD_Base::_LCDDatalength)+0x602>
 8000cda:	e033      	b.n	8000d44 <TextLCD_Base::_initCtrl(TextLCD_Base::_LCDDatalength)+0x634>
 8000cdc:	9b01      	ldr	r3, [sp, #4]
 8000cde:	2200      	movs	r2, #0
 8000ce0:	641a      	str	r2, [r3, #64]	; 0x40
 8000ce2:	9b01      	ldr	r3, [sp, #4]
 8000ce4:	2202      	movs	r2, #2
 8000ce6:	645a      	str	r2, [r3, #68]	; 0x44
 8000ce8:	2300      	movs	r3, #0
 8000cea:	9302      	str	r3, [sp, #8]
 8000cec:	e033      	b.n	8000d56 <TextLCD_Base::_initCtrl(TextLCD_Base::_LCDDatalength)+0x646>
 8000cee:	9b01      	ldr	r3, [sp, #4]
 8000cf0:	2200      	movs	r2, #0
 8000cf2:	641a      	str	r2, [r3, #64]	; 0x40
 8000cf4:	9b01      	ldr	r3, [sp, #4]
 8000cf6:	2202      	movs	r2, #2
 8000cf8:	645a      	str	r2, [r3, #68]	; 0x44
 8000cfa:	2300      	movs	r3, #0
 8000cfc:	9302      	str	r3, [sp, #8]
 8000cfe:	e02a      	b.n	8000d56 <TextLCD_Base::_initCtrl(TextLCD_Base::_LCDDatalength)+0x646>
 8000d00:	9b01      	ldr	r3, [sp, #4]
 8000d02:	2208      	movs	r2, #8
 8000d04:	641a      	str	r2, [r3, #64]	; 0x40
 8000d06:	9b01      	ldr	r3, [sp, #4]
 8000d08:	220a      	movs	r2, #10
 8000d0a:	645a      	str	r2, [r3, #68]	; 0x44
 8000d0c:	2301      	movs	r3, #1
 8000d0e:	9302      	str	r3, [sp, #8]
 8000d10:	e021      	b.n	8000d56 <TextLCD_Base::_initCtrl(TextLCD_Base::_LCDDatalength)+0x646>
 8000d12:	4807      	ldr	r0, [pc, #28]	; (8000d30 <TextLCD_Base::_initCtrl(TextLCD_Base::_LCDDatalength)+0x620>)
 8000d14:	f001 f932 	bl	8001f7c <error>
 8000d18:	e01d      	b.n	8000d56 <TextLCD_Base::_initCtrl(TextLCD_Base::_LCDDatalength)+0x646>
 8000d1a:	bf00      	nop
 8000d1c:	c1030004 	.word	0xc1030004
 8000d20:	0001040c 	.word	0x0001040c
 8000d24:	00030418 	.word	0x00030418
 8000d28:	00070310 	.word	0x00070310
 8000d2c:	00030208 	.word	0x00030208
 8000d30:	0800710c 	.word	0x0800710c
 8000d34:	c1030002 	.word	0xc1030002
 8000d38:	0003030c 	.word	0x0003030c
 8000d3c:	00030414 	.word	0x00030414
 8000d40:	00030310 	.word	0x00030310
 8000d44:	9b01      	ldr	r3, [sp, #4]
 8000d46:	2208      	movs	r2, #8
 8000d48:	641a      	str	r2, [r3, #64]	; 0x40
 8000d4a:	9b01      	ldr	r3, [sp, #4]
 8000d4c:	220a      	movs	r2, #10
 8000d4e:	645a      	str	r2, [r3, #68]	; 0x44
 8000d50:	2300      	movs	r3, #0
 8000d52:	9302      	str	r3, [sp, #8]
 8000d54:	bf00      	nop
 8000d56:	9b01      	ldr	r3, [sp, #4]
 8000d58:	6c5b      	ldr	r3, [r3, #68]	; 0x44
 8000d5a:	f043 0320 	orr.w	r3, r3, #32
 8000d5e:	9801      	ldr	r0, [sp, #4]
 8000d60:	4619      	mov	r1, r3
 8000d62:	f000 fc91 	bl	8001688 <TextLCD_Base::_writeCommand(int)>
 8000d66:	9801      	ldr	r0, [sp, #4]
 8000d68:	2106      	movs	r1, #6
 8000d6a:	f000 fc8d 	bl	8001688 <TextLCD_Base::_writeCommand(int)>
 8000d6e:	2005      	movs	r0, #5
 8000d70:	f001 fab0 	bl	80022d4 <wait_ms>
 8000d74:	9b02      	ldr	r3, [sp, #8]
 8000d76:	f043 0308 	orr.w	r3, r3, #8
 8000d7a:	9801      	ldr	r0, [sp, #4]
 8000d7c:	4619      	mov	r1, r3
 8000d7e:	f000 fc83 	bl	8001688 <TextLCD_Base::_writeCommand(int)>
 8000d82:	9801      	ldr	r0, [sp, #4]
 8000d84:	2110      	movs	r1, #16
 8000d86:	f000 fc7f 	bl	8001688 <TextLCD_Base::_writeCommand(int)>
 8000d8a:	9b01      	ldr	r3, [sp, #4]
 8000d8c:	6c1b      	ldr	r3, [r3, #64]	; 0x40
 8000d8e:	f043 0321 	orr.w	r3, r3, #33	; 0x21
 8000d92:	9801      	ldr	r0, [sp, #4]
 8000d94:	4619      	mov	r1, r3
 8000d96:	f000 fc77 	bl	8001688 <TextLCD_Base::_writeCommand(int)>
 8000d9a:	9b01      	ldr	r3, [sp, #4]
 8000d9c:	2228      	movs	r2, #40	; 0x28
 8000d9e:	651a      	str	r2, [r3, #80]	; 0x50
 8000da0:	9b01      	ldr	r3, [sp, #4]
 8000da2:	6d1b      	ldr	r3, [r3, #80]	; 0x50
 8000da4:	f003 030f 	and.w	r3, r3, #15
 8000da8:	f043 0370 	orr.w	r3, r3, #112	; 0x70
 8000dac:	9801      	ldr	r0, [sp, #4]
 8000dae:	4619      	mov	r1, r3
 8000db0:	f000 fc6a 	bl	8001688 <TextLCD_Base::_writeCommand(int)>
 8000db4:	9b01      	ldr	r3, [sp, #4]
 8000db6:	220c      	movs	r2, #12
 8000db8:	64da      	str	r2, [r3, #76]	; 0x4c
 8000dba:	9b01      	ldr	r3, [sp, #4]
 8000dbc:	6cdb      	ldr	r3, [r3, #76]	; 0x4c
 8000dbe:	f043 0250 	orr.w	r2, r3, #80	; 0x50
 8000dc2:	9b01      	ldr	r3, [sp, #4]
 8000dc4:	6d1b      	ldr	r3, [r3, #80]	; 0x50
 8000dc6:	111b      	asrs	r3, r3, #4
 8000dc8:	f003 0303 	and.w	r3, r3, #3
 8000dcc:	4313      	orrs	r3, r2
 8000dce:	9801      	ldr	r0, [sp, #4]
 8000dd0:	4619      	mov	r1, r3
 8000dd2:	f000 fc59 	bl	8001688 <TextLCD_Base::_writeCommand(int)>
 8000dd6:	200a      	movs	r0, #10
 8000dd8:	f001 fa7c 	bl	80022d4 <wait_ms>
 8000ddc:	9801      	ldr	r0, [sp, #4]
 8000dde:	216e      	movs	r1, #110	; 0x6e
 8000de0:	f000 fc52 	bl	8001688 <TextLCD_Base::_writeCommand(int)>
 8000de4:	200a      	movs	r0, #10
 8000de6:	f001 fa75 	bl	80022d4 <wait_ms>
 8000dea:	9b01      	ldr	r3, [sp, #4]
 8000dec:	6c5b      	ldr	r3, [r3, #68]	; 0x44
 8000dee:	f043 0320 	orr.w	r3, r3, #32
 8000df2:	9801      	ldr	r0, [sp, #4]
 8000df4:	4619      	mov	r1, r3
 8000df6:	f000 fc47 	bl	8001688 <TextLCD_Base::_writeCommand(int)>
 8000dfa:	9801      	ldr	r0, [sp, #4]
 8000dfc:	2110      	movs	r1, #16
 8000dfe:	f000 fc43 	bl	8001688 <TextLCD_Base::_writeCommand(int)>
 8000e02:	9b01      	ldr	r3, [sp, #4]
 8000e04:	6c1b      	ldr	r3, [r3, #64]	; 0x40
 8000e06:	f043 0320 	orr.w	r3, r3, #32
 8000e0a:	9801      	ldr	r0, [sp, #4]
 8000e0c:	4619      	mov	r1, r3
 8000e0e:	f000 fc3b 	bl	8001688 <TextLCD_Base::_writeCommand(int)>
 8000e12:	e302      	b.n	800141a <TextLCD_Base::_initCtrl(TextLCD_Base::_LCDDatalength)+0xd0a>
 8000e14:	9b01      	ldr	r3, [sp, #4]
 8000e16:	699b      	ldr	r3, [r3, #24]
 8000e18:	f5b3 7f8c 	cmp.w	r3, #280	; 0x118
 8000e1c:	d003      	beq.n	8000e26 <TextLCD_Base::_initCtrl(TextLCD_Base::_LCDDatalength)+0x716>
 8000e1e:	f5b3 7f03 	cmp.w	r3, #524	; 0x20c
 8000e22:	d004      	beq.n	8000e2e <TextLCD_Base::_initCtrl(TextLCD_Base::_LCDDatalength)+0x71e>
 8000e24:	e007      	b.n	8000e36 <TextLCD_Base::_initCtrl(TextLCD_Base::_LCDDatalength)+0x726>
 8000e26:	9b01      	ldr	r3, [sp, #4]
 8000e28:	2200      	movs	r2, #0
 8000e2a:	641a      	str	r2, [r3, #64]	; 0x40
 8000e2c:	e007      	b.n	8000e3e <TextLCD_Base::_initCtrl(TextLCD_Base::_LCDDatalength)+0x72e>
 8000e2e:	9b01      	ldr	r3, [sp, #4]
 8000e30:	2204      	movs	r2, #4
 8000e32:	641a      	str	r2, [r3, #64]	; 0x40
 8000e34:	e003      	b.n	8000e3e <TextLCD_Base::_initCtrl(TextLCD_Base::_LCDDatalength)+0x72e>
 8000e36:	48b1      	ldr	r0, [pc, #708]	; (80010fc <TextLCD_Base::_initCtrl(TextLCD_Base::_LCDDatalength)+0x9ec>)
 8000e38:	f001 f8a0 	bl	8001f7c <error>
 8000e3c:	bf00      	nop
 8000e3e:	9b01      	ldr	r3, [sp, #4]
 8000e40:	6c1b      	ldr	r3, [r3, #64]	; 0x40
 8000e42:	f043 0321 	orr.w	r3, r3, #33	; 0x21
 8000e46:	9801      	ldr	r0, [sp, #4]
 8000e48:	4619      	mov	r1, r3
 8000e4a:	f000 fc1d 	bl	8001688 <TextLCD_Base::_writeCommand(int)>
 8000e4e:	200a      	movs	r0, #10
 8000e50:	f001 fa40 	bl	80022d4 <wait_ms>
 8000e54:	9801      	ldr	r0, [sp, #4]
 8000e56:	2105      	movs	r1, #5
 8000e58:	f000 fc16 	bl	8001688 <TextLCD_Base::_writeCommand(int)>
 8000e5c:	9801      	ldr	r0, [sp, #4]
 8000e5e:	2102      	movs	r1, #2
 8000e60:	f000 fc12 	bl	8001688 <TextLCD_Base::_writeCommand(int)>
 8000e64:	9801      	ldr	r0, [sp, #4]
 8000e66:	2108      	movs	r1, #8
 8000e68:	f000 fc0e 	bl	8001688 <TextLCD_Base::_writeCommand(int)>
 8000e6c:	9b01      	ldr	r3, [sp, #4]
 8000e6e:	6c1b      	ldr	r3, [r3, #64]	; 0x40
 8000e70:	f043 0320 	orr.w	r3, r3, #32
 8000e74:	9801      	ldr	r0, [sp, #4]
 8000e76:	4619      	mov	r1, r3
 8000e78:	f000 fc06 	bl	8001688 <TextLCD_Base::_writeCommand(int)>
 8000e7c:	e2cd      	b.n	800141a <TextLCD_Base::_initCtrl(TextLCD_Base::_LCDDatalength)+0xd0a>
 8000e7e:	9b01      	ldr	r3, [sp, #4]
 8000e80:	699b      	ldr	r3, [r3, #24]
 8000e82:	f5b3 7f8c 	cmp.w	r3, #280	; 0x118
 8000e86:	d003      	beq.n	8000e90 <TextLCD_Base::_initCtrl(TextLCD_Base::_LCDDatalength)+0x780>
 8000e88:	f5b3 7f03 	cmp.w	r3, #524	; 0x20c
 8000e8c:	d004      	beq.n	8000e98 <TextLCD_Base::_initCtrl(TextLCD_Base::_LCDDatalength)+0x788>
 8000e8e:	e007      	b.n	8000ea0 <TextLCD_Base::_initCtrl(TextLCD_Base::_LCDDatalength)+0x790>
 8000e90:	9b01      	ldr	r3, [sp, #4]
 8000e92:	2200      	movs	r2, #0
 8000e94:	641a      	str	r2, [r3, #64]	; 0x40
 8000e96:	e007      	b.n	8000ea8 <TextLCD_Base::_initCtrl(TextLCD_Base::_LCDDatalength)+0x798>
 8000e98:	9b01      	ldr	r3, [sp, #4]
 8000e9a:	2204      	movs	r2, #4
 8000e9c:	641a      	str	r2, [r3, #64]	; 0x40
 8000e9e:	e003      	b.n	8000ea8 <TextLCD_Base::_initCtrl(TextLCD_Base::_LCDDatalength)+0x798>
 8000ea0:	4896      	ldr	r0, [pc, #600]	; (80010fc <TextLCD_Base::_initCtrl(TextLCD_Base::_LCDDatalength)+0x9ec>)
 8000ea2:	f001 f86b 	bl	8001f7c <error>
 8000ea6:	bf00      	nop
 8000ea8:	9b01      	ldr	r3, [sp, #4]
 8000eaa:	6c1b      	ldr	r3, [r3, #64]	; 0x40
 8000eac:	f043 0321 	orr.w	r3, r3, #33	; 0x21
 8000eb0:	9801      	ldr	r0, [sp, #4]
 8000eb2:	4619      	mov	r1, r3
 8000eb4:	f000 fbe8 	bl	8001688 <TextLCD_Base::_writeCommand(int)>
 8000eb8:	9801      	ldr	r0, [sp, #4]
 8000eba:	2104      	movs	r1, #4
 8000ebc:	f000 fbe4 	bl	8001688 <TextLCD_Base::_writeCommand(int)>
 8000ec0:	9801      	ldr	r0, [sp, #4]
 8000ec2:	2110      	movs	r1, #16
 8000ec4:	f000 fbe0 	bl	8001688 <TextLCD_Base::_writeCommand(int)>
 8000ec8:	9801      	ldr	r0, [sp, #4]
 8000eca:	2142      	movs	r1, #66	; 0x42
 8000ecc:	f000 fbdc 	bl	8001688 <TextLCD_Base::_writeCommand(int)>
 8000ed0:	9b01      	ldr	r3, [sp, #4]
 8000ed2:	2220      	movs	r2, #32
 8000ed4:	651a      	str	r2, [r3, #80]	; 0x50
 8000ed6:	9b01      	ldr	r3, [sp, #4]
 8000ed8:	6d1b      	ldr	r3, [r3, #80]	; 0x50
 8000eda:	f003 033f 	and.w	r3, r3, #63	; 0x3f
 8000ede:	f043 0380 	orr.w	r3, r3, #128	; 0x80
 8000ee2:	9801      	ldr	r0, [sp, #4]
 8000ee4:	4619      	mov	r1, r3
 8000ee6:	f000 fbcf 	bl	8001688 <TextLCD_Base::_writeCommand(int)>
 8000eea:	9b01      	ldr	r3, [sp, #4]
 8000eec:	6d1b      	ldr	r3, [r3, #80]	; 0x50
 8000eee:	b2db      	uxtb	r3, r3
 8000ef0:	f043 03c0 	orr.w	r3, r3, #192	; 0xc0
 8000ef4:	9801      	ldr	r0, [sp, #4]
 8000ef6:	4619      	mov	r1, r3
 8000ef8:	f000 fbc6 	bl	8001688 <TextLCD_Base::_writeCommand(int)>
 8000efc:	200a      	movs	r0, #10
 8000efe:	f001 f9e9 	bl	80022d4 <wait_ms>
 8000f02:	9801      	ldr	r0, [sp, #4]
 8000f04:	2102      	movs	r1, #2
 8000f06:	f000 fbbf 	bl	8001688 <TextLCD_Base::_writeCommand(int)>
 8000f0a:	9801      	ldr	r0, [sp, #4]
 8000f0c:	2108      	movs	r1, #8
 8000f0e:	f000 fbbb 	bl	8001688 <TextLCD_Base::_writeCommand(int)>
 8000f12:	9b01      	ldr	r3, [sp, #4]
 8000f14:	6c1b      	ldr	r3, [r3, #64]	; 0x40
 8000f16:	f043 0320 	orr.w	r3, r3, #32
 8000f1a:	9801      	ldr	r0, [sp, #4]
 8000f1c:	4619      	mov	r1, r3
 8000f1e:	f000 fbb3 	bl	8001688 <TextLCD_Base::_writeCommand(int)>
 8000f22:	e27a      	b.n	800141a <TextLCD_Base::_initCtrl(TextLCD_Base::_LCDDatalength)+0xd0a>
 8000f24:	9b01      	ldr	r3, [sp, #4]
 8000f26:	699b      	ldr	r3, [r3, #24]
 8000f28:	4a75      	ldr	r2, [pc, #468]	; (8001100 <TextLCD_Base::_initCtrl(TextLCD_Base::_LCDDatalength)+0x9f0>)
 8000f2a:	4293      	cmp	r3, r2
 8000f2c:	d018      	beq.n	8000f60 <TextLCD_Base::_initCtrl(TextLCD_Base::_LCDDatalength)+0x850>
 8000f2e:	4a74      	ldr	r2, [pc, #464]	; (8001100 <TextLCD_Base::_initCtrl(TextLCD_Base::_LCDDatalength)+0x9f0>)
 8000f30:	4293      	cmp	r3, r2
 8000f32:	dc06      	bgt.n	8000f42 <TextLCD_Base::_initCtrl(TextLCD_Base::_LCDDatalength)+0x832>
 8000f34:	f5b3 7f8c 	cmp.w	r3, #280	; 0x118
 8000f38:	d00a      	beq.n	8000f50 <TextLCD_Base::_initCtrl(TextLCD_Base::_LCDDatalength)+0x840>
 8000f3a:	f5b3 7f06 	cmp.w	r3, #536	; 0x218
 8000f3e:	d017      	beq.n	8000f70 <TextLCD_Base::_initCtrl(TextLCD_Base::_LCDDatalength)+0x860>
 8000f40:	e01e      	b.n	8000f80 <TextLCD_Base::_initCtrl(TextLCD_Base::_LCDDatalength)+0x870>
 8000f42:	4a70      	ldr	r2, [pc, #448]	; (8001104 <TextLCD_Base::_initCtrl(TextLCD_Base::_LCDDatalength)+0x9f4>)
 8000f44:	4293      	cmp	r3, r2
 8000f46:	d00b      	beq.n	8000f60 <TextLCD_Base::_initCtrl(TextLCD_Base::_LCDDatalength)+0x850>
 8000f48:	4a6f      	ldr	r2, [pc, #444]	; (8001108 <TextLCD_Base::_initCtrl(TextLCD_Base::_LCDDatalength)+0x9f8>)
 8000f4a:	4293      	cmp	r3, r2
 8000f4c:	d008      	beq.n	8000f60 <TextLCD_Base::_initCtrl(TextLCD_Base::_LCDDatalength)+0x850>
 8000f4e:	e017      	b.n	8000f80 <TextLCD_Base::_initCtrl(TextLCD_Base::_LCDDatalength)+0x870>
 8000f50:	9801      	ldr	r0, [sp, #4]
 8000f52:	2122      	movs	r1, #34	; 0x22
 8000f54:	f000 fb98 	bl	8001688 <TextLCD_Base::_writeCommand(int)>
 8000f58:	200a      	movs	r0, #10
 8000f5a:	f001 f9bb 	bl	80022d4 <wait_ms>
 8000f5e:	e013      	b.n	8000f88 <TextLCD_Base::_initCtrl(TextLCD_Base::_LCDDatalength)+0x878>
 8000f60:	9801      	ldr	r0, [sp, #4]
 8000f62:	212e      	movs	r1, #46	; 0x2e
 8000f64:	f000 fb90 	bl	8001688 <TextLCD_Base::_writeCommand(int)>
 8000f68:	200a      	movs	r0, #10
 8000f6a:	f001 f9b3 	bl	80022d4 <wait_ms>
 8000f6e:	e00b      	b.n	8000f88 <TextLCD_Base::_initCtrl(TextLCD_Base::_LCDDatalength)+0x878>
 8000f70:	9801      	ldr	r0, [sp, #4]
 8000f72:	212a      	movs	r1, #42	; 0x2a
 8000f74:	f000 fb88 	bl	8001688 <TextLCD_Base::_writeCommand(int)>
 8000f78:	200a      	movs	r0, #10
 8000f7a:	f001 f9ab 	bl	80022d4 <wait_ms>
 8000f7e:	e003      	b.n	8000f88 <TextLCD_Base::_initCtrl(TextLCD_Base::_LCDDatalength)+0x878>
 8000f80:	485e      	ldr	r0, [pc, #376]	; (80010fc <TextLCD_Base::_initCtrl(TextLCD_Base::_LCDDatalength)+0x9ec>)
 8000f82:	f000 fffb 	bl	8001f7c <error>
 8000f86:	bf00      	nop
 8000f88:	e247      	b.n	800141a <TextLCD_Base::_initCtrl(TextLCD_Base::_LCDDatalength)+0xd0a>
 8000f8a:	9b01      	ldr	r3, [sp, #4]
 8000f8c:	699b      	ldr	r3, [r3, #24]
 8000f8e:	4a5d      	ldr	r2, [pc, #372]	; (8001104 <TextLCD_Base::_initCtrl(TextLCD_Base::_LCDDatalength)+0x9f4>)
 8000f90:	4293      	cmp	r3, r2
 8000f92:	d005      	beq.n	8000fa0 <TextLCD_Base::_initCtrl(TextLCD_Base::_LCDDatalength)+0x890>
 8000f94:	4a5c      	ldr	r2, [pc, #368]	; (8001108 <TextLCD_Base::_initCtrl(TextLCD_Base::_LCDDatalength)+0x9f8>)
 8000f96:	4293      	cmp	r3, r2
 8000f98:	d002      	beq.n	8000fa0 <TextLCD_Base::_initCtrl(TextLCD_Base::_LCDDatalength)+0x890>
 8000f9a:	4a59      	ldr	r2, [pc, #356]	; (8001100 <TextLCD_Base::_initCtrl(TextLCD_Base::_LCDDatalength)+0x9f0>)
 8000f9c:	4293      	cmp	r3, r2
 8000f9e:	d107      	bne.n	8000fb0 <TextLCD_Base::_initCtrl(TextLCD_Base::_LCDDatalength)+0x8a0>
 8000fa0:	9801      	ldr	r0, [sp, #4]
 8000fa2:	212c      	movs	r1, #44	; 0x2c
 8000fa4:	f000 fb70 	bl	8001688 <TextLCD_Base::_writeCommand(int)>
 8000fa8:	200a      	movs	r0, #10
 8000faa:	f001 f993 	bl	80022d4 <wait_ms>
 8000fae:	e003      	b.n	8000fb8 <TextLCD_Base::_initCtrl(TextLCD_Base::_LCDDatalength)+0x8a8>
 8000fb0:	4852      	ldr	r0, [pc, #328]	; (80010fc <TextLCD_Base::_initCtrl(TextLCD_Base::_LCDDatalength)+0x9ec>)
 8000fb2:	f000 ffe3 	bl	8001f7c <error>
 8000fb6:	bf00      	nop
 8000fb8:	e22f      	b.n	800141a <TextLCD_Base::_initCtrl(TextLCD_Base::_LCDDatalength)+0xd0a>
 8000fba:	200a      	movs	r0, #10
 8000fbc:	f001 f98a 	bl	80022d4 <wait_ms>
 8000fc0:	9b01      	ldr	r3, [sp, #4]
 8000fc2:	699b      	ldr	r3, [r3, #24]
 8000fc4:	f5b3 7f8c 	cmp.w	r3, #280	; 0x118
 8000fc8:	d014      	beq.n	8000ff4 <TextLCD_Base::_initCtrl(TextLCD_Base::_LCDDatalength)+0x8e4>
 8000fca:	f5b3 7f8c 	cmp.w	r3, #280	; 0x118
 8000fce:	dc06      	bgt.n	8000fde <TextLCD_Base::_initCtrl(TextLCD_Base::_LCDDatalength)+0x8ce>
 8000fd0:	f5b3 7f84 	cmp.w	r3, #264	; 0x108
 8000fd4:	d00a      	beq.n	8000fec <TextLCD_Base::_initCtrl(TextLCD_Base::_LCDDatalength)+0x8dc>
 8000fd6:	f5b3 7f88 	cmp.w	r3, #272	; 0x110
 8000fda:	d007      	beq.n	8000fec <TextLCD_Base::_initCtrl(TextLCD_Base::_LCDDatalength)+0x8dc>
 8000fdc:	e012      	b.n	8001004 <TextLCD_Base::_initCtrl(TextLCD_Base::_LCDDatalength)+0x8f4>
 8000fde:	f5b3 7f02 	cmp.w	r3, #520	; 0x208
 8000fe2:	d00b      	beq.n	8000ffc <TextLCD_Base::_initCtrl(TextLCD_Base::_LCDDatalength)+0x8ec>
 8000fe4:	f5b3 7f04 	cmp.w	r3, #528	; 0x210
 8000fe8:	d008      	beq.n	8000ffc <TextLCD_Base::_initCtrl(TextLCD_Base::_LCDDatalength)+0x8ec>
 8000fea:	e00b      	b.n	8001004 <TextLCD_Base::_initCtrl(TextLCD_Base::_LCDDatalength)+0x8f4>
 8000fec:	9b01      	ldr	r3, [sp, #4]
 8000fee:	2202      	movs	r2, #2
 8000ff0:	641a      	str	r2, [r3, #64]	; 0x40
 8000ff2:	e00b      	b.n	800100c <TextLCD_Base::_initCtrl(TextLCD_Base::_LCDDatalength)+0x8fc>
 8000ff4:	9b01      	ldr	r3, [sp, #4]
 8000ff6:	2200      	movs	r2, #0
 8000ff8:	641a      	str	r2, [r3, #64]	; 0x40
 8000ffa:	e007      	b.n	800100c <TextLCD_Base::_initCtrl(TextLCD_Base::_LCDDatalength)+0x8fc>
 8000ffc:	9b01      	ldr	r3, [sp, #4]
 8000ffe:	2204      	movs	r2, #4
 8001000:	641a      	str	r2, [r3, #64]	; 0x40
 8001002:	e003      	b.n	800100c <TextLCD_Base::_initCtrl(TextLCD_Base::_LCDDatalength)+0x8fc>
 8001004:	483d      	ldr	r0, [pc, #244]	; (80010fc <TextLCD_Base::_initCtrl(TextLCD_Base::_LCDDatalength)+0x9ec>)
 8001006:	f000 ffb9 	bl	8001f7c <error>
 800100a:	bf00      	nop
 800100c:	9b01      	ldr	r3, [sp, #4]
 800100e:	6c1b      	ldr	r3, [r3, #64]	; 0x40
 8001010:	f043 0321 	orr.w	r3, r3, #33	; 0x21
 8001014:	9801      	ldr	r0, [sp, #4]
 8001016:	4619      	mov	r1, r3
 8001018:	f000 fb36 	bl	8001688 <TextLCD_Base::_writeCommand(int)>
 800101c:	9801      	ldr	r0, [sp, #4]
 800101e:	2104      	movs	r1, #4
 8001020:	f000 fb32 	bl	8001688 <TextLCD_Base::_writeCommand(int)>
 8001024:	9801      	ldr	r0, [sp, #4]
 8001026:	2110      	movs	r1, #16
 8001028:	f000 fb2e 	bl	8001688 <TextLCD_Base::_writeCommand(int)>
 800102c:	9801      	ldr	r0, [sp, #4]
 800102e:	2142      	movs	r1, #66	; 0x42
 8001030:	f000 fb2a 	bl	8001688 <TextLCD_Base::_writeCommand(int)>
 8001034:	9b01      	ldr	r3, [sp, #4]
 8001036:	2220      	movs	r2, #32
 8001038:	651a      	str	r2, [r3, #80]	; 0x50
 800103a:	9b01      	ldr	r3, [sp, #4]
 800103c:	6d1b      	ldr	r3, [r3, #80]	; 0x50
 800103e:	f003 033f 	and.w	r3, r3, #63	; 0x3f
 8001042:	f043 0380 	orr.w	r3, r3, #128	; 0x80
 8001046:	9801      	ldr	r0, [sp, #4]
 8001048:	4619      	mov	r1, r3
 800104a:	f000 fb1d 	bl	8001688 <TextLCD_Base::_writeCommand(int)>
 800104e:	9b01      	ldr	r3, [sp, #4]
 8001050:	6d1b      	ldr	r3, [r3, #80]	; 0x50
 8001052:	b2db      	uxtb	r3, r3
 8001054:	f043 03c0 	orr.w	r3, r3, #192	; 0xc0
 8001058:	9801      	ldr	r0, [sp, #4]
 800105a:	4619      	mov	r1, r3
 800105c:	f000 fb14 	bl	8001688 <TextLCD_Base::_writeCommand(int)>
 8001060:	200a      	movs	r0, #10
 8001062:	f001 f937 	bl	80022d4 <wait_ms>
 8001066:	9801      	ldr	r0, [sp, #4]
 8001068:	2102      	movs	r1, #2
 800106a:	f000 fb0d 	bl	8001688 <TextLCD_Base::_writeCommand(int)>
 800106e:	9801      	ldr	r0, [sp, #4]
 8001070:	2108      	movs	r1, #8
 8001072:	f000 fb09 	bl	8001688 <TextLCD_Base::_writeCommand(int)>
 8001076:	9b01      	ldr	r3, [sp, #4]
 8001078:	6c1b      	ldr	r3, [r3, #64]	; 0x40
 800107a:	f043 0320 	orr.w	r3, r3, #32
 800107e:	9801      	ldr	r0, [sp, #4]
 8001080:	4619      	mov	r1, r3
 8001082:	f000 fb01 	bl	8001688 <TextLCD_Base::_writeCommand(int)>
 8001086:	e1c8      	b.n	800141a <TextLCD_Base::_initCtrl(TextLCD_Base::_LCDDatalength)+0xd0a>
 8001088:	9801      	ldr	r0, [sp, #4]
 800108a:	2117      	movs	r1, #23
 800108c:	f000 fafc 	bl	8001688 <TextLCD_Base::_writeCommand(int)>
 8001090:	200a      	movs	r0, #10
 8001092:	f001 f91f 	bl	80022d4 <wait_ms>
 8001096:	9b01      	ldr	r3, [sp, #4]
 8001098:	699b      	ldr	r3, [r3, #24]
 800109a:	4a1c      	ldr	r2, [pc, #112]	; (800110c <TextLCD_Base::_initCtrl(TextLCD_Base::_LCDDatalength)+0x9fc>)
 800109c:	4293      	cmp	r3, r2
 800109e:	d024      	beq.n	80010ea <TextLCD_Base::_initCtrl(TextLCD_Base::_LCDDatalength)+0x9da>
 80010a0:	4a1a      	ldr	r2, [pc, #104]	; (800110c <TextLCD_Base::_initCtrl(TextLCD_Base::_LCDDatalength)+0x9fc>)
 80010a2:	4293      	cmp	r3, r2
 80010a4:	dc10      	bgt.n	80010c8 <TextLCD_Base::_initCtrl(TextLCD_Base::_LCDDatalength)+0x9b8>
 80010a6:	f5b3 7f88 	cmp.w	r3, #272	; 0x110
 80010aa:	d01e      	beq.n	80010ea <TextLCD_Base::_initCtrl(TextLCD_Base::_LCDDatalength)+0x9da>
 80010ac:	f5b3 7f88 	cmp.w	r3, #272	; 0x110
 80010b0:	dc03      	bgt.n	80010ba <TextLCD_Base::_initCtrl(TextLCD_Base::_LCDDatalength)+0x9aa>
 80010b2:	f5b3 7f84 	cmp.w	r3, #264	; 0x108
 80010b6:	d018      	beq.n	80010ea <TextLCD_Base::_initCtrl(TextLCD_Base::_LCDDatalength)+0x9da>
 80010b8:	e02e      	b.n	8001118 <TextLCD_Base::_initCtrl(TextLCD_Base::_LCDDatalength)+0xa08>
 80010ba:	f5b3 7f8c 	cmp.w	r3, #280	; 0x118
 80010be:	d014      	beq.n	80010ea <TextLCD_Base::_initCtrl(TextLCD_Base::_LCDDatalength)+0x9da>
 80010c0:	4a0f      	ldr	r2, [pc, #60]	; (8001100 <TextLCD_Base::_initCtrl(TextLCD_Base::_LCDDatalength)+0x9f0>)
 80010c2:	4293      	cmp	r3, r2
 80010c4:	d016      	beq.n	80010f4 <TextLCD_Base::_initCtrl(TextLCD_Base::_LCDDatalength)+0x9e4>
 80010c6:	e027      	b.n	8001118 <TextLCD_Base::_initCtrl(TextLCD_Base::_LCDDatalength)+0xa08>
 80010c8:	4a11      	ldr	r2, [pc, #68]	; (8001110 <TextLCD_Base::_initCtrl(TextLCD_Base::_LCDDatalength)+0xa00>)
 80010ca:	4293      	cmp	r3, r2
 80010cc:	d012      	beq.n	80010f4 <TextLCD_Base::_initCtrl(TextLCD_Base::_LCDDatalength)+0x9e4>
 80010ce:	4a10      	ldr	r2, [pc, #64]	; (8001110 <TextLCD_Base::_initCtrl(TextLCD_Base::_LCDDatalength)+0xa00>)
 80010d0:	4293      	cmp	r3, r2
 80010d2:	dc03      	bgt.n	80010dc <TextLCD_Base::_initCtrl(TextLCD_Base::_LCDDatalength)+0x9cc>
 80010d4:	4a0b      	ldr	r2, [pc, #44]	; (8001104 <TextLCD_Base::_initCtrl(TextLCD_Base::_LCDDatalength)+0x9f4>)
 80010d6:	4293      	cmp	r3, r2
 80010d8:	d00c      	beq.n	80010f4 <TextLCD_Base::_initCtrl(TextLCD_Base::_LCDDatalength)+0x9e4>
 80010da:	e01d      	b.n	8001118 <TextLCD_Base::_initCtrl(TextLCD_Base::_LCDDatalength)+0xa08>
 80010dc:	4a0a      	ldr	r2, [pc, #40]	; (8001108 <TextLCD_Base::_initCtrl(TextLCD_Base::_LCDDatalength)+0x9f8>)
 80010de:	4293      	cmp	r3, r2
 80010e0:	d008      	beq.n	80010f4 <TextLCD_Base::_initCtrl(TextLCD_Base::_LCDDatalength)+0x9e4>
 80010e2:	4a0c      	ldr	r2, [pc, #48]	; (8001114 <TextLCD_Base::_initCtrl(TextLCD_Base::_LCDDatalength)+0xa04>)
 80010e4:	4293      	cmp	r3, r2
 80010e6:	d005      	beq.n	80010f4 <TextLCD_Base::_initCtrl(TextLCD_Base::_LCDDatalength)+0x9e4>
 80010e8:	e016      	b.n	8001118 <TextLCD_Base::_initCtrl(TextLCD_Base::_LCDDatalength)+0xa08>
 80010ea:	9801      	ldr	r0, [sp, #4]
 80010ec:	2120      	movs	r1, #32
 80010ee:	f000 facb 	bl	8001688 <TextLCD_Base::_writeCommand(int)>
 80010f2:	e016      	b.n	8001122 <TextLCD_Base::_initCtrl(TextLCD_Base::_LCDDatalength)+0xa12>
 80010f4:	4801      	ldr	r0, [pc, #4]	; (80010fc <TextLCD_Base::_initCtrl(TextLCD_Base::_LCDDatalength)+0x9ec>)
 80010f6:	f000 ff41 	bl	8001f7c <error>
 80010fa:	e012      	b.n	8001122 <TextLCD_Base::_initCtrl(TextLCD_Base::_LCDDatalength)+0xa12>
 80010fc:	0800710c 	.word	0x0800710c
 8001100:	0001040c 	.word	0x0001040c
 8001104:	0003030c 	.word	0x0003030c
 8001108:	0004030c 	.word	0x0004030c
 800110c:	00030208 	.word	0x00030208
 8001110:	00030418 	.word	0x00030418
 8001114:	00070310 	.word	0x00070310
 8001118:	9801      	ldr	r0, [sp, #4]
 800111a:	2128      	movs	r1, #40	; 0x28
 800111c:	f000 fab4 	bl	8001688 <TextLCD_Base::_writeCommand(int)>
 8001120:	bf00      	nop
 8001122:	e17a      	b.n	800141a <TextLCD_Base::_initCtrl(TextLCD_Base::_LCDDatalength)+0xd0a>
 8001124:	9b01      	ldr	r3, [sp, #4]
 8001126:	699b      	ldr	r3, [r3, #24]
 8001128:	f5b3 7f05 	cmp.w	r3, #532	; 0x214
 800112c:	d030      	beq.n	8001190 <TextLCD_Base::_initCtrl(TextLCD_Base::_LCDDatalength)+0xa80>
 800112e:	f5b3 7f05 	cmp.w	r3, #532	; 0x214
 8001132:	dc10      	bgt.n	8001156 <TextLCD_Base::_initCtrl(TextLCD_Base::_LCDDatalength)+0xa46>
 8001134:	f5b3 7f88 	cmp.w	r3, #272	; 0x110
 8001138:	d021      	beq.n	800117e <TextLCD_Base::_initCtrl(TextLCD_Base::_LCDDatalength)+0xa6e>
 800113a:	f5b3 7f88 	cmp.w	r3, #272	; 0x110
 800113e:	dc03      	bgt.n	8001148 <TextLCD_Base::_initCtrl(TextLCD_Base::_LCDDatalength)+0xa38>
 8001140:	f5b3 7f84 	cmp.w	r3, #264	; 0x108
 8001144:	d01b      	beq.n	800117e <TextLCD_Base::_initCtrl(TextLCD_Base::_LCDDatalength)+0xa6e>
 8001146:	e03e      	b.n	80011c6 <TextLCD_Base::_initCtrl(TextLCD_Base::_LCDDatalength)+0xab6>
 8001148:	f5b3 7f02 	cmp.w	r3, #520	; 0x208
 800114c:	d020      	beq.n	8001190 <TextLCD_Base::_initCtrl(TextLCD_Base::_LCDDatalength)+0xa80>
 800114e:	f5b3 7f04 	cmp.w	r3, #528	; 0x210
 8001152:	d01d      	beq.n	8001190 <TextLCD_Base::_initCtrl(TextLCD_Base::_LCDDatalength)+0xa80>
 8001154:	e037      	b.n	80011c6 <TextLCD_Base::_initCtrl(TextLCD_Base::_LCDDatalength)+0xab6>
 8001156:	4aa1      	ldr	r2, [pc, #644]	; (80013dc <TextLCD_Base::_initCtrl(TextLCD_Base::_LCDDatalength)+0xccc>)
 8001158:	4293      	cmp	r3, r2
 800115a:	d022      	beq.n	80011a2 <TextLCD_Base::_initCtrl(TextLCD_Base::_LCDDatalength)+0xa92>
 800115c:	4a9f      	ldr	r2, [pc, #636]	; (80013dc <TextLCD_Base::_initCtrl(TextLCD_Base::_LCDDatalength)+0xccc>)
 800115e:	4293      	cmp	r3, r2
 8001160:	dc06      	bgt.n	8001170 <TextLCD_Base::_initCtrl(TextLCD_Base::_LCDDatalength)+0xa60>
 8001162:	4a9f      	ldr	r2, [pc, #636]	; (80013e0 <TextLCD_Base::_initCtrl(TextLCD_Base::_LCDDatalength)+0xcd0>)
 8001164:	4293      	cmp	r3, r2
 8001166:	d013      	beq.n	8001190 <TextLCD_Base::_initCtrl(TextLCD_Base::_LCDDatalength)+0xa80>
 8001168:	4a9e      	ldr	r2, [pc, #632]	; (80013e4 <TextLCD_Base::_initCtrl(TextLCD_Base::_LCDDatalength)+0xcd4>)
 800116a:	4293      	cmp	r3, r2
 800116c:	d007      	beq.n	800117e <TextLCD_Base::_initCtrl(TextLCD_Base::_LCDDatalength)+0xa6e>
 800116e:	e02a      	b.n	80011c6 <TextLCD_Base::_initCtrl(TextLCD_Base::_LCDDatalength)+0xab6>
 8001170:	4a9d      	ldr	r2, [pc, #628]	; (80013e8 <TextLCD_Base::_initCtrl(TextLCD_Base::_LCDDatalength)+0xcd8>)
 8001172:	4293      	cmp	r3, r2
 8001174:	d015      	beq.n	80011a2 <TextLCD_Base::_initCtrl(TextLCD_Base::_LCDDatalength)+0xa92>
 8001176:	4a9d      	ldr	r2, [pc, #628]	; (80013ec <TextLCD_Base::_initCtrl(TextLCD_Base::_LCDDatalength)+0xcdc>)
 8001178:	4293      	cmp	r3, r2
 800117a:	d01b      	beq.n	80011b4 <TextLCD_Base::_initCtrl(TextLCD_Base::_LCDDatalength)+0xaa4>
 800117c:	e023      	b.n	80011c6 <TextLCD_Base::_initCtrl(TextLCD_Base::_LCDDatalength)+0xab6>
 800117e:	9b01      	ldr	r3, [sp, #4]
 8001180:	2200      	movs	r2, #0
 8001182:	641a      	str	r2, [r3, #64]	; 0x40
 8001184:	9b01      	ldr	r3, [sp, #4]
 8001186:	2202      	movs	r2, #2
 8001188:	645a      	str	r2, [r3, #68]	; 0x44
 800118a:	2300      	movs	r3, #0
 800118c:	9302      	str	r3, [sp, #8]
 800118e:	e01e      	b.n	80011ce <TextLCD_Base::_initCtrl(TextLCD_Base::_LCDDatalength)+0xabe>
 8001190:	9b01      	ldr	r3, [sp, #4]
 8001192:	2208      	movs	r2, #8
 8001194:	641a      	str	r2, [r3, #64]	; 0x40
 8001196:	9b01      	ldr	r3, [sp, #4]
 8001198:	220a      	movs	r2, #10
 800119a:	645a      	str	r2, [r3, #68]	; 0x44
 800119c:	2300      	movs	r3, #0
 800119e:	9302      	str	r3, [sp, #8]
 80011a0:	e015      	b.n	80011ce <TextLCD_Base::_initCtrl(TextLCD_Base::_LCDDatalength)+0xabe>
 80011a2:	9b01      	ldr	r3, [sp, #4]
 80011a4:	2200      	movs	r2, #0
 80011a6:	641a      	str	r2, [r3, #64]	; 0x40
 80011a8:	9b01      	ldr	r3, [sp, #4]
 80011aa:	2202      	movs	r2, #2
 80011ac:	645a      	str	r2, [r3, #68]	; 0x44
 80011ae:	2300      	movs	r3, #0
 80011b0:	9302      	str	r3, [sp, #8]
 80011b2:	e00c      	b.n	80011ce <TextLCD_Base::_initCtrl(TextLCD_Base::_LCDDatalength)+0xabe>
 80011b4:	9b01      	ldr	r3, [sp, #4]
 80011b6:	2208      	movs	r2, #8
 80011b8:	641a      	str	r2, [r3, #64]	; 0x40
 80011ba:	9b01      	ldr	r3, [sp, #4]
 80011bc:	220a      	movs	r2, #10
 80011be:	645a      	str	r2, [r3, #68]	; 0x44
 80011c0:	2301      	movs	r3, #1
 80011c2:	9302      	str	r3, [sp, #8]
 80011c4:	e003      	b.n	80011ce <TextLCD_Base::_initCtrl(TextLCD_Base::_LCDDatalength)+0xabe>
 80011c6:	488a      	ldr	r0, [pc, #552]	; (80013f0 <TextLCD_Base::_initCtrl(TextLCD_Base::_LCDDatalength)+0xce0>)
 80011c8:	f000 fed8 	bl	8001f7c <error>
 80011cc:	bf00      	nop
 80011ce:	9801      	ldr	r0, [sp, #4]
 80011d0:	2100      	movs	r1, #0
 80011d2:	f000 fa59 	bl	8001688 <TextLCD_Base::_writeCommand(int)>
 80011d6:	9b01      	ldr	r3, [sp, #4]
 80011d8:	6c5b      	ldr	r3, [r3, #68]	; 0x44
 80011da:	f043 0320 	orr.w	r3, r3, #32
 80011de:	9801      	ldr	r0, [sp, #4]
 80011e0:	4619      	mov	r1, r3
 80011e2:	f000 fa51 	bl	8001688 <TextLCD_Base::_writeCommand(int)>
 80011e6:	9801      	ldr	r0, [sp, #4]
 80011e8:	2171      	movs	r1, #113	; 0x71
 80011ea:	f000 fa4d 	bl	8001688 <TextLCD_Base::_writeCommand(int)>
 80011ee:	9801      	ldr	r0, [sp, #4]
 80011f0:	2100      	movs	r1, #0
 80011f2:	f000 fa65 	bl	80016c0 <TextLCD_Base::_writeData(int)>
 80011f6:	9801      	ldr	r0, [sp, #4]
 80011f8:	2179      	movs	r1, #121	; 0x79
 80011fa:	f000 fa45 	bl	8001688 <TextLCD_Base::_writeCommand(int)>
 80011fe:	9801      	ldr	r0, [sp, #4]
 8001200:	21d5      	movs	r1, #213	; 0xd5
 8001202:	f000 fa41 	bl	8001688 <TextLCD_Base::_writeCommand(int)>
 8001206:	9801      	ldr	r0, [sp, #4]
 8001208:	2170      	movs	r1, #112	; 0x70
 800120a:	f000 fa3d 	bl	8001688 <TextLCD_Base::_writeCommand(int)>
 800120e:	9801      	ldr	r0, [sp, #4]
 8001210:	2178      	movs	r1, #120	; 0x78
 8001212:	f000 fa39 	bl	8001688 <TextLCD_Base::_writeCommand(int)>
 8001216:	9801      	ldr	r0, [sp, #4]
 8001218:	2105      	movs	r1, #5
 800121a:	f000 fa35 	bl	8001688 <TextLCD_Base::_writeCommand(int)>
 800121e:	9b02      	ldr	r3, [sp, #8]
 8001220:	f043 0308 	orr.w	r3, r3, #8
 8001224:	9801      	ldr	r0, [sp, #4]
 8001226:	4619      	mov	r1, r3
 8001228:	f000 fa2e 	bl	8001688 <TextLCD_Base::_writeCommand(int)>
 800122c:	9801      	ldr	r0, [sp, #4]
 800122e:	2172      	movs	r1, #114	; 0x72
 8001230:	f000 fa2a 	bl	8001688 <TextLCD_Base::_writeCommand(int)>
 8001234:	9801      	ldr	r0, [sp, #4]
 8001236:	2101      	movs	r1, #1
 8001238:	f000 fa42 	bl	80016c0 <TextLCD_Base::_writeData(int)>
 800123c:	9801      	ldr	r0, [sp, #4]
 800123e:	2179      	movs	r1, #121	; 0x79
 8001240:	f000 fa22 	bl	8001688 <TextLCD_Base::_writeCommand(int)>
 8001244:	9801      	ldr	r0, [sp, #4]
 8001246:	21da      	movs	r1, #218	; 0xda
 8001248:	f000 fa1e 	bl	8001688 <TextLCD_Base::_writeCommand(int)>
 800124c:	9801      	ldr	r0, [sp, #4]
 800124e:	2110      	movs	r1, #16
 8001250:	f000 fa1a 	bl	8001688 <TextLCD_Base::_writeCommand(int)>
 8001254:	9801      	ldr	r0, [sp, #4]
 8001256:	21dc      	movs	r1, #220	; 0xdc
 8001258:	f000 fa16 	bl	8001688 <TextLCD_Base::_writeCommand(int)>
 800125c:	9801      	ldr	r0, [sp, #4]
 800125e:	2180      	movs	r1, #128	; 0x80
 8001260:	f000 fa12 	bl	8001688 <TextLCD_Base::_writeCommand(int)>
 8001264:	9b01      	ldr	r3, [sp, #4]
 8001266:	223f      	movs	r2, #63	; 0x3f
 8001268:	651a      	str	r2, [r3, #80]	; 0x50
 800126a:	9801      	ldr	r0, [sp, #4]
 800126c:	2181      	movs	r1, #129	; 0x81
 800126e:	f000 fa0b 	bl	8001688 <TextLCD_Base::_writeCommand(int)>
 8001272:	9b01      	ldr	r3, [sp, #4]
 8001274:	6d1b      	ldr	r3, [r3, #80]	; 0x50
 8001276:	009b      	lsls	r3, r3, #2
 8001278:	f043 0303 	orr.w	r3, r3, #3
 800127c:	9801      	ldr	r0, [sp, #4]
 800127e:	4619      	mov	r1, r3
 8001280:	f000 fa02 	bl	8001688 <TextLCD_Base::_writeCommand(int)>
 8001284:	9801      	ldr	r0, [sp, #4]
 8001286:	21d9      	movs	r1, #217	; 0xd9
 8001288:	f000 f9fe 	bl	8001688 <TextLCD_Base::_writeCommand(int)>
 800128c:	9801      	ldr	r0, [sp, #4]
 800128e:	21f1      	movs	r1, #241	; 0xf1
 8001290:	f000 f9fa 	bl	8001688 <TextLCD_Base::_writeCommand(int)>
 8001294:	9801      	ldr	r0, [sp, #4]
 8001296:	21db      	movs	r1, #219	; 0xdb
 8001298:	f000 f9f6 	bl	8001688 <TextLCD_Base::_writeCommand(int)>
 800129c:	9801      	ldr	r0, [sp, #4]
 800129e:	2130      	movs	r1, #48	; 0x30
 80012a0:	f000 f9f2 	bl	8001688 <TextLCD_Base::_writeCommand(int)>
 80012a4:	200a      	movs	r0, #10
 80012a6:	f001 f815 	bl	80022d4 <wait_ms>
 80012aa:	9801      	ldr	r0, [sp, #4]
 80012ac:	2178      	movs	r1, #120	; 0x78
 80012ae:	f000 f9eb 	bl	8001688 <TextLCD_Base::_writeCommand(int)>
 80012b2:	9b01      	ldr	r3, [sp, #4]
 80012b4:	6c1b      	ldr	r3, [r3, #64]	; 0x40
 80012b6:	f043 0321 	orr.w	r3, r3, #33	; 0x21
 80012ba:	9801      	ldr	r0, [sp, #4]
 80012bc:	4619      	mov	r1, r3
 80012be:	f000 f9e3 	bl	8001688 <TextLCD_Base::_writeCommand(int)>
 80012c2:	9b01      	ldr	r3, [sp, #4]
 80012c4:	6c5b      	ldr	r3, [r3, #68]	; 0x44
 80012c6:	f043 0320 	orr.w	r3, r3, #32
 80012ca:	9801      	ldr	r0, [sp, #4]
 80012cc:	4619      	mov	r1, r3
 80012ce:	f000 f9db 	bl	8001688 <TextLCD_Base::_writeCommand(int)>
 80012d2:	9801      	ldr	r0, [sp, #4]
 80012d4:	2110      	movs	r1, #16
 80012d6:	f000 f9d7 	bl	8001688 <TextLCD_Base::_writeCommand(int)>
 80012da:	9b01      	ldr	r3, [sp, #4]
 80012dc:	6c1b      	ldr	r3, [r3, #64]	; 0x40
 80012de:	f043 0320 	orr.w	r3, r3, #32
 80012e2:	9801      	ldr	r0, [sp, #4]
 80012e4:	4619      	mov	r1, r3
 80012e6:	f000 f9cf 	bl	8001688 <TextLCD_Base::_writeCommand(int)>
 80012ea:	e096      	b.n	800141a <TextLCD_Base::_initCtrl(TextLCD_Base::_LCDDatalength)+0xd0a>
 80012ec:	9b01      	ldr	r3, [sp, #4]
 80012ee:	699b      	ldr	r3, [r3, #24]
 80012f0:	f5b3 7f02 	cmp.w	r3, #520	; 0x208
 80012f4:	d027      	beq.n	8001346 <TextLCD_Base::_initCtrl(TextLCD_Base::_LCDDatalength)+0xc36>
 80012f6:	f5b3 7f02 	cmp.w	r3, #520	; 0x208
 80012fa:	dc10      	bgt.n	800131e <TextLCD_Base::_initCtrl(TextLCD_Base::_LCDDatalength)+0xc0e>
 80012fc:	f5b3 7f88 	cmp.w	r3, #272	; 0x110
 8001300:	d01d      	beq.n	800133e <TextLCD_Base::_initCtrl(TextLCD_Base::_LCDDatalength)+0xc2e>
 8001302:	f5b3 7f88 	cmp.w	r3, #272	; 0x110
 8001306:	dc03      	bgt.n	8001310 <TextLCD_Base::_initCtrl(TextLCD_Base::_LCDDatalength)+0xc00>
 8001308:	f5b3 7f84 	cmp.w	r3, #264	; 0x108
 800130c:	d017      	beq.n	800133e <TextLCD_Base::_initCtrl(TextLCD_Base::_LCDDatalength)+0xc2e>
 800130e:	e01e      	b.n	800134e <TextLCD_Base::_initCtrl(TextLCD_Base::_LCDDatalength)+0xc3e>
 8001310:	f5b3 7f8a 	cmp.w	r3, #276	; 0x114
 8001314:	d013      	beq.n	800133e <TextLCD_Base::_initCtrl(TextLCD_Base::_LCDDatalength)+0xc2e>
 8001316:	f5b3 7f8c 	cmp.w	r3, #280	; 0x118
 800131a:	d010      	beq.n	800133e <TextLCD_Base::_initCtrl(TextLCD_Base::_LCDDatalength)+0xc2e>
 800131c:	e017      	b.n	800134e <TextLCD_Base::_initCtrl(TextLCD_Base::_LCDDatalength)+0xc3e>
 800131e:	f5b3 7f05 	cmp.w	r3, #532	; 0x214
 8001322:	d010      	beq.n	8001346 <TextLCD_Base::_initCtrl(TextLCD_Base::_LCDDatalength)+0xc36>
 8001324:	f5b3 7f05 	cmp.w	r3, #532	; 0x214
 8001328:	dc03      	bgt.n	8001332 <TextLCD_Base::_initCtrl(TextLCD_Base::_LCDDatalength)+0xc22>
 800132a:	f5b3 7f04 	cmp.w	r3, #528	; 0x210
 800132e:	d00a      	beq.n	8001346 <TextLCD_Base::_initCtrl(TextLCD_Base::_LCDDatalength)+0xc36>
 8001330:	e00d      	b.n	800134e <TextLCD_Base::_initCtrl(TextLCD_Base::_LCDDatalength)+0xc3e>
 8001332:	f5b3 7f06 	cmp.w	r3, #536	; 0x218
 8001336:	d006      	beq.n	8001346 <TextLCD_Base::_initCtrl(TextLCD_Base::_LCDDatalength)+0xc36>
 8001338:	4a2a      	ldr	r2, [pc, #168]	; (80013e4 <TextLCD_Base::_initCtrl(TextLCD_Base::_LCDDatalength)+0xcd4>)
 800133a:	4293      	cmp	r3, r2
 800133c:	d107      	bne.n	800134e <TextLCD_Base::_initCtrl(TextLCD_Base::_LCDDatalength)+0xc3e>
 800133e:	9b01      	ldr	r3, [sp, #4]
 8001340:	2200      	movs	r2, #0
 8001342:	641a      	str	r2, [r3, #64]	; 0x40
 8001344:	e007      	b.n	8001356 <TextLCD_Base::_initCtrl(TextLCD_Base::_LCDDatalength)+0xc46>
 8001346:	9b01      	ldr	r3, [sp, #4]
 8001348:	2208      	movs	r2, #8
 800134a:	641a      	str	r2, [r3, #64]	; 0x40
 800134c:	e003      	b.n	8001356 <TextLCD_Base::_initCtrl(TextLCD_Base::_LCDDatalength)+0xc46>
 800134e:	4828      	ldr	r0, [pc, #160]	; (80013f0 <TextLCD_Base::_initCtrl(TextLCD_Base::_LCDDatalength)+0xce0>)
 8001350:	f000 fe14 	bl	8001f7c <error>
 8001354:	bf00      	nop
 8001356:	9b01      	ldr	r3, [sp, #4]
 8001358:	223f      	movs	r2, #63	; 0x3f
 800135a:	651a      	str	r2, [r3, #80]	; 0x50
 800135c:	9b01      	ldr	r3, [sp, #4]
 800135e:	6c1b      	ldr	r3, [r3, #64]	; 0x40
 8001360:	f043 0220 	orr.w	r2, r3, #32
 8001364:	9b01      	ldr	r3, [sp, #4]
 8001366:	6d1b      	ldr	r3, [r3, #80]	; 0x50
 8001368:	43db      	mvns	r3, r3
 800136a:	111b      	asrs	r3, r3, #4
 800136c:	4313      	orrs	r3, r2
 800136e:	9801      	ldr	r0, [sp, #4]
 8001370:	4619      	mov	r1, r3
 8001372:	f000 f989 	bl	8001688 <TextLCD_Base::_writeCommand(int)>
 8001376:	e050      	b.n	800141a <TextLCD_Base::_initCtrl(TextLCD_Base::_LCDDatalength)+0xd0a>
 8001378:	9b01      	ldr	r3, [sp, #4]
 800137a:	699b      	ldr	r3, [r3, #24]
 800137c:	4a19      	ldr	r2, [pc, #100]	; (80013e4 <TextLCD_Base::_initCtrl(TextLCD_Base::_LCDDatalength)+0xcd4>)
 800137e:	4293      	cmp	r3, r2
 8001380:	d024      	beq.n	80013cc <TextLCD_Base::_initCtrl(TextLCD_Base::_LCDDatalength)+0xcbc>
 8001382:	4a18      	ldr	r2, [pc, #96]	; (80013e4 <TextLCD_Base::_initCtrl(TextLCD_Base::_LCDDatalength)+0xcd4>)
 8001384:	4293      	cmp	r3, r2
 8001386:	dc10      	bgt.n	80013aa <TextLCD_Base::_initCtrl(TextLCD_Base::_LCDDatalength)+0xc9a>
 8001388:	f5b3 7f88 	cmp.w	r3, #272	; 0x110
 800138c:	d01e      	beq.n	80013cc <TextLCD_Base::_initCtrl(TextLCD_Base::_LCDDatalength)+0xcbc>
 800138e:	f5b3 7f88 	cmp.w	r3, #272	; 0x110
 8001392:	dc03      	bgt.n	800139c <TextLCD_Base::_initCtrl(TextLCD_Base::_LCDDatalength)+0xc8c>
 8001394:	f5b3 7f84 	cmp.w	r3, #264	; 0x108
 8001398:	d018      	beq.n	80013cc <TextLCD_Base::_initCtrl(TextLCD_Base::_LCDDatalength)+0xcbc>
 800139a:	e031      	b.n	8001400 <TextLCD_Base::_initCtrl(TextLCD_Base::_LCDDatalength)+0xcf0>
 800139c:	f5b3 7f8c 	cmp.w	r3, #280	; 0x118
 80013a0:	d014      	beq.n	80013cc <TextLCD_Base::_initCtrl(TextLCD_Base::_LCDDatalength)+0xcbc>
 80013a2:	4a14      	ldr	r2, [pc, #80]	; (80013f4 <TextLCD_Base::_initCtrl(TextLCD_Base::_LCDDatalength)+0xce4>)
 80013a4:	4293      	cmp	r3, r2
 80013a6:	d015      	beq.n	80013d4 <TextLCD_Base::_initCtrl(TextLCD_Base::_LCDDatalength)+0xcc4>
 80013a8:	e02a      	b.n	8001400 <TextLCD_Base::_initCtrl(TextLCD_Base::_LCDDatalength)+0xcf0>
 80013aa:	4a0f      	ldr	r2, [pc, #60]	; (80013e8 <TextLCD_Base::_initCtrl(TextLCD_Base::_LCDDatalength)+0xcd8>)
 80013ac:	4293      	cmp	r3, r2
 80013ae:	d011      	beq.n	80013d4 <TextLCD_Base::_initCtrl(TextLCD_Base::_LCDDatalength)+0xcc4>
 80013b0:	4a0d      	ldr	r2, [pc, #52]	; (80013e8 <TextLCD_Base::_initCtrl(TextLCD_Base::_LCDDatalength)+0xcd8>)
 80013b2:	4293      	cmp	r3, r2
 80013b4:	dc03      	bgt.n	80013be <TextLCD_Base::_initCtrl(TextLCD_Base::_LCDDatalength)+0xcae>
 80013b6:	4a09      	ldr	r2, [pc, #36]	; (80013dc <TextLCD_Base::_initCtrl(TextLCD_Base::_LCDDatalength)+0xccc>)
 80013b8:	4293      	cmp	r3, r2
 80013ba:	d00b      	beq.n	80013d4 <TextLCD_Base::_initCtrl(TextLCD_Base::_LCDDatalength)+0xcc4>
 80013bc:	e020      	b.n	8001400 <TextLCD_Base::_initCtrl(TextLCD_Base::_LCDDatalength)+0xcf0>
 80013be:	4a0e      	ldr	r2, [pc, #56]	; (80013f8 <TextLCD_Base::_initCtrl(TextLCD_Base::_LCDDatalength)+0xce8>)
 80013c0:	4293      	cmp	r3, r2
 80013c2:	d007      	beq.n	80013d4 <TextLCD_Base::_initCtrl(TextLCD_Base::_LCDDatalength)+0xcc4>
 80013c4:	4a0d      	ldr	r2, [pc, #52]	; (80013fc <TextLCD_Base::_initCtrl(TextLCD_Base::_LCDDatalength)+0xcec>)
 80013c6:	4293      	cmp	r3, r2
 80013c8:	d004      	beq.n	80013d4 <TextLCD_Base::_initCtrl(TextLCD_Base::_LCDDatalength)+0xcc4>
 80013ca:	e019      	b.n	8001400 <TextLCD_Base::_initCtrl(TextLCD_Base::_LCDDatalength)+0xcf0>
 80013cc:	9b01      	ldr	r3, [sp, #4]
 80013ce:	2200      	movs	r2, #0
 80013d0:	641a      	str	r2, [r3, #64]	; 0x40
 80013d2:	e019      	b.n	8001408 <TextLCD_Base::_initCtrl(TextLCD_Base::_LCDDatalength)+0xcf8>
 80013d4:	4806      	ldr	r0, [pc, #24]	; (80013f0 <TextLCD_Base::_initCtrl(TextLCD_Base::_LCDDatalength)+0xce0>)
 80013d6:	f000 fdd1 	bl	8001f7c <error>
 80013da:	e015      	b.n	8001408 <TextLCD_Base::_initCtrl(TextLCD_Base::_LCDDatalength)+0xcf8>
 80013dc:	0003030c 	.word	0x0003030c
 80013e0:	00020110 	.word	0x00020110
 80013e4:	00030208 	.word	0x00030208
 80013e8:	00030310 	.word	0x00030310
 80013ec:	00030414 	.word	0x00030414
 80013f0:	0800710c 	.word	0x0800710c
 80013f4:	0001040c 	.word	0x0001040c
 80013f8:	00030418 	.word	0x00030418
 80013fc:	0004030c 	.word	0x0004030c
 8001400:	9b01      	ldr	r3, [sp, #4]
 8001402:	2208      	movs	r2, #8
 8001404:	641a      	str	r2, [r3, #64]	; 0x40
 8001406:	bf00      	nop
 8001408:	9b01      	ldr	r3, [sp, #4]
 800140a:	6c1b      	ldr	r3, [r3, #64]	; 0x40
 800140c:	f043 0320 	orr.w	r3, r3, #32
 8001410:	9801      	ldr	r0, [sp, #4]
 8001412:	4619      	mov	r1, r3
 8001414:	f000 f938 	bl	8001688 <TextLCD_Base::_writeCommand(int)>
 8001418:	bf00      	nop
 800141a:	9801      	ldr	r0, [sp, #4]
 800141c:	2102      	movs	r1, #2
 800141e:	f000 f933 	bl	8001688 <TextLCD_Base::_writeCommand(int)>
 8001422:	9801      	ldr	r0, [sp, #4]
 8001424:	2106      	movs	r1, #6
 8001426:	f000 f92f 	bl	8001688 <TextLCD_Base::_writeCommand(int)>
 800142a:	9801      	ldr	r0, [sp, #4]
 800142c:	2114      	movs	r1, #20
 800142e:	f000 f92b 	bl	8001688 <TextLCD_Base::_writeCommand(int)>
 8001432:	9801      	ldr	r0, [sp, #4]
 8001434:	2100      	movs	r1, #0
 8001436:	f000 fac3 	bl	80019c0 <TextLCD_Base::setCursor(TextLCD_Base::LCDCursor)>
 800143a:	9801      	ldr	r0, [sp, #4]
 800143c:	2104      	movs	r1, #4
 800143e:	f000 fad9 	bl	80019f4 <TextLCD_Base::setMode(TextLCD_Base::LCDMode)>
 8001442:	b005      	add	sp, #20
 8001444:	f85d fb04 	ldr.w	pc, [sp], #4

08001448 <TextLCD_Base::cls()>:
 8001448:	b500      	push	{lr}
 800144a:	b083      	sub	sp, #12
 800144c:	9001      	str	r0, [sp, #4]
 800144e:	9b01      	ldr	r3, [sp, #4]
 8001450:	699b      	ldr	r3, [r3, #24]
 8001452:	4a1c      	ldr	r2, [pc, #112]	; (80014c4 <TextLCD_Base::cls()+0x7c>)
 8001454:	4293      	cmp	r3, r2
 8001456:	d116      	bne.n	8001486 <TextLCD_Base::cls()+0x3e>
 8001458:	9b01      	ldr	r3, [sp, #4]
 800145a:	2201      	movs	r2, #1
 800145c:	f883 2030 	strb.w	r2, [r3, #48]	; 0x30
 8001460:	9b01      	ldr	r3, [sp, #4]
 8001462:	f893 3028 	ldrb.w	r3, [r3, #40]	; 0x28
 8001466:	9801      	ldr	r0, [sp, #4]
 8001468:	4619      	mov	r1, r3
 800146a:	2200      	movs	r2, #0
 800146c:	f000 fb20 	bl	8001ab0 <TextLCD_Base::_setCursorAndDisplayMode(TextLCD_Base::LCDMode, TextLCD_Base::LCDCursor)>
 8001470:	9801      	ldr	r0, [sp, #4]
 8001472:	2101      	movs	r1, #1
 8001474:	f000 f908 	bl	8001688 <TextLCD_Base::_writeCommand(int)>
 8001478:	200a      	movs	r0, #10
 800147a:	f000 ff2b 	bl	80022d4 <wait_ms>
 800147e:	9b01      	ldr	r3, [sp, #4]
 8001480:	2200      	movs	r2, #0
 8001482:	f883 2030 	strb.w	r2, [r3, #48]	; 0x30
 8001486:	9801      	ldr	r0, [sp, #4]
 8001488:	2101      	movs	r1, #1
 800148a:	f000 f8fd 	bl	8001688 <TextLCD_Base::_writeCommand(int)>
 800148e:	200a      	movs	r0, #10
 8001490:	f000 ff20 	bl	80022d4 <wait_ms>
 8001494:	9b01      	ldr	r3, [sp, #4]
 8001496:	699b      	ldr	r3, [r3, #24]
 8001498:	4a0a      	ldr	r2, [pc, #40]	; (80014c4 <TextLCD_Base::cls()+0x7c>)
 800149a:	4293      	cmp	r3, r2
 800149c:	d10a      	bne.n	80014b4 <TextLCD_Base::cls()+0x6c>
 800149e:	9b01      	ldr	r3, [sp, #4]
 80014a0:	f893 2028 	ldrb.w	r2, [r3, #40]	; 0x28
 80014a4:	9b01      	ldr	r3, [sp, #4]
 80014a6:	f893 303c 	ldrb.w	r3, [r3, #60]	; 0x3c
 80014aa:	9801      	ldr	r0, [sp, #4]
 80014ac:	4611      	mov	r1, r2
 80014ae:	461a      	mov	r2, r3
 80014b0:	f000 fafe 	bl	8001ab0 <TextLCD_Base::_setCursorAndDisplayMode(TextLCD_Base::LCDMode, TextLCD_Base::LCDCursor)>
 80014b4:	9801      	ldr	r0, [sp, #4]
 80014b6:	2100      	movs	r1, #0
 80014b8:	2200      	movs	r2, #0
 80014ba:	f000 fa2d 	bl	8001918 <TextLCD_Base::setAddress(int, int)>
 80014be:	b003      	add	sp, #12
 80014c0:	f85d fb04 	ldr.w	pc, [sp], #4
 80014c4:	00050428 	.word	0x00050428

080014c8 <TextLCD_Base::locate(int, int)>:
 80014c8:	b500      	push	{lr}
 80014ca:	b085      	sub	sp, #20
 80014cc:	9003      	str	r0, [sp, #12]
 80014ce:	9102      	str	r1, [sp, #8]
 80014d0:	9201      	str	r2, [sp, #4]
 80014d2:	9803      	ldr	r0, [sp, #12]
 80014d4:	9902      	ldr	r1, [sp, #8]
 80014d6:	9a01      	ldr	r2, [sp, #4]
 80014d8:	f000 fa1e 	bl	8001918 <TextLCD_Base::setAddress(int, int)>
 80014dc:	b005      	add	sp, #20
 80014de:	f85d fb04 	ldr.w	pc, [sp], #4
 80014e2:	bf00      	nop

080014e4 <TextLCD_Base::_putc(int)>:
 80014e4:	b510      	push	{r4, lr}
 80014e6:	b084      	sub	sp, #16
 80014e8:	9001      	str	r0, [sp, #4]
 80014ea:	9100      	str	r1, [sp, #0]
 80014ec:	9b00      	ldr	r3, [sp, #0]
 80014ee:	2b0a      	cmp	r3, #10
 80014f0:	d118      	bne.n	8001524 <TextLCD_Base::_putc(int)+0x40>
 80014f2:	9b01      	ldr	r3, [sp, #4]
 80014f4:	2200      	movs	r2, #0
 80014f6:	635a      	str	r2, [r3, #52]	; 0x34
 80014f8:	9b01      	ldr	r3, [sp, #4]
 80014fa:	6b9b      	ldr	r3, [r3, #56]	; 0x38
 80014fc:	1c5a      	adds	r2, r3, #1
 80014fe:	9b01      	ldr	r3, [sp, #4]
 8001500:	639a      	str	r2, [r3, #56]	; 0x38
 8001502:	9b01      	ldr	r3, [sp, #4]
 8001504:	6b9c      	ldr	r4, [r3, #56]	; 0x38
 8001506:	9801      	ldr	r0, [sp, #4]
 8001508:	f000 fa52 	bl	80019b0 <TextLCD_Base::rows()>
 800150c:	4603      	mov	r3, r0
 800150e:	429c      	cmp	r4, r3
 8001510:	bfac      	ite	ge
 8001512:	2301      	movge	r3, #1
 8001514:	2300      	movlt	r3, #0
 8001516:	b2db      	uxtb	r3, r3
 8001518:	2b00      	cmp	r3, #0
 800151a:	d031      	beq.n	8001580 <TextLCD_Base::_putc(int)+0x9c>
 800151c:	9b01      	ldr	r3, [sp, #4]
 800151e:	2200      	movs	r2, #0
 8001520:	639a      	str	r2, [r3, #56]	; 0x38
 8001522:	e02d      	b.n	8001580 <TextLCD_Base::_putc(int)+0x9c>
 8001524:	9801      	ldr	r0, [sp, #4]
 8001526:	9900      	ldr	r1, [sp, #0]
 8001528:	f000 f8ca 	bl	80016c0 <TextLCD_Base::_writeData(int)>
 800152c:	9b01      	ldr	r3, [sp, #4]
 800152e:	6b5b      	ldr	r3, [r3, #52]	; 0x34
 8001530:	1c5a      	adds	r2, r3, #1
 8001532:	9b01      	ldr	r3, [sp, #4]
 8001534:	635a      	str	r2, [r3, #52]	; 0x34
 8001536:	9b01      	ldr	r3, [sp, #4]
 8001538:	6b5c      	ldr	r4, [r3, #52]	; 0x34
 800153a:	9801      	ldr	r0, [sp, #4]
 800153c:	f000 fa30 	bl	80019a0 <TextLCD_Base::columns()>
 8001540:	4603      	mov	r3, r0
 8001542:	429c      	cmp	r4, r3
 8001544:	bfac      	ite	ge
 8001546:	2301      	movge	r3, #1
 8001548:	2300      	movlt	r3, #0
 800154a:	b2db      	uxtb	r3, r3
 800154c:	2b00      	cmp	r3, #0
 800154e:	d017      	beq.n	8001580 <TextLCD_Base::_putc(int)+0x9c>
 8001550:	9b01      	ldr	r3, [sp, #4]
 8001552:	2200      	movs	r2, #0
 8001554:	635a      	str	r2, [r3, #52]	; 0x34
 8001556:	9b01      	ldr	r3, [sp, #4]
 8001558:	6b9b      	ldr	r3, [r3, #56]	; 0x38
 800155a:	1c5a      	adds	r2, r3, #1
 800155c:	9b01      	ldr	r3, [sp, #4]
 800155e:	639a      	str	r2, [r3, #56]	; 0x38
 8001560:	9b01      	ldr	r3, [sp, #4]
 8001562:	6b9c      	ldr	r4, [r3, #56]	; 0x38
 8001564:	9801      	ldr	r0, [sp, #4]
 8001566:	f000 fa23 	bl	80019b0 <TextLCD_Base::rows()>
 800156a:	4603      	mov	r3, r0
 800156c:	429c      	cmp	r4, r3
 800156e:	bfac      	ite	ge
 8001570:	2301      	movge	r3, #1
 8001572:	2300      	movlt	r3, #0
 8001574:	b2db      	uxtb	r3, r3
 8001576:	2b00      	cmp	r3, #0
 8001578:	d002      	beq.n	8001580 <TextLCD_Base::_putc(int)+0x9c>
 800157a:	9b01      	ldr	r3, [sp, #4]
 800157c:	2200      	movs	r2, #0
 800157e:	639a      	str	r2, [r3, #56]	; 0x38
 8001580:	9b01      	ldr	r3, [sp, #4]
 8001582:	6b5a      	ldr	r2, [r3, #52]	; 0x34
 8001584:	9b01      	ldr	r3, [sp, #4]
 8001586:	6b9b      	ldr	r3, [r3, #56]	; 0x38
 8001588:	9801      	ldr	r0, [sp, #4]
 800158a:	4611      	mov	r1, r2
 800158c:	461a      	mov	r2, r3
 800158e:	f000 f8b3 	bl	80016f8 <TextLCD_Base::getAddress(int, int)>
 8001592:	9003      	str	r0, [sp, #12]
 8001594:	9b03      	ldr	r3, [sp, #12]
 8001596:	f043 0380 	orr.w	r3, r3, #128	; 0x80
 800159a:	9801      	ldr	r0, [sp, #4]
 800159c:	4619      	mov	r1, r3
 800159e:	f000 f873 	bl	8001688 <TextLCD_Base::_writeCommand(int)>
 80015a2:	9b00      	ldr	r3, [sp, #0]
 80015a4:	4618      	mov	r0, r3
 80015a6:	b004      	add	sp, #16
 80015a8:	bd10      	pop	{r4, pc}
 80015aa:	bf00      	nop

080015ac <TextLCD_Base::_getc()>:
 80015ac:	b082      	sub	sp, #8
 80015ae:	9001      	str	r0, [sp, #4]
 80015b0:	f04f 33ff 	mov.w	r3, #4294967295
 80015b4:	4618      	mov	r0, r3
 80015b6:	b002      	add	sp, #8
 80015b8:	4770      	bx	lr
 80015ba:	bf00      	nop

080015bc <TextLCD_Base::_writeNibble(int)>:
 80015bc:	b500      	push	{lr}
 80015be:	b083      	sub	sp, #12
 80015c0:	9001      	str	r0, [sp, #4]
 80015c2:	9100      	str	r1, [sp, #0]
 80015c4:	9b01      	ldr	r3, [sp, #4]
 80015c6:	681b      	ldr	r3, [r3, #0]
 80015c8:	332c      	adds	r3, #44	; 0x2c
 80015ca:	681b      	ldr	r3, [r3, #0]
 80015cc:	9801      	ldr	r0, [sp, #4]
 80015ce:	2101      	movs	r1, #1
 80015d0:	4798      	blx	r3
 80015d2:	9b01      	ldr	r3, [sp, #4]
 80015d4:	681b      	ldr	r3, [r3, #0]
 80015d6:	3338      	adds	r3, #56	; 0x38
 80015d8:	681b      	ldr	r3, [r3, #0]
 80015da:	9a00      	ldr	r2, [sp, #0]
 80015dc:	f002 020f 	and.w	r2, r2, #15
 80015e0:	9801      	ldr	r0, [sp, #4]
 80015e2:	4611      	mov	r1, r2
 80015e4:	4798      	blx	r3
 80015e6:	2001      	movs	r0, #1
 80015e8:	f000 fe82 	bl	80022f0 <wait_us>
 80015ec:	9b01      	ldr	r3, [sp, #4]
 80015ee:	681b      	ldr	r3, [r3, #0]
 80015f0:	332c      	adds	r3, #44	; 0x2c
 80015f2:	681b      	ldr	r3, [r3, #0]
 80015f4:	9801      	ldr	r0, [sp, #4]
 80015f6:	2100      	movs	r1, #0
 80015f8:	4798      	blx	r3
 80015fa:	2001      	movs	r0, #1
 80015fc:	f000 fe78 	bl	80022f0 <wait_us>
 8001600:	b003      	add	sp, #12
 8001602:	f85d fb04 	ldr.w	pc, [sp], #4
 8001606:	bf00      	nop

08001608 <TextLCD_Base::_writeByte(int)>:
 8001608:	b500      	push	{lr}
 800160a:	b083      	sub	sp, #12
 800160c:	9001      	str	r0, [sp, #4]
 800160e:	9100      	str	r1, [sp, #0]
 8001610:	9b01      	ldr	r3, [sp, #4]
 8001612:	681b      	ldr	r3, [r3, #0]
 8001614:	332c      	adds	r3, #44	; 0x2c
 8001616:	681b      	ldr	r3, [r3, #0]
 8001618:	9801      	ldr	r0, [sp, #4]
 800161a:	2101      	movs	r1, #1
 800161c:	4798      	blx	r3
 800161e:	9b01      	ldr	r3, [sp, #4]
 8001620:	681b      	ldr	r3, [r3, #0]
 8001622:	3338      	adds	r3, #56	; 0x38
 8001624:	681b      	ldr	r3, [r3, #0]
 8001626:	9a00      	ldr	r2, [sp, #0]
 8001628:	1112      	asrs	r2, r2, #4
 800162a:	9801      	ldr	r0, [sp, #4]
 800162c:	4611      	mov	r1, r2
 800162e:	4798      	blx	r3
 8001630:	2001      	movs	r0, #1
 8001632:	f000 fe5d 	bl	80022f0 <wait_us>
 8001636:	9b01      	ldr	r3, [sp, #4]
 8001638:	681b      	ldr	r3, [r3, #0]
 800163a:	332c      	adds	r3, #44	; 0x2c
 800163c:	681b      	ldr	r3, [r3, #0]
 800163e:	9801      	ldr	r0, [sp, #4]
 8001640:	2100      	movs	r1, #0
 8001642:	4798      	blx	r3
 8001644:	2001      	movs	r0, #1
 8001646:	f000 fe53 	bl	80022f0 <wait_us>
 800164a:	9b01      	ldr	r3, [sp, #4]
 800164c:	681b      	ldr	r3, [r3, #0]
 800164e:	332c      	adds	r3, #44	; 0x2c
 8001650:	681b      	ldr	r3, [r3, #0]
 8001652:	9801      	ldr	r0, [sp, #4]
 8001654:	2101      	movs	r1, #1
 8001656:	4798      	blx	r3
 8001658:	9b01      	ldr	r3, [sp, #4]
 800165a:	681b      	ldr	r3, [r3, #0]
 800165c:	3338      	adds	r3, #56	; 0x38
 800165e:	681b      	ldr	r3, [r3, #0]
 8001660:	9801      	ldr	r0, [sp, #4]
 8001662:	9900      	ldr	r1, [sp, #0]
 8001664:	4798      	blx	r3
 8001666:	2001      	movs	r0, #1
 8001668:	f000 fe42 	bl	80022f0 <wait_us>
 800166c:	9b01      	ldr	r3, [sp, #4]
 800166e:	681b      	ldr	r3, [r3, #0]
 8001670:	332c      	adds	r3, #44	; 0x2c
 8001672:	681b      	ldr	r3, [r3, #0]
 8001674:	9801      	ldr	r0, [sp, #4]
 8001676:	2100      	movs	r1, #0
 8001678:	4798      	blx	r3
 800167a:	2001      	movs	r0, #1
 800167c:	f000 fe38 	bl	80022f0 <wait_us>
 8001680:	b003      	add	sp, #12
 8001682:	f85d fb04 	ldr.w	pc, [sp], #4
 8001686:	bf00      	nop

08001688 <TextLCD_Base::_writeCommand(int)>:
 8001688:	b500      	push	{lr}
 800168a:	b083      	sub	sp, #12
 800168c:	9001      	str	r0, [sp, #4]
 800168e:	9100      	str	r1, [sp, #0]
 8001690:	9b01      	ldr	r3, [sp, #4]
 8001692:	681b      	ldr	r3, [r3, #0]
 8001694:	3330      	adds	r3, #48	; 0x30
 8001696:	681b      	ldr	r3, [r3, #0]
 8001698:	9801      	ldr	r0, [sp, #4]
 800169a:	2100      	movs	r1, #0
 800169c:	4798      	blx	r3
 800169e:	2001      	movs	r0, #1
 80016a0:	f000 fe26 	bl	80022f0 <wait_us>
 80016a4:	9b01      	ldr	r3, [sp, #4]
 80016a6:	681b      	ldr	r3, [r3, #0]
 80016a8:	333c      	adds	r3, #60	; 0x3c
 80016aa:	681b      	ldr	r3, [r3, #0]
 80016ac:	9801      	ldr	r0, [sp, #4]
 80016ae:	9900      	ldr	r1, [sp, #0]
 80016b0:	4798      	blx	r3
 80016b2:	2028      	movs	r0, #40	; 0x28
 80016b4:	f000 fe1c 	bl	80022f0 <wait_us>
 80016b8:	b003      	add	sp, #12
 80016ba:	f85d fb04 	ldr.w	pc, [sp], #4
 80016be:	bf00      	nop

080016c0 <TextLCD_Base::_writeData(int)>:
 80016c0:	b500      	push	{lr}
 80016c2:	b083      	sub	sp, #12
 80016c4:	9001      	str	r0, [sp, #4]
 80016c6:	9100      	str	r1, [sp, #0]
 80016c8:	9b01      	ldr	r3, [sp, #4]
 80016ca:	681b      	ldr	r3, [r3, #0]
 80016cc:	3330      	adds	r3, #48	; 0x30
 80016ce:	681b      	ldr	r3, [r3, #0]
 80016d0:	9801      	ldr	r0, [sp, #4]
 80016d2:	2101      	movs	r1, #1
 80016d4:	4798      	blx	r3
 80016d6:	2001      	movs	r0, #1
 80016d8:	f000 fe0a 	bl	80022f0 <wait_us>
 80016dc:	9b01      	ldr	r3, [sp, #4]
 80016de:	681b      	ldr	r3, [r3, #0]
 80016e0:	333c      	adds	r3, #60	; 0x3c
 80016e2:	681b      	ldr	r3, [r3, #0]
 80016e4:	9801      	ldr	r0, [sp, #4]
 80016e6:	9900      	ldr	r1, [sp, #0]
 80016e8:	4798      	blx	r3
 80016ea:	2028      	movs	r0, #40	; 0x28
 80016ec:	f000 fe00 	bl	80022f0 <wait_us>
 80016f0:	b003      	add	sp, #12
 80016f2:	f85d fb04 	ldr.w	pc, [sp], #4
 80016f6:	bf00      	nop

080016f8 <TextLCD_Base::getAddress(int, int)>:
 80016f8:	b500      	push	{lr}
 80016fa:	b085      	sub	sp, #20
 80016fc:	9003      	str	r0, [sp, #12]
 80016fe:	9102      	str	r1, [sp, #8]
 8001700:	9201      	str	r2, [sp, #4]
 8001702:	9b03      	ldr	r3, [sp, #12]
 8001704:	6a5b      	ldr	r3, [r3, #36]	; 0x24
 8001706:	f5b3 3f40 	cmp.w	r3, #196608	; 0x30000
 800170a:	d057      	beq.n	80017bc <TextLCD_Base::getAddress(int, int)+0xc4>
 800170c:	f5b3 3f40 	cmp.w	r3, #196608	; 0x30000
 8001710:	dc08      	bgt.n	8001724 <TextLCD_Base::getAddress(int, int)+0x2c>
 8001712:	f5b3 3f80 	cmp.w	r3, #65536	; 0x10000
 8001716:	d03a      	beq.n	800178e <TextLCD_Base::getAddress(int, int)+0x96>
 8001718:	f5b3 3f00 	cmp.w	r3, #131072	; 0x20000
 800171c:	d03f      	beq.n	800179e <TextLCD_Base::getAddress(int, int)+0xa6>
 800171e:	2b00      	cmp	r3, #0
 8001720:	d013      	beq.n	800174a <TextLCD_Base::getAddress(int, int)+0x52>
 8001722:	e0f3      	b.n	800190c <TextLCD_Base::getAddress(int, int)+0x214>
 8001724:	f5b3 2fa0 	cmp.w	r3, #327680	; 0x50000
 8001728:	d075      	beq.n	8001816 <TextLCD_Base::getAddress(int, int)+0x11e>
 800172a:	f5b3 2fa0 	cmp.w	r3, #327680	; 0x50000
 800172e:	dc03      	bgt.n	8001738 <TextLCD_Base::getAddress(int, int)+0x40>
 8001730:	f5b3 2f80 	cmp.w	r3, #262144	; 0x40000
 8001734:	d05d      	beq.n	80017f2 <TextLCD_Base::getAddress(int, int)+0xfa>
 8001736:	e0e9      	b.n	800190c <TextLCD_Base::getAddress(int, int)+0x214>
 8001738:	f5b3 2fc0 	cmp.w	r3, #393216	; 0x60000
 800173c:	f000 80b1 	beq.w	80018a2 <TextLCD_Base::getAddress(int, int)+0x1aa>
 8001740:	f5b3 2fe0 	cmp.w	r3, #458752	; 0x70000
 8001744:	f000 80d1 	beq.w	80018ea <TextLCD_Base::getAddress(int, int)+0x1f2>
 8001748:	e0e0      	b.n	800190c <TextLCD_Base::getAddress(int, int)+0x214>
 800174a:	9b01      	ldr	r3, [sp, #4]
 800174c:	2b03      	cmp	r3, #3
 800174e:	d81c      	bhi.n	800178a <TextLCD_Base::getAddress(int, int)+0x92>
 8001750:	a201      	add	r2, pc, #4	; (adr r2, 8001758 <TextLCD_Base::getAddress(int, int)+0x60>)
 8001752:	f852 f023 	ldr.w	pc, [r2, r3, lsl #2]
 8001756:	bf00      	nop
 8001758:	08001769 	.word	0x08001769
 800175c:	0800176d 	.word	0x0800176d
 8001760:	08001773 	.word	0x08001773
 8001764:	0800177d 	.word	0x0800177d
 8001768:	9b02      	ldr	r3, [sp, #8]
 800176a:	e0d0      	b.n	800190e <TextLCD_Base::getAddress(int, int)+0x216>
 800176c:	9b02      	ldr	r3, [sp, #8]
 800176e:	3340      	adds	r3, #64	; 0x40
 8001770:	e0cd      	b.n	800190e <TextLCD_Base::getAddress(int, int)+0x216>
 8001772:	9b03      	ldr	r3, [sp, #12]
 8001774:	69da      	ldr	r2, [r3, #28]
 8001776:	9b02      	ldr	r3, [sp, #8]
 8001778:	4413      	add	r3, r2
 800177a:	e0c8      	b.n	800190e <TextLCD_Base::getAddress(int, int)+0x216>
 800177c:	9b03      	ldr	r3, [sp, #12]
 800177e:	69db      	ldr	r3, [r3, #28]
 8001780:	f103 0240 	add.w	r2, r3, #64	; 0x40
 8001784:	9b02      	ldr	r3, [sp, #8]
 8001786:	4413      	add	r3, r2
 8001788:	e0c1      	b.n	800190e <TextLCD_Base::getAddress(int, int)+0x216>
 800178a:	2300      	movs	r3, #0
 800178c:	e0bf      	b.n	800190e <TextLCD_Base::getAddress(int, int)+0x216>
 800178e:	9b01      	ldr	r3, [sp, #4]
 8001790:	2b00      	cmp	r3, #0
 8001792:	d101      	bne.n	8001798 <TextLCD_Base::getAddress(int, int)+0xa0>
 8001794:	9b02      	ldr	r3, [sp, #8]
 8001796:	e0ba      	b.n	800190e <TextLCD_Base::getAddress(int, int)+0x216>
 8001798:	9b02      	ldr	r3, [sp, #8]
 800179a:	3308      	adds	r3, #8
 800179c:	e0b7      	b.n	800190e <TextLCD_Base::getAddress(int, int)+0x216>
 800179e:	9b03      	ldr	r3, [sp, #12]
 80017a0:	69db      	ldr	r3, [r3, #28]
 80017a2:	105a      	asrs	r2, r3, #1
 80017a4:	9b02      	ldr	r3, [sp, #8]
 80017a6:	429a      	cmp	r2, r3
 80017a8:	dd01      	ble.n	80017ae <TextLCD_Base::getAddress(int, int)+0xb6>
 80017aa:	9b02      	ldr	r3, [sp, #8]
 80017ac:	e0af      	b.n	800190e <TextLCD_Base::getAddress(int, int)+0x216>
 80017ae:	9b03      	ldr	r3, [sp, #12]
 80017b0:	69db      	ldr	r3, [r3, #28]
 80017b2:	105b      	asrs	r3, r3, #1
 80017b4:	9a02      	ldr	r2, [sp, #8]
 80017b6:	1ad3      	subs	r3, r2, r3
 80017b8:	3340      	adds	r3, #64	; 0x40
 80017ba:	e0a8      	b.n	800190e <TextLCD_Base::getAddress(int, int)+0x216>
 80017bc:	9b01      	ldr	r3, [sp, #4]
 80017be:	2b03      	cmp	r3, #3
 80017c0:	d815      	bhi.n	80017ee <TextLCD_Base::getAddress(int, int)+0xf6>
 80017c2:	a201      	add	r2, pc, #4	; (adr r2, 80017c8 <TextLCD_Base::getAddress(int, int)+0xd0>)
 80017c4:	f852 f023 	ldr.w	pc, [r2, r3, lsl #2]
 80017c8:	080017d9 	.word	0x080017d9
 80017cc:	080017dd 	.word	0x080017dd
 80017d0:	080017e3 	.word	0x080017e3
 80017d4:	080017e9 	.word	0x080017e9
 80017d8:	9b02      	ldr	r3, [sp, #8]
 80017da:	e098      	b.n	800190e <TextLCD_Base::getAddress(int, int)+0x216>
 80017dc:	9b02      	ldr	r3, [sp, #8]
 80017de:	3320      	adds	r3, #32
 80017e0:	e095      	b.n	800190e <TextLCD_Base::getAddress(int, int)+0x216>
 80017e2:	9b02      	ldr	r3, [sp, #8]
 80017e4:	3340      	adds	r3, #64	; 0x40
 80017e6:	e092      	b.n	800190e <TextLCD_Base::getAddress(int, int)+0x216>
 80017e8:	9b02      	ldr	r3, [sp, #8]
 80017ea:	3360      	adds	r3, #96	; 0x60
 80017ec:	e08f      	b.n	800190e <TextLCD_Base::getAddress(int, int)+0x216>
 80017ee:	2300      	movs	r3, #0
 80017f0:	e08d      	b.n	800190e <TextLCD_Base::getAddress(int, int)+0x216>
 80017f2:	9b01      	ldr	r3, [sp, #4]
 80017f4:	2b01      	cmp	r3, #1
 80017f6:	d006      	beq.n	8001806 <TextLCD_Base::getAddress(int, int)+0x10e>
 80017f8:	2b02      	cmp	r3, #2
 80017fa:	d007      	beq.n	800180c <TextLCD_Base::getAddress(int, int)+0x114>
 80017fc:	2b00      	cmp	r3, #0
 80017fe:	d108      	bne.n	8001812 <TextLCD_Base::getAddress(int, int)+0x11a>
 8001800:	9b02      	ldr	r3, [sp, #8]
 8001802:	3320      	adds	r3, #32
 8001804:	e083      	b.n	800190e <TextLCD_Base::getAddress(int, int)+0x216>
 8001806:	9b02      	ldr	r3, [sp, #8]
 8001808:	3340      	adds	r3, #64	; 0x40
 800180a:	e080      	b.n	800190e <TextLCD_Base::getAddress(int, int)+0x216>
 800180c:	9b02      	ldr	r3, [sp, #8]
 800180e:	3360      	adds	r3, #96	; 0x60
 8001810:	e07d      	b.n	800190e <TextLCD_Base::getAddress(int, int)+0x216>
 8001812:	2300      	movs	r3, #0
 8001814:	e07b      	b.n	800190e <TextLCD_Base::getAddress(int, int)+0x216>
 8001816:	9b01      	ldr	r3, [sp, #4]
 8001818:	2b01      	cmp	r3, #1
 800181a:	dc20      	bgt.n	800185e <TextLCD_Base::getAddress(int, int)+0x166>
 800181c:	9b03      	ldr	r3, [sp, #12]
 800181e:	f893 3030 	ldrb.w	r3, [r3, #48]	; 0x30
 8001822:	2b00      	cmp	r3, #0
 8001824:	d016      	beq.n	8001854 <TextLCD_Base::getAddress(int, int)+0x15c>
 8001826:	9b03      	ldr	r3, [sp, #12]
 8001828:	f893 3028 	ldrb.w	r3, [r3, #40]	; 0x28
 800182c:	9803      	ldr	r0, [sp, #12]
 800182e:	4619      	mov	r1, r3
 8001830:	2200      	movs	r2, #0
 8001832:	f000 f93d 	bl	8001ab0 <TextLCD_Base::_setCursorAndDisplayMode(TextLCD_Base::LCDMode, TextLCD_Base::LCDCursor)>
 8001836:	9b03      	ldr	r3, [sp, #12]
 8001838:	2200      	movs	r2, #0
 800183a:	f883 2030 	strb.w	r2, [r3, #48]	; 0x30
 800183e:	9b03      	ldr	r3, [sp, #12]
 8001840:	f893 2028 	ldrb.w	r2, [r3, #40]	; 0x28
 8001844:	9b03      	ldr	r3, [sp, #12]
 8001846:	f893 303c 	ldrb.w	r3, [r3, #60]	; 0x3c
 800184a:	9803      	ldr	r0, [sp, #12]
 800184c:	4611      	mov	r1, r2
 800184e:	461a      	mov	r2, r3
 8001850:	f000 f92e 	bl	8001ab0 <TextLCD_Base::_setCursorAndDisplayMode(TextLCD_Base::LCDMode, TextLCD_Base::LCDCursor)>
 8001854:	9b01      	ldr	r3, [sp, #4]
 8001856:	019a      	lsls	r2, r3, #6
 8001858:	9b02      	ldr	r3, [sp, #8]
 800185a:	4413      	add	r3, r2
 800185c:	e057      	b.n	800190e <TextLCD_Base::getAddress(int, int)+0x216>
 800185e:	9b03      	ldr	r3, [sp, #12]
 8001860:	f893 3030 	ldrb.w	r3, [r3, #48]	; 0x30
 8001864:	2b01      	cmp	r3, #1
 8001866:	d016      	beq.n	8001896 <TextLCD_Base::getAddress(int, int)+0x19e>
 8001868:	9b03      	ldr	r3, [sp, #12]
 800186a:	f893 3028 	ldrb.w	r3, [r3, #40]	; 0x28
 800186e:	9803      	ldr	r0, [sp, #12]
 8001870:	4619      	mov	r1, r3
 8001872:	2200      	movs	r2, #0
 8001874:	f000 f91c 	bl	8001ab0 <TextLCD_Base::_setCursorAndDisplayMode(TextLCD_Base::LCDMode, TextLCD_Base::LCDCursor)>
 8001878:	9b03      	ldr	r3, [sp, #12]
 800187a:	2201      	movs	r2, #1
 800187c:	f883 2030 	strb.w	r2, [r3, #48]	; 0x30
 8001880:	9b03      	ldr	r3, [sp, #12]
 8001882:	f893 2028 	ldrb.w	r2, [r3, #40]	; 0x28
 8001886:	9b03      	ldr	r3, [sp, #12]
 8001888:	f893 303c 	ldrb.w	r3, [r3, #60]	; 0x3c
 800188c:	9803      	ldr	r0, [sp, #12]
 800188e:	4611      	mov	r1, r2
 8001890:	461a      	mov	r2, r3
 8001892:	f000 f90d 	bl	8001ab0 <TextLCD_Base::_setCursorAndDisplayMode(TextLCD_Base::LCDMode, TextLCD_Base::LCDCursor)>
 8001896:	9b01      	ldr	r3, [sp, #4]
 8001898:	3b02      	subs	r3, #2
 800189a:	019a      	lsls	r2, r3, #6
 800189c:	9b02      	ldr	r3, [sp, #8]
 800189e:	4413      	add	r3, r2
 80018a0:	e035      	b.n	800190e <TextLCD_Base::getAddress(int, int)+0x216>
 80018a2:	9b01      	ldr	r3, [sp, #4]
 80018a4:	2b01      	cmp	r3, #1
 80018a6:	d005      	beq.n	80018b4 <TextLCD_Base::getAddress(int, int)+0x1bc>
 80018a8:	2b02      	cmp	r3, #2
 80018aa:	d006      	beq.n	80018ba <TextLCD_Base::getAddress(int, int)+0x1c2>
 80018ac:	2b00      	cmp	r3, #0
 80018ae:	d11a      	bne.n	80018e6 <TextLCD_Base::getAddress(int, int)+0x1ee>
 80018b0:	9b02      	ldr	r3, [sp, #8]
 80018b2:	e02c      	b.n	800190e <TextLCD_Base::getAddress(int, int)+0x216>
 80018b4:	9b02      	ldr	r3, [sp, #8]
 80018b6:	3340      	adds	r3, #64	; 0x40
 80018b8:	e029      	b.n	800190e <TextLCD_Base::getAddress(int, int)+0x216>
 80018ba:	9b03      	ldr	r3, [sp, #12]
 80018bc:	69db      	ldr	r3, [r3, #28]
 80018be:	105a      	asrs	r2, r3, #1
 80018c0:	9b02      	ldr	r3, [sp, #8]
 80018c2:	429a      	cmp	r2, r3
 80018c4:	dd04      	ble.n	80018d0 <TextLCD_Base::getAddress(int, int)+0x1d8>
 80018c6:	9b03      	ldr	r3, [sp, #12]
 80018c8:	69da      	ldr	r2, [r3, #28]
 80018ca:	9b02      	ldr	r3, [sp, #8]
 80018cc:	4413      	add	r3, r2
 80018ce:	e01e      	b.n	800190e <TextLCD_Base::getAddress(int, int)+0x216>
 80018d0:	9b03      	ldr	r3, [sp, #12]
 80018d2:	69db      	ldr	r3, [r3, #28]
 80018d4:	f103 0240 	add.w	r2, r3, #64	; 0x40
 80018d8:	9b03      	ldr	r3, [sp, #12]
 80018da:	69db      	ldr	r3, [r3, #28]
 80018dc:	105b      	asrs	r3, r3, #1
 80018de:	9902      	ldr	r1, [sp, #8]
 80018e0:	1acb      	subs	r3, r1, r3
 80018e2:	4413      	add	r3, r2
 80018e4:	e013      	b.n	800190e <TextLCD_Base::getAddress(int, int)+0x216>
 80018e6:	2300      	movs	r3, #0
 80018e8:	e011      	b.n	800190e <TextLCD_Base::getAddress(int, int)+0x216>
 80018ea:	9b01      	ldr	r3, [sp, #4]
 80018ec:	2b01      	cmp	r3, #1
 80018ee:	d005      	beq.n	80018fc <TextLCD_Base::getAddress(int, int)+0x204>
 80018f0:	2b02      	cmp	r3, #2
 80018f2:	d006      	beq.n	8001902 <TextLCD_Base::getAddress(int, int)+0x20a>
 80018f4:	2b00      	cmp	r3, #0
 80018f6:	d107      	bne.n	8001908 <TextLCD_Base::getAddress(int, int)+0x210>
 80018f8:	9b02      	ldr	r3, [sp, #8]
 80018fa:	e008      	b.n	800190e <TextLCD_Base::getAddress(int, int)+0x216>
 80018fc:	9b02      	ldr	r3, [sp, #8]
 80018fe:	3310      	adds	r3, #16
 8001900:	e005      	b.n	800190e <TextLCD_Base::getAddress(int, int)+0x216>
 8001902:	9b02      	ldr	r3, [sp, #8]
 8001904:	3320      	adds	r3, #32
 8001906:	e002      	b.n	800190e <TextLCD_Base::getAddress(int, int)+0x216>
 8001908:	2300      	movs	r3, #0
 800190a:	e000      	b.n	800190e <TextLCD_Base::getAddress(int, int)+0x216>
 800190c:	2300      	movs	r3, #0
 800190e:	4618      	mov	r0, r3
 8001910:	b005      	add	sp, #20
 8001912:	f85d fb04 	ldr.w	pc, [sp], #4
 8001916:	bf00      	nop

08001918 <TextLCD_Base::setAddress(int, int)>:
 8001918:	b500      	push	{lr}
 800191a:	b087      	sub	sp, #28
 800191c:	9003      	str	r0, [sp, #12]
 800191e:	9102      	str	r1, [sp, #8]
 8001920:	9201      	str	r2, [sp, #4]
 8001922:	9b02      	ldr	r3, [sp, #8]
 8001924:	2b00      	cmp	r3, #0
 8001926:	da03      	bge.n	8001930 <TextLCD_Base::setAddress(int, int)+0x18>
 8001928:	9b03      	ldr	r3, [sp, #12]
 800192a:	2200      	movs	r2, #0
 800192c:	635a      	str	r2, [r3, #52]	; 0x34
 800192e:	e00d      	b.n	800194c <TextLCD_Base::setAddress(int, int)+0x34>
 8001930:	9b03      	ldr	r3, [sp, #12]
 8001932:	69da      	ldr	r2, [r3, #28]
 8001934:	9b02      	ldr	r3, [sp, #8]
 8001936:	429a      	cmp	r2, r3
 8001938:	dc05      	bgt.n	8001946 <TextLCD_Base::setAddress(int, int)+0x2e>
 800193a:	9b03      	ldr	r3, [sp, #12]
 800193c:	69db      	ldr	r3, [r3, #28]
 800193e:	1e5a      	subs	r2, r3, #1
 8001940:	9b03      	ldr	r3, [sp, #12]
 8001942:	635a      	str	r2, [r3, #52]	; 0x34
 8001944:	e002      	b.n	800194c <TextLCD_Base::setAddress(int, int)+0x34>
 8001946:	9b03      	ldr	r3, [sp, #12]
 8001948:	9a02      	ldr	r2, [sp, #8]
 800194a:	635a      	str	r2, [r3, #52]	; 0x34
 800194c:	9b01      	ldr	r3, [sp, #4]
 800194e:	2b00      	cmp	r3, #0
 8001950:	da03      	bge.n	800195a <TextLCD_Base::setAddress(int, int)+0x42>
 8001952:	9b03      	ldr	r3, [sp, #12]
 8001954:	2200      	movs	r2, #0
 8001956:	639a      	str	r2, [r3, #56]	; 0x38
 8001958:	e00d      	b.n	8001976 <TextLCD_Base::setAddress(int, int)+0x5e>
 800195a:	9b03      	ldr	r3, [sp, #12]
 800195c:	6a1a      	ldr	r2, [r3, #32]
 800195e:	9b01      	ldr	r3, [sp, #4]
 8001960:	429a      	cmp	r2, r3
 8001962:	dc05      	bgt.n	8001970 <TextLCD_Base::setAddress(int, int)+0x58>
 8001964:	9b03      	ldr	r3, [sp, #12]
 8001966:	6a1b      	ldr	r3, [r3, #32]
 8001968:	1e5a      	subs	r2, r3, #1
 800196a:	9b03      	ldr	r3, [sp, #12]
 800196c:	639a      	str	r2, [r3, #56]	; 0x38
 800196e:	e002      	b.n	8001976 <TextLCD_Base::setAddress(int, int)+0x5e>
 8001970:	9b03      	ldr	r3, [sp, #12]
 8001972:	9a01      	ldr	r2, [sp, #4]
 8001974:	639a      	str	r2, [r3, #56]	; 0x38
 8001976:	9b03      	ldr	r3, [sp, #12]
 8001978:	6b5a      	ldr	r2, [r3, #52]	; 0x34
 800197a:	9b03      	ldr	r3, [sp, #12]
 800197c:	6b9b      	ldr	r3, [r3, #56]	; 0x38
 800197e:	9803      	ldr	r0, [sp, #12]
 8001980:	4611      	mov	r1, r2
 8001982:	461a      	mov	r2, r3
 8001984:	f7ff feb8 	bl	80016f8 <TextLCD_Base::getAddress(int, int)>
 8001988:	9005      	str	r0, [sp, #20]
 800198a:	9b05      	ldr	r3, [sp, #20]
 800198c:	f043 0380 	orr.w	r3, r3, #128	; 0x80
 8001990:	9803      	ldr	r0, [sp, #12]
 8001992:	4619      	mov	r1, r3
 8001994:	f7ff fe78 	bl	8001688 <TextLCD_Base::_writeCommand(int)>
 8001998:	b007      	add	sp, #28
 800199a:	f85d fb04 	ldr.w	pc, [sp], #4
 800199e:	bf00      	nop

080019a0 <TextLCD_Base::columns()>:
 80019a0:	b082      	sub	sp, #8
 80019a2:	9001      	str	r0, [sp, #4]
 80019a4:	9b01      	ldr	r3, [sp, #4]
 80019a6:	69db      	ldr	r3, [r3, #28]
 80019a8:	4618      	mov	r0, r3
 80019aa:	b002      	add	sp, #8
 80019ac:	4770      	bx	lr
 80019ae:	bf00      	nop

080019b0 <TextLCD_Base::rows()>:
 80019b0:	b082      	sub	sp, #8
 80019b2:	9001      	str	r0, [sp, #4]
 80019b4:	9b01      	ldr	r3, [sp, #4]
 80019b6:	6a1b      	ldr	r3, [r3, #32]
 80019b8:	4618      	mov	r0, r3
 80019ba:	b002      	add	sp, #8
 80019bc:	4770      	bx	lr
 80019be:	bf00      	nop

080019c0 <TextLCD_Base::setCursor(TextLCD_Base::LCDCursor)>:
 80019c0:	b500      	push	{lr}
 80019c2:	b083      	sub	sp, #12
 80019c4:	9001      	str	r0, [sp, #4]
 80019c6:	460b      	mov	r3, r1
 80019c8:	f88d 3003 	strb.w	r3, [sp, #3]
 80019cc:	9b01      	ldr	r3, [sp, #4]
 80019ce:	f89d 2003 	ldrb.w	r2, [sp, #3]
 80019d2:	f883 203c 	strb.w	r2, [r3, #60]	; 0x3c
 80019d6:	9b01      	ldr	r3, [sp, #4]
 80019d8:	f893 2028 	ldrb.w	r2, [r3, #40]	; 0x28
 80019dc:	9b01      	ldr	r3, [sp, #4]
 80019de:	f893 303c 	ldrb.w	r3, [r3, #60]	; 0x3c
 80019e2:	9801      	ldr	r0, [sp, #4]
 80019e4:	4611      	mov	r1, r2
 80019e6:	461a      	mov	r2, r3
 80019e8:	f000 f862 	bl	8001ab0 <TextLCD_Base::_setCursorAndDisplayMode(TextLCD_Base::LCDMode, TextLCD_Base::LCDCursor)>
 80019ec:	b003      	add	sp, #12
 80019ee:	f85d fb04 	ldr.w	pc, [sp], #4
 80019f2:	bf00      	nop

080019f4 <TextLCD_Base::setMode(TextLCD_Base::LCDMode)>:
 80019f4:	b500      	push	{lr}
 80019f6:	b083      	sub	sp, #12
 80019f8:	9001      	str	r0, [sp, #4]
 80019fa:	460b      	mov	r3, r1
 80019fc:	f88d 3003 	strb.w	r3, [sp, #3]
 8001a00:	9b01      	ldr	r3, [sp, #4]
 8001a02:	f89d 2003 	ldrb.w	r2, [sp, #3]
 8001a06:	f883 2028 	strb.w	r2, [r3, #40]	; 0x28
 8001a0a:	9b01      	ldr	r3, [sp, #4]
 8001a0c:	699b      	ldr	r3, [r3, #24]
 8001a0e:	4a27      	ldr	r2, [pc, #156]	; (8001aac <TextLCD_Base::setMode(TextLCD_Base::LCDMode)+0xb8>)
 8001a10:	4293      	cmp	r3, r2
 8001a12:	d13c      	bne.n	8001a8e <TextLCD_Base::setMode(TextLCD_Base::LCDMode)+0x9a>
 8001a14:	9b01      	ldr	r3, [sp, #4]
 8001a16:	f893 3030 	ldrb.w	r3, [r3, #48]	; 0x30
 8001a1a:	2b00      	cmp	r3, #0
 8001a1c:	d11b      	bne.n	8001a56 <TextLCD_Base::setMode(TextLCD_Base::LCDMode)+0x62>
 8001a1e:	9b01      	ldr	r3, [sp, #4]
 8001a20:	f893 2028 	ldrb.w	r2, [r3, #40]	; 0x28
 8001a24:	9b01      	ldr	r3, [sp, #4]
 8001a26:	f893 303c 	ldrb.w	r3, [r3, #60]	; 0x3c
 8001a2a:	9801      	ldr	r0, [sp, #4]
 8001a2c:	4611      	mov	r1, r2
 8001a2e:	461a      	mov	r2, r3
 8001a30:	f000 f83e 	bl	8001ab0 <TextLCD_Base::_setCursorAndDisplayMode(TextLCD_Base::LCDMode, TextLCD_Base::LCDCursor)>
 8001a34:	9b01      	ldr	r3, [sp, #4]
 8001a36:	2201      	movs	r2, #1
 8001a38:	f883 2030 	strb.w	r2, [r3, #48]	; 0x30
 8001a3c:	9b01      	ldr	r3, [sp, #4]
 8001a3e:	f893 3028 	ldrb.w	r3, [r3, #40]	; 0x28
 8001a42:	9801      	ldr	r0, [sp, #4]
 8001a44:	4619      	mov	r1, r3
 8001a46:	2200      	movs	r2, #0
 8001a48:	f000 f832 	bl	8001ab0 <TextLCD_Base::_setCursorAndDisplayMode(TextLCD_Base::LCDMode, TextLCD_Base::LCDCursor)>
 8001a4c:	9b01      	ldr	r3, [sp, #4]
 8001a4e:	2200      	movs	r2, #0
 8001a50:	f883 2030 	strb.w	r2, [r3, #48]	; 0x30
 8001a54:	e026      	b.n	8001aa4 <TextLCD_Base::setMode(TextLCD_Base::LCDMode)+0xb0>
 8001a56:	9b01      	ldr	r3, [sp, #4]
 8001a58:	2200      	movs	r2, #0
 8001a5a:	f883 2030 	strb.w	r2, [r3, #48]	; 0x30
 8001a5e:	9b01      	ldr	r3, [sp, #4]
 8001a60:	f893 3028 	ldrb.w	r3, [r3, #40]	; 0x28
 8001a64:	9801      	ldr	r0, [sp, #4]
 8001a66:	4619      	mov	r1, r3
 8001a68:	2200      	movs	r2, #0
 8001a6a:	f000 f821 	bl	8001ab0 <TextLCD_Base::_setCursorAndDisplayMode(TextLCD_Base::LCDMode, TextLCD_Base::LCDCursor)>
 8001a6e:	9b01      	ldr	r3, [sp, #4]
 8001a70:	2201      	movs	r2, #1
 8001a72:	f883 2030 	strb.w	r2, [r3, #48]	; 0x30
 8001a76:	9b01      	ldr	r3, [sp, #4]
 8001a78:	f893 2028 	ldrb.w	r2, [r3, #40]	; 0x28
 8001a7c:	9b01      	ldr	r3, [sp, #4]
 8001a7e:	f893 303c 	ldrb.w	r3, [r3, #60]	; 0x3c
 8001a82:	9801      	ldr	r0, [sp, #4]
 8001a84:	4611      	mov	r1, r2
 8001a86:	461a      	mov	r2, r3
 8001a88:	f000 f812 	bl	8001ab0 <TextLCD_Base::_setCursorAndDisplayMode(TextLCD_Base::LCDMode, TextLCD_Base::LCDCursor)>
 8001a8c:	e00a      	b.n	8001aa4 <TextLCD_Base::setMode(TextLCD_Base::LCDMode)+0xb0>
 8001a8e:	9b01      	ldr	r3, [sp, #4]
 8001a90:	f893 2028 	ldrb.w	r2, [r3, #40]	; 0x28
 8001a94:	9b01      	ldr	r3, [sp, #4]
 8001a96:	f893 303c 	ldrb.w	r3, [r3, #60]	; 0x3c
 8001a9a:	9801      	ldr	r0, [sp, #4]
 8001a9c:	4611      	mov	r1, r2
 8001a9e:	461a      	mov	r2, r3
 8001aa0:	f000 f806 	bl	8001ab0 <TextLCD_Base::_setCursorAndDisplayMode(TextLCD_Base::LCDMode, TextLCD_Base::LCDCursor)>
 8001aa4:	b003      	add	sp, #12
 8001aa6:	f85d fb04 	ldr.w	pc, [sp], #4
 8001aaa:	bf00      	nop
 8001aac:	00050428 	.word	0x00050428

08001ab0 <TextLCD_Base::_setCursorAndDisplayMode(TextLCD_Base::LCDMode, TextLCD_Base::LCDCursor)>:
 8001ab0:	b500      	push	{lr}
 8001ab2:	b083      	sub	sp, #12
 8001ab4:	9001      	str	r0, [sp, #4]
 8001ab6:	460b      	mov	r3, r1
 8001ab8:	f88d 3003 	strb.w	r3, [sp, #3]
 8001abc:	4613      	mov	r3, r2
 8001abe:	f88d 3002 	strb.w	r3, [sp, #2]
 8001ac2:	9b01      	ldr	r3, [sp, #4]
 8001ac4:	6adb      	ldr	r3, [r3, #44]	; 0x2c
 8001ac6:	4a12      	ldr	r2, [pc, #72]	; (8001b10 <TextLCD_Base::_setCursorAndDisplayMode(TextLCD_Base::LCDMode, TextLCD_Base::LCDCursor)+0x60>)
 8001ac8:	4293      	cmp	r3, r2
 8001aca:	d10f      	bne.n	8001aec <TextLCD_Base::_setCursorAndDisplayMode(TextLCD_Base::LCDMode, TextLCD_Base::LCDCursor)+0x3c>
 8001acc:	f89d 3003 	ldrb.w	r3, [sp, #3]
 8001ad0:	f043 0308 	orr.w	r3, r3, #8
 8001ad4:	b2db      	uxtb	r3, r3
 8001ad6:	461a      	mov	r2, r3
 8001ad8:	f89d 3002 	ldrb.w	r3, [sp, #2]
 8001adc:	f003 0302 	and.w	r3, r3, #2
 8001ae0:	4313      	orrs	r3, r2
 8001ae2:	9801      	ldr	r0, [sp, #4]
 8001ae4:	4619      	mov	r1, r3
 8001ae6:	f7ff fdcf 	bl	8001688 <TextLCD_Base::_writeCommand(int)>
 8001aea:	e00d      	b.n	8001b08 <TextLCD_Base::_setCursorAndDisplayMode(TextLCD_Base::LCDMode, TextLCD_Base::LCDCursor)+0x58>
 8001aec:	f89d 2003 	ldrb.w	r2, [sp, #3]
 8001af0:	f89d 3002 	ldrb.w	r3, [sp, #2]
 8001af4:	4313      	orrs	r3, r2
 8001af6:	b2db      	uxtb	r3, r3
 8001af8:	f043 0308 	orr.w	r3, r3, #8
 8001afc:	b2db      	uxtb	r3, r3
 8001afe:	9801      	ldr	r0, [sp, #4]
 8001b00:	4619      	mov	r1, r3
 8001b02:	f7ff fdc1 	bl	8001688 <TextLCD_Base::_writeCommand(int)>
 8001b06:	bf00      	nop
 8001b08:	b003      	add	sp, #12
 8001b0a:	f85d fb04 	ldr.w	pc, [sp], #4
 8001b0e:	bf00      	nop
 8001b10:	43000014 	.word	0x43000014

08001b14 <TextLCD_Base::~TextLCD_Base()>:
 8001b14:	b500      	push	{lr}
 8001b16:	b083      	sub	sp, #12
 8001b18:	9001      	str	r0, [sp, #4]
 8001b1a:	9b01      	ldr	r3, [sp, #4]
 8001b1c:	4a09      	ldr	r2, [pc, #36]	; (8001b44 <TextLCD_Base::~TextLCD_Base()+0x30>)
 8001b1e:	601a      	str	r2, [r3, #0]
 8001b20:	9b01      	ldr	r3, [sp, #4]
 8001b22:	4a09      	ldr	r2, [pc, #36]	; (8001b48 <TextLCD_Base::~TextLCD_Base()+0x34>)
 8001b24:	605a      	str	r2, [r3, #4]
 8001b26:	9b01      	ldr	r3, [sp, #4]
 8001b28:	4618      	mov	r0, r3
 8001b2a:	f003 f961 	bl	8004df0 <mbed::Stream::~Stream()>
 8001b2e:	2300      	movs	r3, #0
 8001b30:	2b00      	cmp	r3, #0
 8001b32:	d002      	beq.n	8001b3a <TextLCD_Base::~TextLCD_Base()+0x26>
 8001b34:	9801      	ldr	r0, [sp, #4]
 8001b36:	f003 fa45 	bl	8004fc4 <operator delete(void*)>
 8001b3a:	9b01      	ldr	r3, [sp, #4]
 8001b3c:	4618      	mov	r0, r3
 8001b3e:	b003      	add	sp, #12
 8001b40:	f85d fb04 	ldr.w	pc, [sp], #4
 8001b44:	080073b0 	.word	0x080073b0
 8001b48:	080073f8 	.word	0x080073f8

08001b4c <non-virtual thunk to TextLCD_Base::~TextLCD_Base()>:
 8001b4c:	f1a0 0004 	sub.w	r0, r0, #4
 8001b50:	f7ff bfe0 	b.w	8001b14 <TextLCD_Base::~TextLCD_Base()>

08001b54 <TextLCD_Base::~TextLCD_Base()>:
 8001b54:	b500      	push	{lr}
 8001b56:	b083      	sub	sp, #12
 8001b58:	9001      	str	r0, [sp, #4]
 8001b5a:	9801      	ldr	r0, [sp, #4]
 8001b5c:	f7ff ffda 	bl	8001b14 <TextLCD_Base::~TextLCD_Base()>
 8001b60:	9801      	ldr	r0, [sp, #4]
 8001b62:	f003 fa2f 	bl	8004fc4 <operator delete(void*)>
 8001b66:	9b01      	ldr	r3, [sp, #4]
 8001b68:	4618      	mov	r0, r3
 8001b6a:	b003      	add	sp, #12
 8001b6c:	f85d fb04 	ldr.w	pc, [sp], #4

08001b70 <non-virtual thunk to TextLCD_Base::~TextLCD_Base()>:
 8001b70:	f1a0 0004 	sub.w	r0, r0, #4
 8001b74:	e7ee      	b.n	8001b54 <TextLCD_Base::~TextLCD_Base()>
 8001b76:	bf00      	nop

08001b78 <TextLCD::TextLCD(PinName, PinName, PinName, PinName, PinName, PinName, TextLCD_Base::LCDType, PinName, PinName, TextLCD_Base::LCDCtrl)>:
 8001b78:	b510      	push	{r4, lr}
 8001b7a:	b090      	sub	sp, #64	; 0x40
 8001b7c:	900f      	str	r0, [sp, #60]	; 0x3c
 8001b7e:	4608      	mov	r0, r1
 8001b80:	4611      	mov	r1, r2
 8001b82:	461a      	mov	r2, r3
 8001b84:	4603      	mov	r3, r0
 8001b86:	f88d 303b 	strb.w	r3, [sp, #59]	; 0x3b
 8001b8a:	460b      	mov	r3, r1
 8001b8c:	f88d 303a 	strb.w	r3, [sp, #58]	; 0x3a
 8001b90:	4613      	mov	r3, r2
 8001b92:	f88d 3039 	strb.w	r3, [sp, #57]	; 0x39
 8001b96:	9b0f      	ldr	r3, [sp, #60]	; 0x3c
 8001b98:	4618      	mov	r0, r3
 8001b9a:	9915      	ldr	r1, [sp, #84]	; 0x54
 8001b9c:	9a18      	ldr	r2, [sp, #96]	; 0x60
 8001b9e:	f7fe fd5f 	bl	8000660 <TextLCD_Base::TextLCD_Base(TextLCD_Base::LCDType, TextLCD_Base::LCDCtrl)>
 8001ba2:	9b0f      	ldr	r3, [sp, #60]	; 0x3c
 8001ba4:	4a47      	ldr	r2, [pc, #284]	; (8001cc4 <TextLCD::TextLCD(PinName, PinName, PinName, PinName, PinName, PinName, TextLCD_Base::LCDType, PinName, PinName, TextLCD_Base::LCDCtrl)+0x14c>)
 8001ba6:	601a      	str	r2, [r3, #0]
 8001ba8:	9b0f      	ldr	r3, [sp, #60]	; 0x3c
 8001baa:	4a47      	ldr	r2, [pc, #284]	; (8001cc8 <TextLCD::TextLCD(PinName, PinName, PinName, PinName, PinName, PinName, TextLCD_Base::LCDType, PinName, PinName, TextLCD_Base::LCDCtrl)+0x150>)
 8001bac:	605a      	str	r2, [r3, #4]
 8001bae:	9b0f      	ldr	r3, [sp, #60]	; 0x3c
 8001bb0:	f103 0254 	add.w	r2, r3, #84	; 0x54
 8001bb4:	f99d 303b 	ldrsb.w	r3, [sp, #59]	; 0x3b
 8001bb8:	4610      	mov	r0, r2
 8001bba:	4619      	mov	r1, r3
 8001bbc:	f7fe fb74 	bl	80002a8 <mbed::DigitalOut::DigitalOut(PinName)>
 8001bc0:	9b0f      	ldr	r3, [sp, #60]	; 0x3c
 8001bc2:	f103 0268 	add.w	r2, r3, #104	; 0x68
 8001bc6:	f99d 303a 	ldrsb.w	r3, [sp, #58]	; 0x3a
 8001bca:	4610      	mov	r0, r2
 8001bcc:	4619      	mov	r1, r3
 8001bce:	f7fe fb6b 	bl	80002a8 <mbed::DigitalOut::DigitalOut(PinName)>
 8001bd2:	9b0f      	ldr	r3, [sp, #60]	; 0x3c
 8001bd4:	f103 007c 	add.w	r0, r3, #124	; 0x7c
 8001bd8:	f99d 1039 	ldrsb.w	r1, [sp, #57]	; 0x39
 8001bdc:	f99d 2048 	ldrsb.w	r2, [sp, #72]	; 0x48
 8001be0:	f99d 404c 	ldrsb.w	r4, [sp, #76]	; 0x4c
 8001be4:	f99d 3050 	ldrsb.w	r3, [sp, #80]	; 0x50
 8001be8:	9300      	str	r3, [sp, #0]
 8001bea:	f04f 33ff 	mov.w	r3, #4294967295
 8001bee:	9301      	str	r3, [sp, #4]
 8001bf0:	f04f 33ff 	mov.w	r3, #4294967295
 8001bf4:	9302      	str	r3, [sp, #8]
 8001bf6:	f04f 33ff 	mov.w	r3, #4294967295
 8001bfa:	9303      	str	r3, [sp, #12]
 8001bfc:	f04f 33ff 	mov.w	r3, #4294967295
 8001c00:	9304      	str	r3, [sp, #16]
 8001c02:	f04f 33ff 	mov.w	r3, #4294967295
 8001c06:	9305      	str	r3, [sp, #20]
 8001c08:	f04f 33ff 	mov.w	r3, #4294967295
 8001c0c:	9306      	str	r3, [sp, #24]
 8001c0e:	f04f 33ff 	mov.w	r3, #4294967295
 8001c12:	9307      	str	r3, [sp, #28]
 8001c14:	f04f 33ff 	mov.w	r3, #4294967295
 8001c18:	9308      	str	r3, [sp, #32]
 8001c1a:	f04f 33ff 	mov.w	r3, #4294967295
 8001c1e:	9309      	str	r3, [sp, #36]	; 0x24
 8001c20:	f04f 33ff 	mov.w	r3, #4294967295
 8001c24:	930a      	str	r3, [sp, #40]	; 0x28
 8001c26:	f04f 33ff 	mov.w	r3, #4294967295
 8001c2a:	930b      	str	r3, [sp, #44]	; 0x2c
 8001c2c:	f04f 33ff 	mov.w	r3, #4294967295
 8001c30:	930c      	str	r3, [sp, #48]	; 0x30
 8001c32:	4623      	mov	r3, r4
 8001c34:	f002 fa6e 	bl	8004114 <mbed::BusOut::BusOut(PinName, PinName, PinName, PinName, PinName, PinName, PinName, PinName, PinName, PinName, PinName, PinName, PinName, PinName, PinName, PinName)>
 8001c38:	f99d 3058 	ldrsb.w	r3, [sp, #88]	; 0x58
 8001c3c:	f1b3 3fff 	cmp.w	r3, #4294967295
 8001c40:	d014      	beq.n	8001c6c <TextLCD::TextLCD(PinName, PinName, PinName, PinName, PinName, PinName, TextLCD_Base::LCDType, PinName, PinName, TextLCD_Base::LCDCtrl)+0xf4>
 8001c42:	2014      	movs	r0, #20
 8001c44:	f003 f9ad 	bl	8004fa2 <operator new(unsigned int)>
 8001c48:	4604      	mov	r4, r0
 8001c4a:	f99d 3058 	ldrsb.w	r3, [sp, #88]	; 0x58
 8001c4e:	4620      	mov	r0, r4
 8001c50:	4619      	mov	r1, r3
 8001c52:	f7fe fb29 	bl	80002a8 <mbed::DigitalOut::DigitalOut(PinName)>
 8001c56:	9b0f      	ldr	r3, [sp, #60]	; 0x3c
 8001c58:	f8c3 40c4 	str.w	r4, [r3, #196]	; 0xc4
 8001c5c:	9b0f      	ldr	r3, [sp, #60]	; 0x3c
 8001c5e:	f8d3 30c4 	ldr.w	r3, [r3, #196]	; 0xc4
 8001c62:	4618      	mov	r0, r3
 8001c64:	2100      	movs	r1, #0
 8001c66:	f7fe fce1 	bl	800062c <mbed::DigitalOut::write(int)>
 8001c6a:	e003      	b.n	8001c74 <TextLCD::TextLCD(PinName, PinName, PinName, PinName, PinName, PinName, TextLCD_Base::LCDType, PinName, PinName, TextLCD_Base::LCDCtrl)+0xfc>
 8001c6c:	9b0f      	ldr	r3, [sp, #60]	; 0x3c
 8001c6e:	2200      	movs	r2, #0
 8001c70:	f8c3 20c4 	str.w	r2, [r3, #196]	; 0xc4
 8001c74:	f99d 305c 	ldrsb.w	r3, [sp, #92]	; 0x5c
 8001c78:	f1b3 3fff 	cmp.w	r3, #4294967295
 8001c7c:	d014      	beq.n	8001ca8 <TextLCD::TextLCD(PinName, PinName, PinName, PinName, PinName, PinName, TextLCD_Base::LCDType, PinName, PinName, TextLCD_Base::LCDCtrl)+0x130>
 8001c7e:	2014      	movs	r0, #20
 8001c80:	f003 f98f 	bl	8004fa2 <operator new(unsigned int)>
 8001c84:	4604      	mov	r4, r0
 8001c86:	f99d 305c 	ldrsb.w	r3, [sp, #92]	; 0x5c
 8001c8a:	4620      	mov	r0, r4
 8001c8c:	4619      	mov	r1, r3
 8001c8e:	f7fe fb0b 	bl	80002a8 <mbed::DigitalOut::DigitalOut(PinName)>
 8001c92:	9b0f      	ldr	r3, [sp, #60]	; 0x3c
 8001c94:	f8c3 40c8 	str.w	r4, [r3, #200]	; 0xc8
 8001c98:	9b0f      	ldr	r3, [sp, #60]	; 0x3c
 8001c9a:	f8d3 30c8 	ldr.w	r3, [r3, #200]	; 0xc8
 8001c9e:	4618      	mov	r0, r3
 8001ca0:	2100      	movs	r1, #0
 8001ca2:	f7fe fcc3 	bl	800062c <mbed::DigitalOut::write(int)>
 8001ca6:	e003      	b.n	8001cb0 <TextLCD::TextLCD(PinName, PinName, PinName, PinName, PinName, PinName, TextLCD_Base::LCDType, PinName, PinName, TextLCD_Base::LCDCtrl)+0x138>
 8001ca8:	9b0f      	ldr	r3, [sp, #60]	; 0x3c
 8001caa:	2200      	movs	r2, #0
 8001cac:	f8c3 20c8 	str.w	r2, [r3, #200]	; 0xc8
 8001cb0:	9b0f      	ldr	r3, [sp, #60]	; 0x3c
 8001cb2:	4618      	mov	r0, r3
 8001cb4:	2100      	movs	r1, #0
 8001cb6:	f7fe fd03 	bl	80006c0 <TextLCD_Base::_init(TextLCD_Base::_LCDDatalength)>
 8001cba:	9b0f      	ldr	r3, [sp, #60]	; 0x3c
 8001cbc:	4618      	mov	r0, r3
 8001cbe:	b010      	add	sp, #64	; 0x40
 8001cc0:	bd10      	pop	{r4, pc}
 8001cc2:	bf00      	nop
 8001cc4:	08007358 	.word	0x08007358
 8001cc8:	080073a0 	.word	0x080073a0

08001ccc <TextLCD::~TextLCD()>:
 8001ccc:	b500      	push	{lr}
 8001cce:	b083      	sub	sp, #12
 8001cd0:	9001      	str	r0, [sp, #4]
 8001cd2:	9b01      	ldr	r3, [sp, #4]
 8001cd4:	4a17      	ldr	r2, [pc, #92]	; (8001d34 <TextLCD::~TextLCD()+0x68>)
 8001cd6:	601a      	str	r2, [r3, #0]
 8001cd8:	9b01      	ldr	r3, [sp, #4]
 8001cda:	4a17      	ldr	r2, [pc, #92]	; (8001d38 <TextLCD::~TextLCD()+0x6c>)
 8001cdc:	605a      	str	r2, [r3, #4]
 8001cde:	9b01      	ldr	r3, [sp, #4]
 8001ce0:	f8d3 30c4 	ldr.w	r3, [r3, #196]	; 0xc4
 8001ce4:	2b00      	cmp	r3, #0
 8001ce6:	d005      	beq.n	8001cf4 <TextLCD::~TextLCD()+0x28>
 8001ce8:	9b01      	ldr	r3, [sp, #4]
 8001cea:	f8d3 30c4 	ldr.w	r3, [r3, #196]	; 0xc4
 8001cee:	4618      	mov	r0, r3
 8001cf0:	f003 f968 	bl	8004fc4 <operator delete(void*)>
 8001cf4:	9b01      	ldr	r3, [sp, #4]
 8001cf6:	f8d3 30c8 	ldr.w	r3, [r3, #200]	; 0xc8
 8001cfa:	2b00      	cmp	r3, #0
 8001cfc:	d005      	beq.n	8001d0a <TextLCD::~TextLCD()+0x3e>
 8001cfe:	9b01      	ldr	r3, [sp, #4]
 8001d00:	f8d3 30c8 	ldr.w	r3, [r3, #200]	; 0xc8
 8001d04:	4618      	mov	r0, r3
 8001d06:	f003 f95d 	bl	8004fc4 <operator delete(void*)>
 8001d0a:	9b01      	ldr	r3, [sp, #4]
 8001d0c:	337c      	adds	r3, #124	; 0x7c
 8001d0e:	4618      	mov	r0, r3
 8001d10:	f002 fa92 	bl	8004238 <mbed::BusOut::~BusOut()>
 8001d14:	9b01      	ldr	r3, [sp, #4]
 8001d16:	4618      	mov	r0, r3
 8001d18:	f7ff fefc 	bl	8001b14 <TextLCD_Base::~TextLCD_Base()>
 8001d1c:	2300      	movs	r3, #0
 8001d1e:	2b00      	cmp	r3, #0
 8001d20:	d002      	beq.n	8001d28 <TextLCD::~TextLCD()+0x5c>
 8001d22:	9801      	ldr	r0, [sp, #4]
 8001d24:	f003 f94e 	bl	8004fc4 <operator delete(void*)>
 8001d28:	9b01      	ldr	r3, [sp, #4]
 8001d2a:	4618      	mov	r0, r3
 8001d2c:	b003      	add	sp, #12
 8001d2e:	f85d fb04 	ldr.w	pc, [sp], #4
 8001d32:	bf00      	nop
 8001d34:	08007358 	.word	0x08007358
 8001d38:	080073a0 	.word	0x080073a0

08001d3c <non-virtual thunk to TextLCD::~TextLCD()>:
 8001d3c:	f1a0 0004 	sub.w	r0, r0, #4
 8001d40:	f7ff bfc4 	b.w	8001ccc <TextLCD::~TextLCD()>

08001d44 <TextLCD::~TextLCD()>:
 8001d44:	b500      	push	{lr}
 8001d46:	b083      	sub	sp, #12
 8001d48:	9001      	str	r0, [sp, #4]
 8001d4a:	9801      	ldr	r0, [sp, #4]
 8001d4c:	f7ff ffbe 	bl	8001ccc <TextLCD::~TextLCD()>
 8001d50:	9801      	ldr	r0, [sp, #4]
 8001d52:	f003 f937 	bl	8004fc4 <operator delete(void*)>
 8001d56:	9b01      	ldr	r3, [sp, #4]
 8001d58:	4618      	mov	r0, r3
 8001d5a:	b003      	add	sp, #12
 8001d5c:	f85d fb04 	ldr.w	pc, [sp], #4

08001d60 <non-virtual thunk to TextLCD::~TextLCD()>:
 8001d60:	f1a0 0004 	sub.w	r0, r0, #4
 8001d64:	f7ff bfee 	b.w	8001d44 <TextLCD::~TextLCD()>

08001d68 <TextLCD::_setEnable(bool)>:
 8001d68:	b500      	push	{lr}
 8001d6a:	b083      	sub	sp, #12
 8001d6c:	9001      	str	r0, [sp, #4]
 8001d6e:	460b      	mov	r3, r1
 8001d70:	f88d 3003 	strb.w	r3, [sp, #3]
 8001d74:	9b01      	ldr	r3, [sp, #4]
 8001d76:	f893 3030 	ldrb.w	r3, [r3, #48]	; 0x30
 8001d7a:	2b00      	cmp	r3, #0
 8001d7c:	d111      	bne.n	8001da2 <TextLCD::_setEnable(bool)+0x3a>
 8001d7e:	f89d 3003 	ldrb.w	r3, [sp, #3]
 8001d82:	2b00      	cmp	r3, #0
 8001d84:	d006      	beq.n	8001d94 <TextLCD::_setEnable(bool)+0x2c>
 8001d86:	9b01      	ldr	r3, [sp, #4]
 8001d88:	3368      	adds	r3, #104	; 0x68
 8001d8a:	4618      	mov	r0, r3
 8001d8c:	2101      	movs	r1, #1
 8001d8e:	f7fe fc59 	bl	8000644 <mbed::DigitalOut::operator=(int)>
 8001d92:	e023      	b.n	8001ddc <TextLCD::_setEnable(bool)+0x74>
 8001d94:	9b01      	ldr	r3, [sp, #4]
 8001d96:	3368      	adds	r3, #104	; 0x68
 8001d98:	4618      	mov	r0, r3
 8001d9a:	2100      	movs	r1, #0
 8001d9c:	f7fe fc52 	bl	8000644 <mbed::DigitalOut::operator=(int)>
 8001da0:	e01c      	b.n	8001ddc <TextLCD::_setEnable(bool)+0x74>
 8001da2:	f89d 3003 	ldrb.w	r3, [sp, #3]
 8001da6:	2b00      	cmp	r3, #0
 8001da8:	d00c      	beq.n	8001dc4 <TextLCD::_setEnable(bool)+0x5c>
 8001daa:	9b01      	ldr	r3, [sp, #4]
 8001dac:	f8d3 30c8 	ldr.w	r3, [r3, #200]	; 0xc8
 8001db0:	2b00      	cmp	r3, #0
 8001db2:	d013      	beq.n	8001ddc <TextLCD::_setEnable(bool)+0x74>
 8001db4:	9b01      	ldr	r3, [sp, #4]
 8001db6:	f8d3 30c8 	ldr.w	r3, [r3, #200]	; 0xc8
 8001dba:	4618      	mov	r0, r3
 8001dbc:	2101      	movs	r1, #1
 8001dbe:	f7fe fc35 	bl	800062c <mbed::DigitalOut::write(int)>
 8001dc2:	e00b      	b.n	8001ddc <TextLCD::_setEnable(bool)+0x74>
 8001dc4:	9b01      	ldr	r3, [sp, #4]
 8001dc6:	f8d3 30c8 	ldr.w	r3, [r3, #200]	; 0xc8
 8001dca:	2b00      	cmp	r3, #0
 8001dcc:	d006      	beq.n	8001ddc <TextLCD::_setEnable(bool)+0x74>
 8001dce:	9b01      	ldr	r3, [sp, #4]
 8001dd0:	f8d3 30c8 	ldr.w	r3, [r3, #200]	; 0xc8
 8001dd4:	4618      	mov	r0, r3
 8001dd6:	2100      	movs	r1, #0
 8001dd8:	f7fe fc28 	bl	800062c <mbed::DigitalOut::write(int)>
 8001ddc:	b003      	add	sp, #12
 8001dde:	f85d fb04 	ldr.w	pc, [sp], #4
 8001de2:	bf00      	nop

08001de4 <TextLCD::_setRS(bool)>:
 8001de4:	b500      	push	{lr}
 8001de6:	b083      	sub	sp, #12
 8001de8:	9001      	str	r0, [sp, #4]
 8001dea:	460b      	mov	r3, r1
 8001dec:	f88d 3003 	strb.w	r3, [sp, #3]
 8001df0:	f89d 3003 	ldrb.w	r3, [sp, #3]
 8001df4:	2b00      	cmp	r3, #0
 8001df6:	d006      	beq.n	8001e06 <TextLCD::_setRS(bool)+0x22>
 8001df8:	9b01      	ldr	r3, [sp, #4]
 8001dfa:	3354      	adds	r3, #84	; 0x54
 8001dfc:	4618      	mov	r0, r3
 8001dfe:	2101      	movs	r1, #1
 8001e00:	f7fe fc20 	bl	8000644 <mbed::DigitalOut::operator=(int)>
 8001e04:	e005      	b.n	8001e12 <TextLCD::_setRS(bool)+0x2e>
 8001e06:	9b01      	ldr	r3, [sp, #4]
 8001e08:	3354      	adds	r3, #84	; 0x54
 8001e0a:	4618      	mov	r0, r3
 8001e0c:	2100      	movs	r1, #0
 8001e0e:	f7fe fc19 	bl	8000644 <mbed::DigitalOut::operator=(int)>
 8001e12:	b003      	add	sp, #12
 8001e14:	f85d fb04 	ldr.w	pc, [sp], #4

08001e18 <TextLCD::_setBL(bool)>:
 8001e18:	b500      	push	{lr}
 8001e1a:	b083      	sub	sp, #12
 8001e1c:	9001      	str	r0, [sp, #4]
 8001e1e:	460b      	mov	r3, r1
 8001e20:	f88d 3003 	strb.w	r3, [sp, #3]
 8001e24:	f89d 3003 	ldrb.w	r3, [sp, #3]
 8001e28:	2b00      	cmp	r3, #0
 8001e2a:	d00c      	beq.n	8001e46 <TextLCD::_setBL(bool)+0x2e>
 8001e2c:	9b01      	ldr	r3, [sp, #4]
 8001e2e:	f8d3 30c4 	ldr.w	r3, [r3, #196]	; 0xc4
 8001e32:	2b00      	cmp	r3, #0
 8001e34:	d013      	beq.n	8001e5e <TextLCD::_setBL(bool)+0x46>
 8001e36:	9b01      	ldr	r3, [sp, #4]
 8001e38:	f8d3 30c4 	ldr.w	r3, [r3, #196]	; 0xc4
 8001e3c:	4618      	mov	r0, r3
 8001e3e:	2101      	movs	r1, #1
 8001e40:	f7fe fbf4 	bl	800062c <mbed::DigitalOut::write(int)>
 8001e44:	e00b      	b.n	8001e5e <TextLCD::_setBL(bool)+0x46>
 8001e46:	9b01      	ldr	r3, [sp, #4]
 8001e48:	f8d3 30c4 	ldr.w	r3, [r3, #196]	; 0xc4
 8001e4c:	2b00      	cmp	r3, #0
 8001e4e:	d006      	beq.n	8001e5e <TextLCD::_setBL(bool)+0x46>
 8001e50:	9b01      	ldr	r3, [sp, #4]
 8001e52:	f8d3 30c4 	ldr.w	r3, [r3, #196]	; 0xc4
 8001e56:	4618      	mov	r0, r3
 8001e58:	2100      	movs	r1, #0
 8001e5a:	f7fe fbe7 	bl	800062c <mbed::DigitalOut::write(int)>
 8001e5e:	b003      	add	sp, #12
 8001e60:	f85d fb04 	ldr.w	pc, [sp], #4

08001e64 <TextLCD::_setData(int)>:
 8001e64:	b500      	push	{lr}
 8001e66:	b083      	sub	sp, #12
 8001e68:	9001      	str	r0, [sp, #4]
 8001e6a:	9100      	str	r1, [sp, #0]
 8001e6c:	9b01      	ldr	r3, [sp, #4]
 8001e6e:	f103 027c 	add.w	r2, r3, #124	; 0x7c
 8001e72:	9b00      	ldr	r3, [sp, #0]
 8001e74:	f003 030f 	and.w	r3, r3, #15
 8001e78:	4610      	mov	r0, r2
 8001e7a:	4619      	mov	r1, r3
 8001e7c:	f002 fa3c 	bl	80042f8 <mbed::BusOut::operator=(int)>
 8001e80:	b003      	add	sp, #12
 8001e82:	f85d fb04 	ldr.w	pc, [sp], #4
 8001e86:	bf00      	nop

08001e88 <_start>:
 8001e88:	b500      	push	{lr}
 8001e8a:	b083      	sub	sp, #12
 8001e8c:	4a09      	ldr	r2, [pc, #36]	; (8001eb4 <_start+0x2c>)
 8001e8e:	4b0a      	ldr	r3, [pc, #40]	; (8001eb8 <_start+0x30>)
 8001e90:	1ad3      	subs	r3, r2, r3
 8001e92:	9301      	str	r3, [sp, #4]
 8001e94:	9b01      	ldr	r3, [sp, #4]
 8001e96:	4808      	ldr	r0, [pc, #32]	; (8001eb8 <_start+0x30>)
 8001e98:	2100      	movs	r1, #0
 8001e9a:	461a      	mov	r2, r3
 8001e9c:	f003 fc51 	bl	8005742 <memset>
 8001ea0:	f3af 8000 	nop.w
 8001ea4:	f003 fb94 	bl	80055d0 <__libc_init_array>
 8001ea8:	f002 fe30 	bl	8004b0c <__wrap_main>
 8001eac:	9000      	str	r0, [sp, #0]
 8001eae:	9800      	ldr	r0, [sp, #0]
 8001eb0:	f003 f8ac 	bl	800500c <exit>
 8001eb4:	20000664 	.word	0x20000664
 8001eb8:	20000218 	.word	0x20000218

08001ebc <__wrap__isatty>:
 8001ebc:	b500      	push	{lr}
 8001ebe:	b083      	sub	sp, #12
 8001ec0:	9001      	str	r0, [sp, #4]
 8001ec2:	9b01      	ldr	r3, [sp, #4]
 8001ec4:	2b02      	cmp	r3, #2
 8001ec6:	dc01      	bgt.n	8001ecc <__wrap__isatty+0x10>
 8001ec8:	2301      	movs	r3, #1
 8001eca:	e003      	b.n	8001ed4 <__wrap__isatty+0x18>
 8001ecc:	9801      	ldr	r0, [sp, #4]
 8001ece:	f002 fdb5 	bl	8004a3c <_isatty>
 8001ed2:	4603      	mov	r3, r0
 8001ed4:	4618      	mov	r0, r3
 8001ed6:	b003      	add	sp, #12
 8001ed8:	f85d fb04 	ldr.w	pc, [sp], #4

08001edc <breakOnHeapOpFromInterruptHandler>:
 8001edc:	b082      	sub	sp, #8
 8001ede:	f3ef 8305 	mrs	r3, IPSR
 8001ee2:	9301      	str	r3, [sp, #4]
 8001ee4:	9b01      	ldr	r3, [sp, #4]
 8001ee6:	2b00      	cmp	r3, #0
 8001ee8:	d000      	beq.n	8001eec <breakOnHeapOpFromInterruptHandler+0x10>
 8001eea:	be00      	bkpt	0x0000
 8001eec:	b002      	add	sp, #8
 8001eee:	4770      	bx	lr

08001ef0 <__wrap_malloc>:
 8001ef0:	b500      	push	{lr}
 8001ef2:	b083      	sub	sp, #12
 8001ef4:	9001      	str	r0, [sp, #4]
 8001ef6:	f7ff fff1 	bl	8001edc <breakOnHeapOpFromInterruptHandler>
 8001efa:	9801      	ldr	r0, [sp, #4]
 8001efc:	f003 fbdc 	bl	80056b8 <malloc>
 8001f00:	4603      	mov	r3, r0
 8001f02:	4618      	mov	r0, r3
 8001f04:	b003      	add	sp, #12
 8001f06:	f85d fb04 	ldr.w	pc, [sp], #4
 8001f0a:	bf00      	nop

08001f0c <__wrap_free>:
 8001f0c:	b500      	push	{lr}
 8001f0e:	b083      	sub	sp, #12
 8001f10:	9001      	str	r0, [sp, #4]
 8001f12:	f7ff ffe3 	bl	8001edc <breakOnHeapOpFromInterruptHandler>
 8001f16:	9801      	ldr	r0, [sp, #4]
 8001f18:	f003 fbd6 	bl	80056c8 <free>
 8001f1c:	b003      	add	sp, #12
 8001f1e:	f85d fb04 	ldr.w	pc, [sp], #4
 8001f22:	bf00      	nop

08001f24 <abort>:
 8001f24:	b508      	push	{r3, lr}
 8001f26:	2001      	movs	r0, #1
 8001f28:	f003 f870 	bl	800500c <exit>

08001f2c <__cxa_pure_virtual>:
 8001f2c:	b508      	push	{r3, lr}
 8001f2e:	f7ff fff9 	bl	8001f24 <abort>
 8001f32:	bf00      	nop

08001f34 <mbed_assert_internal>:
 8001f34:	b500      	push	{lr}
 8001f36:	b087      	sub	sp, #28
 8001f38:	9005      	str	r0, [sp, #20]
 8001f3a:	9104      	str	r1, [sp, #16]
 8001f3c:	9203      	str	r2, [sp, #12]
 8001f3e:	4b08      	ldr	r3, [pc, #32]	; (8001f60 <mbed_assert_internal+0x2c>)
 8001f40:	681b      	ldr	r3, [r3, #0]
 8001f42:	68da      	ldr	r2, [r3, #12]
 8001f44:	9b03      	ldr	r3, [sp, #12]
 8001f46:	9300      	str	r3, [sp, #0]
 8001f48:	4610      	mov	r0, r2
 8001f4a:	4906      	ldr	r1, [pc, #24]	; (8001f64 <mbed_assert_internal+0x30>)
 8001f4c:	9a05      	ldr	r2, [sp, #20]
 8001f4e:	9b04      	ldr	r3, [sp, #16]
 8001f50:	f003 fa80 	bl	8005454 <fiprintf>
 8001f54:	f000 f808 	bl	8001f68 <mbed_die>
 8001f58:	b007      	add	sp, #28
 8001f5a:	f85d fb04 	ldr.w	pc, [sp], #4
 8001f5e:	bf00      	nop
 8001f60:	20000200 	.word	0x20000200
 8001f64:	08007400 	.word	0x08007400

08001f68 <mbed_die>:
 8001f68:	b508      	push	{r3, lr}
 8001f6a:	b672      	cpsid	i
 8001f6c:	2096      	movs	r0, #150	; 0x96
 8001f6e:	f000 f9b1 	bl	80022d4 <wait_ms>
 8001f72:	2096      	movs	r0, #150	; 0x96
 8001f74:	f000 f9ae 	bl	80022d4 <wait_ms>
 8001f78:	e7f8      	b.n	8001f6c <mbed_die+0x4>
 8001f7a:	bf00      	nop

08001f7c <error>:
 8001f7c:	b40f      	push	{r0, r1, r2, r3}
 8001f7e:	b500      	push	{lr}
 8001f80:	b083      	sub	sp, #12
 8001f82:	ab05      	add	r3, sp, #20
 8001f84:	9301      	str	r3, [sp, #4]
 8001f86:	4b05      	ldr	r3, [pc, #20]	; (8001f9c <error+0x20>)
 8001f88:	681b      	ldr	r3, [r3, #0]
 8001f8a:	68db      	ldr	r3, [r3, #12]
 8001f8c:	4618      	mov	r0, r3
 8001f8e:	9904      	ldr	r1, [sp, #16]
 8001f90:	9a01      	ldr	r2, [sp, #4]
 8001f92:	f003 fda9 	bl	8005ae8 <vfiprintf>
 8001f96:	2001      	movs	r0, #1
 8001f98:	f003 f838 	bl	800500c <exit>
 8001f9c:	20000200 	.word	0x20000200

08001fa0 <gpio_write>:
 8001fa0:	b500      	push	{lr}
 8001fa2:	b083      	sub	sp, #12
 8001fa4:	9001      	str	r0, [sp, #4]
 8001fa6:	9100      	str	r1, [sp, #0]
 8001fa8:	9b01      	ldr	r3, [sp, #4]
 8001faa:	781b      	ldrb	r3, [r3, #0]
 8001fac:	b25b      	sxtb	r3, r3
 8001fae:	f1b3 3fff 	cmp.w	r3, #4294967295
 8001fb2:	d104      	bne.n	8001fbe <gpio_write+0x1e>
 8001fb4:	480b      	ldr	r0, [pc, #44]	; (8001fe4 <gpio_write+0x44>)
 8001fb6:	490c      	ldr	r1, [pc, #48]	; (8001fe8 <gpio_write+0x48>)
 8001fb8:	2235      	movs	r2, #53	; 0x35
 8001fba:	f7ff ffbb 	bl	8001f34 <mbed_assert_internal>
 8001fbe:	9b00      	ldr	r3, [sp, #0]
 8001fc0:	2b00      	cmp	r3, #0
 8001fc2:	d006      	beq.n	8001fd2 <gpio_write+0x32>
 8001fc4:	9b01      	ldr	r3, [sp, #4]
 8001fc6:	68db      	ldr	r3, [r3, #12]
 8001fc8:	9a01      	ldr	r2, [sp, #4]
 8001fca:	6852      	ldr	r2, [r2, #4]
 8001fcc:	b292      	uxth	r2, r2
 8001fce:	801a      	strh	r2, [r3, #0]
 8001fd0:	e005      	b.n	8001fde <gpio_write+0x3e>
 8001fd2:	9b01      	ldr	r3, [sp, #4]
 8001fd4:	691b      	ldr	r3, [r3, #16]
 8001fd6:	9a01      	ldr	r2, [sp, #4]
 8001fd8:	6852      	ldr	r2, [r2, #4]
 8001fda:	b292      	uxth	r2, r2
 8001fdc:	801a      	strh	r2, [r3, #0]
 8001fde:	b003      	add	sp, #12
 8001fe0:	f85d fb04 	ldr.w	pc, [sp], #4
 8001fe4:	08007434 	.word	0x08007434
 8001fe8:	0800744c 	.word	0x0800744c

08001fec <_gpio_init_in>:
 8001fec:	b500      	push	{lr}
 8001fee:	b083      	sub	sp, #12
 8001ff0:	9001      	str	r0, [sp, #4]
 8001ff2:	460b      	mov	r3, r1
 8001ff4:	f88d 3003 	strb.w	r3, [sp, #3]
 8001ff8:	4613      	mov	r3, r2
 8001ffa:	f88d 3002 	strb.w	r3, [sp, #2]
 8001ffe:	f99d 3003 	ldrsb.w	r3, [sp, #3]
 8002002:	9801      	ldr	r0, [sp, #4]
 8002004:	4619      	mov	r1, r3
 8002006:	f001 fd55 	bl	8003ab4 <gpio_init>
 800200a:	f99d 3003 	ldrsb.w	r3, [sp, #3]
 800200e:	f1b3 3fff 	cmp.w	r3, #4294967295
 8002012:	d009      	beq.n	8002028 <_gpio_init_in+0x3c>
 8002014:	9801      	ldr	r0, [sp, #4]
 8002016:	2100      	movs	r1, #0
 8002018:	f001 fd94 	bl	8003b44 <gpio_dir>
 800201c:	f89d 3002 	ldrb.w	r3, [sp, #2]
 8002020:	9801      	ldr	r0, [sp, #4]
 8002022:	4619      	mov	r1, r3
 8002024:	f001 fd7c 	bl	8003b20 <gpio_mode>
 8002028:	b003      	add	sp, #12
 800202a:	f85d fb04 	ldr.w	pc, [sp], #4
 800202e:	bf00      	nop

08002030 <_gpio_init_out>:
 8002030:	b500      	push	{lr}
 8002032:	b085      	sub	sp, #20
 8002034:	9003      	str	r0, [sp, #12]
 8002036:	9301      	str	r3, [sp, #4]
 8002038:	460b      	mov	r3, r1
 800203a:	f88d 300b 	strb.w	r3, [sp, #11]
 800203e:	4613      	mov	r3, r2
 8002040:	f88d 300a 	strb.w	r3, [sp, #10]
 8002044:	f99d 300b 	ldrsb.w	r3, [sp, #11]
 8002048:	9803      	ldr	r0, [sp, #12]
 800204a:	4619      	mov	r1, r3
 800204c:	f001 fd32 	bl	8003ab4 <gpio_init>
 8002050:	f99d 300b 	ldrsb.w	r3, [sp, #11]
 8002054:	f1b3 3fff 	cmp.w	r3, #4294967295
 8002058:	d00d      	beq.n	8002076 <_gpio_init_out+0x46>
 800205a:	9803      	ldr	r0, [sp, #12]
 800205c:	9901      	ldr	r1, [sp, #4]
 800205e:	f7ff ff9f 	bl	8001fa0 <gpio_write>
 8002062:	9803      	ldr	r0, [sp, #12]
 8002064:	2101      	movs	r1, #1
 8002066:	f001 fd6d 	bl	8003b44 <gpio_dir>
 800206a:	f89d 300a 	ldrb.w	r3, [sp, #10]
 800206e:	9803      	ldr	r0, [sp, #12]
 8002070:	4619      	mov	r1, r3
 8002072:	f001 fd55 	bl	8003b20 <gpio_mode>
 8002076:	b005      	add	sp, #20
 8002078:	f85d fb04 	ldr.w	pc, [sp], #4

0800207c <gpio_init_in>:
 800207c:	b500      	push	{lr}
 800207e:	b083      	sub	sp, #12
 8002080:	9001      	str	r0, [sp, #4]
 8002082:	460b      	mov	r3, r1
 8002084:	f88d 3003 	strb.w	r3, [sp, #3]
 8002088:	f99d 3003 	ldrsb.w	r3, [sp, #3]
 800208c:	9801      	ldr	r0, [sp, #4]
 800208e:	4619      	mov	r1, r3
 8002090:	2200      	movs	r2, #0
 8002092:	f000 f803 	bl	800209c <gpio_init_in_ex>
 8002096:	b003      	add	sp, #12
 8002098:	f85d fb04 	ldr.w	pc, [sp], #4

0800209c <gpio_init_in_ex>:
 800209c:	b500      	push	{lr}
 800209e:	b083      	sub	sp, #12
 80020a0:	9001      	str	r0, [sp, #4]
 80020a2:	460b      	mov	r3, r1
 80020a4:	f88d 3003 	strb.w	r3, [sp, #3]
 80020a8:	4613      	mov	r3, r2
 80020aa:	f88d 3002 	strb.w	r3, [sp, #2]
 80020ae:	f99d 2003 	ldrsb.w	r2, [sp, #3]
 80020b2:	f89d 3002 	ldrb.w	r3, [sp, #2]
 80020b6:	9801      	ldr	r0, [sp, #4]
 80020b8:	4611      	mov	r1, r2
 80020ba:	461a      	mov	r2, r3
 80020bc:	f7ff ff96 	bl	8001fec <_gpio_init_in>
 80020c0:	b003      	add	sp, #12
 80020c2:	f85d fb04 	ldr.w	pc, [sp], #4
 80020c6:	bf00      	nop

080020c8 <gpio_init_out>:
 80020c8:	b500      	push	{lr}
 80020ca:	b083      	sub	sp, #12
 80020cc:	9001      	str	r0, [sp, #4]
 80020ce:	460b      	mov	r3, r1
 80020d0:	f88d 3003 	strb.w	r3, [sp, #3]
 80020d4:	f99d 3003 	ldrsb.w	r3, [sp, #3]
 80020d8:	9801      	ldr	r0, [sp, #4]
 80020da:	4619      	mov	r1, r3
 80020dc:	2200      	movs	r2, #0
 80020de:	f000 f803 	bl	80020e8 <gpio_init_out_ex>
 80020e2:	b003      	add	sp, #12
 80020e4:	f85d fb04 	ldr.w	pc, [sp], #4

080020e8 <gpio_init_out_ex>:
 80020e8:	b500      	push	{lr}
 80020ea:	b085      	sub	sp, #20
 80020ec:	9003      	str	r0, [sp, #12]
 80020ee:	460b      	mov	r3, r1
 80020f0:	9201      	str	r2, [sp, #4]
 80020f2:	f88d 300b 	strb.w	r3, [sp, #11]
 80020f6:	f99d 300b 	ldrsb.w	r3, [sp, #11]
 80020fa:	9803      	ldr	r0, [sp, #12]
 80020fc:	4619      	mov	r1, r3
 80020fe:	2200      	movs	r2, #0
 8002100:	9b01      	ldr	r3, [sp, #4]
 8002102:	f7ff ff95 	bl	8002030 <_gpio_init_out>
 8002106:	b005      	add	sp, #20
 8002108:	f85d fb04 	ldr.w	pc, [sp], #4

0800210c <pinmap_pinout>:
 800210c:	b500      	push	{lr}
 800210e:	b083      	sub	sp, #12
 8002110:	4603      	mov	r3, r0
 8002112:	9100      	str	r1, [sp, #0]
 8002114:	f88d 3007 	strb.w	r3, [sp, #7]
 8002118:	f99d 3007 	ldrsb.w	r3, [sp, #7]
 800211c:	f1b3 3fff 	cmp.w	r3, #4294967295
 8002120:	d100      	bne.n	8002124 <pinmap_pinout+0x18>
 8002122:	e022      	b.n	800216a <pinmap_pinout+0x5e>
 8002124:	e018      	b.n	8002158 <pinmap_pinout+0x4c>
 8002126:	9b00      	ldr	r3, [sp, #0]
 8002128:	781b      	ldrb	r3, [r3, #0]
 800212a:	f99d 2007 	ldrsb.w	r2, [sp, #7]
 800212e:	b25b      	sxtb	r3, r3
 8002130:	429a      	cmp	r2, r3
 8002132:	d10e      	bne.n	8002152 <pinmap_pinout+0x46>
 8002134:	9b00      	ldr	r3, [sp, #0]
 8002136:	689b      	ldr	r3, [r3, #8]
 8002138:	f99d 2007 	ldrsb.w	r2, [sp, #7]
 800213c:	4610      	mov	r0, r2
 800213e:	4619      	mov	r1, r3
 8002140:	f001 fd9e 	bl	8003c80 <pin_function>
 8002144:	f99d 3007 	ldrsb.w	r3, [sp, #7]
 8002148:	4618      	mov	r0, r3
 800214a:	2100      	movs	r1, #0
 800214c:	f001 fde6 	bl	8003d1c <pin_mode>
 8002150:	e00b      	b.n	800216a <pinmap_pinout+0x5e>
 8002152:	9b00      	ldr	r3, [sp, #0]
 8002154:	330c      	adds	r3, #12
 8002156:	9300      	str	r3, [sp, #0]
 8002158:	9b00      	ldr	r3, [sp, #0]
 800215a:	781b      	ldrb	r3, [r3, #0]
 800215c:	b25b      	sxtb	r3, r3
 800215e:	f1b3 3fff 	cmp.w	r3, #4294967295
 8002162:	d1e0      	bne.n	8002126 <pinmap_pinout+0x1a>
 8002164:	4802      	ldr	r0, [pc, #8]	; (8002170 <pinmap_pinout+0x64>)
 8002166:	f7ff ff09 	bl	8001f7c <error>
 800216a:	b003      	add	sp, #12
 800216c:	f85d fb04 	ldr.w	pc, [sp], #4
 8002170:	080074a4 	.word	0x080074a4

08002174 <pinmap_merge>:
 8002174:	b500      	push	{lr}
 8002176:	b083      	sub	sp, #12
 8002178:	9001      	str	r0, [sp, #4]
 800217a:	9100      	str	r1, [sp, #0]
 800217c:	9a01      	ldr	r2, [sp, #4]
 800217e:	9b00      	ldr	r3, [sp, #0]
 8002180:	429a      	cmp	r2, r3
 8002182:	d101      	bne.n	8002188 <pinmap_merge+0x14>
 8002184:	9b01      	ldr	r3, [sp, #4]
 8002186:	e010      	b.n	80021aa <pinmap_merge+0x36>
 8002188:	9b01      	ldr	r3, [sp, #4]
 800218a:	f1b3 3fff 	cmp.w	r3, #4294967295
 800218e:	d101      	bne.n	8002194 <pinmap_merge+0x20>
 8002190:	9b00      	ldr	r3, [sp, #0]
 8002192:	e00a      	b.n	80021aa <pinmap_merge+0x36>
 8002194:	9b00      	ldr	r3, [sp, #0]
 8002196:	f1b3 3fff 	cmp.w	r3, #4294967295
 800219a:	d101      	bne.n	80021a0 <pinmap_merge+0x2c>
 800219c:	9b01      	ldr	r3, [sp, #4]
 800219e:	e004      	b.n	80021aa <pinmap_merge+0x36>
 80021a0:	4804      	ldr	r0, [pc, #16]	; (80021b4 <pinmap_merge+0x40>)
 80021a2:	f7ff feeb 	bl	8001f7c <error>
 80021a6:	f04f 33ff 	mov.w	r3, #4294967295
 80021aa:	4618      	mov	r0, r3
 80021ac:	b003      	add	sp, #12
 80021ae:	f85d fb04 	ldr.w	pc, [sp], #4
 80021b2:	bf00      	nop
 80021b4:	080074b8 	.word	0x080074b8

080021b8 <pinmap_find_peripheral>:
 80021b8:	b082      	sub	sp, #8
 80021ba:	4603      	mov	r3, r0
 80021bc:	9100      	str	r1, [sp, #0]
 80021be:	f88d 3007 	strb.w	r3, [sp, #7]
 80021c2:	e00c      	b.n	80021de <pinmap_find_peripheral+0x26>
 80021c4:	9b00      	ldr	r3, [sp, #0]
 80021c6:	781b      	ldrb	r3, [r3, #0]
 80021c8:	f99d 2007 	ldrsb.w	r2, [sp, #7]
 80021cc:	b25b      	sxtb	r3, r3
 80021ce:	429a      	cmp	r2, r3
 80021d0:	d102      	bne.n	80021d8 <pinmap_find_peripheral+0x20>
 80021d2:	9b00      	ldr	r3, [sp, #0]
 80021d4:	685b      	ldr	r3, [r3, #4]
 80021d6:	e00a      	b.n	80021ee <pinmap_find_peripheral+0x36>
 80021d8:	9b00      	ldr	r3, [sp, #0]
 80021da:	330c      	adds	r3, #12
 80021dc:	9300      	str	r3, [sp, #0]
 80021de:	9b00      	ldr	r3, [sp, #0]
 80021e0:	781b      	ldrb	r3, [r3, #0]
 80021e2:	b25b      	sxtb	r3, r3
 80021e4:	f1b3 3fff 	cmp.w	r3, #4294967295
 80021e8:	d1ec      	bne.n	80021c4 <pinmap_find_peripheral+0xc>
 80021ea:	f04f 33ff 	mov.w	r3, #4294967295
 80021ee:	4618      	mov	r0, r3
 80021f0:	b002      	add	sp, #8
 80021f2:	4770      	bx	lr

080021f4 <pinmap_peripheral>:
 80021f4:	b500      	push	{lr}
 80021f6:	b085      	sub	sp, #20
 80021f8:	4603      	mov	r3, r0
 80021fa:	9100      	str	r1, [sp, #0]
 80021fc:	f88d 3007 	strb.w	r3, [sp, #7]
 8002200:	f04f 33ff 	mov.w	r3, #4294967295
 8002204:	9303      	str	r3, [sp, #12]
 8002206:	f99d 3007 	ldrsb.w	r3, [sp, #7]
 800220a:	f1b3 3fff 	cmp.w	r3, #4294967295
 800220e:	d102      	bne.n	8002216 <pinmap_peripheral+0x22>
 8002210:	f04f 33ff 	mov.w	r3, #4294967295
 8002214:	e00e      	b.n	8002234 <pinmap_peripheral+0x40>
 8002216:	f99d 3007 	ldrsb.w	r3, [sp, #7]
 800221a:	4618      	mov	r0, r3
 800221c:	9900      	ldr	r1, [sp, #0]
 800221e:	f7ff ffcb 	bl	80021b8 <pinmap_find_peripheral>
 8002222:	9003      	str	r0, [sp, #12]
 8002224:	9b03      	ldr	r3, [sp, #12]
 8002226:	f1b3 3fff 	cmp.w	r3, #4294967295
 800222a:	d102      	bne.n	8002232 <pinmap_peripheral+0x3e>
 800222c:	4803      	ldr	r0, [pc, #12]	; (800223c <pinmap_peripheral+0x48>)
 800222e:	f7ff fea5 	bl	8001f7c <error>
 8002232:	9b03      	ldr	r3, [sp, #12]
 8002234:	4618      	mov	r0, r3
 8002236:	b005      	add	sp, #20
 8002238:	f85d fb04 	ldr.w	pc, [sp], #4
 800223c:	080074cc 	.word	0x080074cc

08002240 <us_ticker_irq_handler>:
 8002240:	b510      	push	{r4, lr}
 8002242:	b082      	sub	sp, #8
 8002244:	f001 ff5e 	bl	8004104 <us_ticker_clear_interrupt>
 8002248:	4b16      	ldr	r3, [pc, #88]	; (80022a4 <us_ticker_irq_handler+0x64>)
 800224a:	681b      	ldr	r3, [r3, #0]
 800224c:	2b00      	cmp	r3, #0
 800224e:	d102      	bne.n	8002256 <us_ticker_irq_handler+0x16>
 8002250:	f001 ff4c 	bl	80040ec <us_ticker_disable_interrupt>
 8002254:	e024      	b.n	80022a0 <us_ticker_irq_handler+0x60>
 8002256:	4b13      	ldr	r3, [pc, #76]	; (80022a4 <us_ticker_irq_handler+0x64>)
 8002258:	681b      	ldr	r3, [r3, #0]
 800225a:	681c      	ldr	r4, [r3, #0]
 800225c:	f001 ff24 	bl	80040a8 <us_ticker_read>
 8002260:	4603      	mov	r3, r0
 8002262:	1ae3      	subs	r3, r4, r3
 8002264:	2b00      	cmp	r3, #0
 8002266:	dc13      	bgt.n	8002290 <us_ticker_irq_handler+0x50>
 8002268:	4b0e      	ldr	r3, [pc, #56]	; (80022a4 <us_ticker_irq_handler+0x64>)
 800226a:	681b      	ldr	r3, [r3, #0]
 800226c:	9301      	str	r3, [sp, #4]
 800226e:	4b0d      	ldr	r3, [pc, #52]	; (80022a4 <us_ticker_irq_handler+0x64>)
 8002270:	681b      	ldr	r3, [r3, #0]
 8002272:	689b      	ldr	r3, [r3, #8]
 8002274:	4a0b      	ldr	r2, [pc, #44]	; (80022a4 <us_ticker_irq_handler+0x64>)
 8002276:	6013      	str	r3, [r2, #0]
 8002278:	4b0b      	ldr	r3, [pc, #44]	; (80022a8 <us_ticker_irq_handler+0x68>)
 800227a:	681b      	ldr	r3, [r3, #0]
 800227c:	2b00      	cmp	r3, #0
 800227e:	d006      	beq.n	800228e <us_ticker_irq_handler+0x4e>
 8002280:	4b09      	ldr	r3, [pc, #36]	; (80022a8 <us_ticker_irq_handler+0x68>)
 8002282:	681b      	ldr	r3, [r3, #0]
 8002284:	9a01      	ldr	r2, [sp, #4]
 8002286:	6852      	ldr	r2, [r2, #4]
 8002288:	4610      	mov	r0, r2
 800228a:	4798      	blx	r3
 800228c:	e007      	b.n	800229e <us_ticker_irq_handler+0x5e>
 800228e:	e006      	b.n	800229e <us_ticker_irq_handler+0x5e>
 8002290:	4b04      	ldr	r3, [pc, #16]	; (80022a4 <us_ticker_irq_handler+0x64>)
 8002292:	681b      	ldr	r3, [r3, #0]
 8002294:	681b      	ldr	r3, [r3, #0]
 8002296:	4618      	mov	r0, r3
 8002298:	f001 ff16 	bl	80040c8 <us_ticker_set_interrupt>
 800229c:	e000      	b.n	80022a0 <us_ticker_irq_handler+0x60>
 800229e:	e7d3      	b.n	8002248 <us_ticker_irq_handler+0x8>
 80022a0:	b002      	add	sp, #8
 80022a2:	bd10      	pop	{r4, pc}
 80022a4:	20000450 	.word	0x20000450
 80022a8:	2000044c 	.word	0x2000044c

080022ac <wait>:
 80022ac:	b500      	push	{lr}
 80022ae:	b083      	sub	sp, #12
 80022b0:	9001      	str	r0, [sp, #4]
 80022b2:	eddd 7a01 	vldr	s15, [sp, #4]
 80022b6:	ed9f 7a06 	vldr	s14, [pc, #24]	; 80022d0 <wait+0x24>
 80022ba:	ee67 7a87 	vmul.f32	s15, s15, s14
 80022be:	eefd 7ae7 	vcvt.s32.f32	s15, s15
 80022c2:	ee17 0a90 	vmov	r0, s15
 80022c6:	f000 f813 	bl	80022f0 <wait_us>
 80022ca:	b003      	add	sp, #12
 80022cc:	f85d fb04 	ldr.w	pc, [sp], #4
 80022d0:	49742400 	.word	0x49742400

080022d4 <wait_ms>:
 80022d4:	b500      	push	{lr}
 80022d6:	b083      	sub	sp, #12
 80022d8:	9001      	str	r0, [sp, #4]
 80022da:	9b01      	ldr	r3, [sp, #4]
 80022dc:	f44f 727a 	mov.w	r2, #1000	; 0x3e8
 80022e0:	fb02 f303 	mul.w	r3, r2, r3
 80022e4:	4618      	mov	r0, r3
 80022e6:	f000 f803 	bl	80022f0 <wait_us>
 80022ea:	b003      	add	sp, #12
 80022ec:	f85d fb04 	ldr.w	pc, [sp], #4

080022f0 <wait_us>:
 80022f0:	b500      	push	{lr}
 80022f2:	b085      	sub	sp, #20
 80022f4:	9001      	str	r0, [sp, #4]
 80022f6:	f001 fed7 	bl	80040a8 <us_ticker_read>
 80022fa:	9003      	str	r0, [sp, #12]
 80022fc:	bf00      	nop
 80022fe:	f001 fed3 	bl	80040a8 <us_ticker_read>
 8002302:	4602      	mov	r2, r0
 8002304:	9b03      	ldr	r3, [sp, #12]
 8002306:	1ad2      	subs	r2, r2, r3
 8002308:	9b01      	ldr	r3, [sp, #4]
 800230a:	429a      	cmp	r2, r3
 800230c:	d3f7      	bcc.n	80022fe <wait_us+0xe>
 800230e:	b005      	add	sp, #20
 8002310:	f85d fb04 	ldr.w	pc, [sp], #4

08002314 <HAL_Init>:
 8002314:	b508      	push	{r3, lr}
 8002316:	4a0e      	ldr	r2, [pc, #56]	; (8002350 <HAL_Init+0x3c>)
 8002318:	4b0d      	ldr	r3, [pc, #52]	; (8002350 <HAL_Init+0x3c>)
 800231a:	681b      	ldr	r3, [r3, #0]
 800231c:	f443 7300 	orr.w	r3, r3, #512	; 0x200
 8002320:	6013      	str	r3, [r2, #0]
 8002322:	4a0b      	ldr	r2, [pc, #44]	; (8002350 <HAL_Init+0x3c>)
 8002324:	4b0a      	ldr	r3, [pc, #40]	; (8002350 <HAL_Init+0x3c>)
 8002326:	681b      	ldr	r3, [r3, #0]
 8002328:	f443 6380 	orr.w	r3, r3, #1024	; 0x400
 800232c:	6013      	str	r3, [r2, #0]
 800232e:	4a08      	ldr	r2, [pc, #32]	; (8002350 <HAL_Init+0x3c>)
 8002330:	4b07      	ldr	r3, [pc, #28]	; (8002350 <HAL_Init+0x3c>)
 8002332:	681b      	ldr	r3, [r3, #0]
 8002334:	f443 7380 	orr.w	r3, r3, #256	; 0x100
 8002338:	6013      	str	r3, [r2, #0]
 800233a:	2003      	movs	r0, #3
 800233c:	f000 f838 	bl	80023b0 <HAL_NVIC_SetPriorityGrouping>
 8002340:	200f      	movs	r0, #15
 8002342:	f001 f9b5 	bl	80036b0 <HAL_InitTick>
 8002346:	f000 f805 	bl	8002354 <HAL_MspInit>
 800234a:	2300      	movs	r3, #0
 800234c:	4618      	mov	r0, r3
 800234e:	bd08      	pop	{r3, pc}
 8002350:	40023c00 	.word	0x40023c00

08002354 <HAL_MspInit>:
 8002354:	4770      	bx	lr
 8002356:	bf00      	nop

08002358 <HAL_IncTick>:
 8002358:	4b02      	ldr	r3, [pc, #8]	; (8002364 <HAL_IncTick+0xc>)
 800235a:	681b      	ldr	r3, [r3, #0]
 800235c:	3301      	adds	r3, #1
 800235e:	4a01      	ldr	r2, [pc, #4]	; (8002364 <HAL_IncTick+0xc>)
 8002360:	6013      	str	r3, [r2, #0]
 8002362:	4770      	bx	lr
 8002364:	20000454 	.word	0x20000454

08002368 <HAL_GetTick>:
 8002368:	4b01      	ldr	r3, [pc, #4]	; (8002370 <HAL_GetTick+0x8>)
 800236a:	681b      	ldr	r3, [r3, #0]
 800236c:	4618      	mov	r0, r3
 800236e:	4770      	bx	lr
 8002370:	20000454 	.word	0x20000454

08002374 <NVIC_SetPriorityGrouping>:
 8002374:	b084      	sub	sp, #16
 8002376:	9001      	str	r0, [sp, #4]
 8002378:	9b01      	ldr	r3, [sp, #4]
 800237a:	f003 0307 	and.w	r3, r3, #7
 800237e:	9303      	str	r3, [sp, #12]
 8002380:	4b0a      	ldr	r3, [pc, #40]	; (80023ac <NVIC_SetPriorityGrouping+0x38>)
 8002382:	68db      	ldr	r3, [r3, #12]
 8002384:	9302      	str	r3, [sp, #8]
 8002386:	9a02      	ldr	r2, [sp, #8]
 8002388:	f64f 03ff 	movw	r3, #63743	; 0xf8ff
 800238c:	4013      	ands	r3, r2
 800238e:	9302      	str	r3, [sp, #8]
 8002390:	9b03      	ldr	r3, [sp, #12]
 8002392:	021a      	lsls	r2, r3, #8
 8002394:	9b02      	ldr	r3, [sp, #8]
 8002396:	4313      	orrs	r3, r2
 8002398:	f043 63bf 	orr.w	r3, r3, #100139008	; 0x5f80000
 800239c:	f443 3300 	orr.w	r3, r3, #131072	; 0x20000
 80023a0:	9302      	str	r3, [sp, #8]
 80023a2:	4a02      	ldr	r2, [pc, #8]	; (80023ac <NVIC_SetPriorityGrouping+0x38>)
 80023a4:	9b02      	ldr	r3, [sp, #8]
 80023a6:	60d3      	str	r3, [r2, #12]
 80023a8:	b004      	add	sp, #16
 80023aa:	4770      	bx	lr
 80023ac:	e000ed00 	.word	0xe000ed00

080023b0 <HAL_NVIC_SetPriorityGrouping>:
 80023b0:	b500      	push	{lr}
 80023b2:	b083      	sub	sp, #12
 80023b4:	9001      	str	r0, [sp, #4]
 80023b6:	9801      	ldr	r0, [sp, #4]
 80023b8:	f7ff ffdc 	bl	8002374 <NVIC_SetPriorityGrouping>
 80023bc:	b003      	add	sp, #12
 80023be:	f85d fb04 	ldr.w	pc, [sp], #4
 80023c2:	bf00      	nop

080023c4 <HAL_GPIO_Init>:
 80023c4:	b086      	sub	sp, #24
 80023c6:	9001      	str	r0, [sp, #4]
 80023c8:	9100      	str	r1, [sp, #0]
 80023ca:	2300      	movs	r3, #0
 80023cc:	9303      	str	r3, [sp, #12]
 80023ce:	2300      	movs	r3, #0
 80023d0:	9302      	str	r3, [sp, #8]
 80023d2:	2300      	movs	r3, #0
 80023d4:	9304      	str	r3, [sp, #16]
 80023d6:	2300      	movs	r3, #0
 80023d8:	9305      	str	r3, [sp, #20]
 80023da:	e16b      	b.n	80026b4 <HAL_GPIO_Init+0x2f0>
 80023dc:	9b05      	ldr	r3, [sp, #20]
 80023de:	2201      	movs	r2, #1
 80023e0:	fa02 f303 	lsl.w	r3, r2, r3
 80023e4:	9303      	str	r3, [sp, #12]
 80023e6:	9b00      	ldr	r3, [sp, #0]
 80023e8:	681a      	ldr	r2, [r3, #0]
 80023ea:	9b03      	ldr	r3, [sp, #12]
 80023ec:	4013      	ands	r3, r2
 80023ee:	9302      	str	r3, [sp, #8]
 80023f0:	9a02      	ldr	r2, [sp, #8]
 80023f2:	9b03      	ldr	r3, [sp, #12]
 80023f4:	429a      	cmp	r2, r3
 80023f6:	f040 815a 	bne.w	80026ae <HAL_GPIO_Init+0x2ea>
 80023fa:	9b00      	ldr	r3, [sp, #0]
 80023fc:	685b      	ldr	r3, [r3, #4]
 80023fe:	2b02      	cmp	r3, #2
 8002400:	d003      	beq.n	800240a <HAL_GPIO_Init+0x46>
 8002402:	9b00      	ldr	r3, [sp, #0]
 8002404:	685b      	ldr	r3, [r3, #4]
 8002406:	2b12      	cmp	r3, #18
 8002408:	d122      	bne.n	8002450 <HAL_GPIO_Init+0x8c>
 800240a:	9b05      	ldr	r3, [sp, #20]
 800240c:	08da      	lsrs	r2, r3, #3
 800240e:	9b01      	ldr	r3, [sp, #4]
 8002410:	3208      	adds	r2, #8
 8002412:	f853 3022 	ldr.w	r3, [r3, r2, lsl #2]
 8002416:	9304      	str	r3, [sp, #16]
 8002418:	9b05      	ldr	r3, [sp, #20]
 800241a:	f003 0307 	and.w	r3, r3, #7
 800241e:	009b      	lsls	r3, r3, #2
 8002420:	461a      	mov	r2, r3
 8002422:	230f      	movs	r3, #15
 8002424:	4093      	lsls	r3, r2
 8002426:	43db      	mvns	r3, r3
 8002428:	9a04      	ldr	r2, [sp, #16]
 800242a:	4013      	ands	r3, r2
 800242c:	9304      	str	r3, [sp, #16]
 800242e:	9b00      	ldr	r3, [sp, #0]
 8002430:	691b      	ldr	r3, [r3, #16]
 8002432:	9a05      	ldr	r2, [sp, #20]
 8002434:	f002 0207 	and.w	r2, r2, #7
 8002438:	0092      	lsls	r2, r2, #2
 800243a:	4093      	lsls	r3, r2
 800243c:	9a04      	ldr	r2, [sp, #16]
 800243e:	4313      	orrs	r3, r2
 8002440:	9304      	str	r3, [sp, #16]
 8002442:	9b05      	ldr	r3, [sp, #20]
 8002444:	08da      	lsrs	r2, r3, #3
 8002446:	9b01      	ldr	r3, [sp, #4]
 8002448:	3208      	adds	r2, #8
 800244a:	9904      	ldr	r1, [sp, #16]
 800244c:	f843 1022 	str.w	r1, [r3, r2, lsl #2]
 8002450:	9b01      	ldr	r3, [sp, #4]
 8002452:	681b      	ldr	r3, [r3, #0]
 8002454:	9304      	str	r3, [sp, #16]
 8002456:	9b05      	ldr	r3, [sp, #20]
 8002458:	005b      	lsls	r3, r3, #1
 800245a:	461a      	mov	r2, r3
 800245c:	2303      	movs	r3, #3
 800245e:	4093      	lsls	r3, r2
 8002460:	43db      	mvns	r3, r3
 8002462:	9a04      	ldr	r2, [sp, #16]
 8002464:	4013      	ands	r3, r2
 8002466:	9304      	str	r3, [sp, #16]
 8002468:	9b00      	ldr	r3, [sp, #0]
 800246a:	685b      	ldr	r3, [r3, #4]
 800246c:	f003 0303 	and.w	r3, r3, #3
 8002470:	9a05      	ldr	r2, [sp, #20]
 8002472:	0052      	lsls	r2, r2, #1
 8002474:	4093      	lsls	r3, r2
 8002476:	9a04      	ldr	r2, [sp, #16]
 8002478:	4313      	orrs	r3, r2
 800247a:	9304      	str	r3, [sp, #16]
 800247c:	9b01      	ldr	r3, [sp, #4]
 800247e:	9a04      	ldr	r2, [sp, #16]
 8002480:	601a      	str	r2, [r3, #0]
 8002482:	9b00      	ldr	r3, [sp, #0]
 8002484:	685b      	ldr	r3, [r3, #4]
 8002486:	2b01      	cmp	r3, #1
 8002488:	d00b      	beq.n	80024a2 <HAL_GPIO_Init+0xde>
 800248a:	9b00      	ldr	r3, [sp, #0]
 800248c:	685b      	ldr	r3, [r3, #4]
 800248e:	2b02      	cmp	r3, #2
 8002490:	d007      	beq.n	80024a2 <HAL_GPIO_Init+0xde>
 8002492:	9b00      	ldr	r3, [sp, #0]
 8002494:	685b      	ldr	r3, [r3, #4]
 8002496:	2b11      	cmp	r3, #17
 8002498:	d003      	beq.n	80024a2 <HAL_GPIO_Init+0xde>
 800249a:	9b00      	ldr	r3, [sp, #0]
 800249c:	685b      	ldr	r3, [r3, #4]
 800249e:	2b12      	cmp	r3, #18
 80024a0:	d12f      	bne.n	8002502 <HAL_GPIO_Init+0x13e>
 80024a2:	9b01      	ldr	r3, [sp, #4]
 80024a4:	689b      	ldr	r3, [r3, #8]
 80024a6:	9304      	str	r3, [sp, #16]
 80024a8:	9b05      	ldr	r3, [sp, #20]
 80024aa:	005b      	lsls	r3, r3, #1
 80024ac:	461a      	mov	r2, r3
 80024ae:	2303      	movs	r3, #3
 80024b0:	4093      	lsls	r3, r2
 80024b2:	43db      	mvns	r3, r3
 80024b4:	9a04      	ldr	r2, [sp, #16]
 80024b6:	4013      	ands	r3, r2
 80024b8:	9304      	str	r3, [sp, #16]
 80024ba:	9b00      	ldr	r3, [sp, #0]
 80024bc:	68db      	ldr	r3, [r3, #12]
 80024be:	9a05      	ldr	r2, [sp, #20]
 80024c0:	0052      	lsls	r2, r2, #1
 80024c2:	4093      	lsls	r3, r2
 80024c4:	9a04      	ldr	r2, [sp, #16]
 80024c6:	4313      	orrs	r3, r2
 80024c8:	9304      	str	r3, [sp, #16]
 80024ca:	9b01      	ldr	r3, [sp, #4]
 80024cc:	9a04      	ldr	r2, [sp, #16]
 80024ce:	609a      	str	r2, [r3, #8]
 80024d0:	9b01      	ldr	r3, [sp, #4]
 80024d2:	685b      	ldr	r3, [r3, #4]
 80024d4:	9304      	str	r3, [sp, #16]
 80024d6:	9b05      	ldr	r3, [sp, #20]
 80024d8:	2201      	movs	r2, #1
 80024da:	fa02 f303 	lsl.w	r3, r2, r3
 80024de:	43db      	mvns	r3, r3
 80024e0:	9a04      	ldr	r2, [sp, #16]
 80024e2:	4013      	ands	r3, r2
 80024e4:	9304      	str	r3, [sp, #16]
 80024e6:	9b00      	ldr	r3, [sp, #0]
 80024e8:	685b      	ldr	r3, [r3, #4]
 80024ea:	f003 0310 	and.w	r3, r3, #16
 80024ee:	091a      	lsrs	r2, r3, #4
 80024f0:	9b05      	ldr	r3, [sp, #20]
 80024f2:	fa02 f303 	lsl.w	r3, r2, r3
 80024f6:	9a04      	ldr	r2, [sp, #16]
 80024f8:	4313      	orrs	r3, r2
 80024fa:	9304      	str	r3, [sp, #16]
 80024fc:	9b01      	ldr	r3, [sp, #4]
 80024fe:	9a04      	ldr	r2, [sp, #16]
 8002500:	605a      	str	r2, [r3, #4]
 8002502:	9b01      	ldr	r3, [sp, #4]
 8002504:	68db      	ldr	r3, [r3, #12]
 8002506:	9304      	str	r3, [sp, #16]
 8002508:	9b05      	ldr	r3, [sp, #20]
 800250a:	005b      	lsls	r3, r3, #1
 800250c:	461a      	mov	r2, r3
 800250e:	2303      	movs	r3, #3
 8002510:	4093      	lsls	r3, r2
 8002512:	43db      	mvns	r3, r3
 8002514:	9a04      	ldr	r2, [sp, #16]
 8002516:	4013      	ands	r3, r2
 8002518:	9304      	str	r3, [sp, #16]
 800251a:	9b00      	ldr	r3, [sp, #0]
 800251c:	689b      	ldr	r3, [r3, #8]
 800251e:	9a05      	ldr	r2, [sp, #20]
 8002520:	0052      	lsls	r2, r2, #1
 8002522:	4093      	lsls	r3, r2
 8002524:	9a04      	ldr	r2, [sp, #16]
 8002526:	4313      	orrs	r3, r2
 8002528:	9304      	str	r3, [sp, #16]
 800252a:	9b01      	ldr	r3, [sp, #4]
 800252c:	9a04      	ldr	r2, [sp, #16]
 800252e:	60da      	str	r2, [r3, #12]
 8002530:	9b00      	ldr	r3, [sp, #0]
 8002532:	685b      	ldr	r3, [r3, #4]
 8002534:	f003 5380 	and.w	r3, r3, #268435456	; 0x10000000
 8002538:	2b00      	cmp	r3, #0
 800253a:	f000 80b8 	beq.w	80026ae <HAL_GPIO_Init+0x2ea>
 800253e:	4a60      	ldr	r2, [pc, #384]	; (80026c0 <HAL_GPIO_Init+0x2fc>)
 8002540:	4b5f      	ldr	r3, [pc, #380]	; (80026c0 <HAL_GPIO_Init+0x2fc>)
 8002542:	6c5b      	ldr	r3, [r3, #68]	; 0x44
 8002544:	f443 4380 	orr.w	r3, r3, #16384	; 0x4000
 8002548:	6453      	str	r3, [r2, #68]	; 0x44
 800254a:	4a5e      	ldr	r2, [pc, #376]	; (80026c4 <HAL_GPIO_Init+0x300>)
 800254c:	9b05      	ldr	r3, [sp, #20]
 800254e:	089b      	lsrs	r3, r3, #2
 8002550:	3302      	adds	r3, #2
 8002552:	f852 3023 	ldr.w	r3, [r2, r3, lsl #2]
 8002556:	9304      	str	r3, [sp, #16]
 8002558:	9b05      	ldr	r3, [sp, #20]
 800255a:	f003 0303 	and.w	r3, r3, #3
 800255e:	009b      	lsls	r3, r3, #2
 8002560:	461a      	mov	r2, r3
 8002562:	230f      	movs	r3, #15
 8002564:	4093      	lsls	r3, r2
 8002566:	43db      	mvns	r3, r3
 8002568:	9a04      	ldr	r2, [sp, #16]
 800256a:	4013      	ands	r3, r2
 800256c:	9304      	str	r3, [sp, #16]
 800256e:	9b01      	ldr	r3, [sp, #4]
 8002570:	4a55      	ldr	r2, [pc, #340]	; (80026c8 <HAL_GPIO_Init+0x304>)
 8002572:	4293      	cmp	r3, r2
 8002574:	d037      	beq.n	80025e6 <HAL_GPIO_Init+0x222>
 8002576:	9b01      	ldr	r3, [sp, #4]
 8002578:	4a54      	ldr	r2, [pc, #336]	; (80026cc <HAL_GPIO_Init+0x308>)
 800257a:	4293      	cmp	r3, r2
 800257c:	d031      	beq.n	80025e2 <HAL_GPIO_Init+0x21e>
 800257e:	9b01      	ldr	r3, [sp, #4]
 8002580:	4a53      	ldr	r2, [pc, #332]	; (80026d0 <HAL_GPIO_Init+0x30c>)
 8002582:	4293      	cmp	r3, r2
 8002584:	d02b      	beq.n	80025de <HAL_GPIO_Init+0x21a>
 8002586:	9b01      	ldr	r3, [sp, #4]
 8002588:	4a52      	ldr	r2, [pc, #328]	; (80026d4 <HAL_GPIO_Init+0x310>)
 800258a:	4293      	cmp	r3, r2
 800258c:	d025      	beq.n	80025da <HAL_GPIO_Init+0x216>
 800258e:	9b01      	ldr	r3, [sp, #4]
 8002590:	4a51      	ldr	r2, [pc, #324]	; (80026d8 <HAL_GPIO_Init+0x314>)
 8002592:	4293      	cmp	r3, r2
 8002594:	d01f      	beq.n	80025d6 <HAL_GPIO_Init+0x212>
 8002596:	9b01      	ldr	r3, [sp, #4]
 8002598:	4a50      	ldr	r2, [pc, #320]	; (80026dc <HAL_GPIO_Init+0x318>)
 800259a:	4293      	cmp	r3, r2
 800259c:	d019      	beq.n	80025d2 <HAL_GPIO_Init+0x20e>
 800259e:	9b01      	ldr	r3, [sp, #4]
 80025a0:	4a4f      	ldr	r2, [pc, #316]	; (80026e0 <HAL_GPIO_Init+0x31c>)
 80025a2:	4293      	cmp	r3, r2
 80025a4:	d013      	beq.n	80025ce <HAL_GPIO_Init+0x20a>
 80025a6:	9b01      	ldr	r3, [sp, #4]
 80025a8:	4a4e      	ldr	r2, [pc, #312]	; (80026e4 <HAL_GPIO_Init+0x320>)
 80025aa:	4293      	cmp	r3, r2
 80025ac:	d00d      	beq.n	80025ca <HAL_GPIO_Init+0x206>
 80025ae:	9b01      	ldr	r3, [sp, #4]
 80025b0:	4a4d      	ldr	r2, [pc, #308]	; (80026e8 <HAL_GPIO_Init+0x324>)
 80025b2:	4293      	cmp	r3, r2
 80025b4:	d007      	beq.n	80025c6 <HAL_GPIO_Init+0x202>
 80025b6:	9b01      	ldr	r3, [sp, #4]
 80025b8:	4a4c      	ldr	r2, [pc, #304]	; (80026ec <HAL_GPIO_Init+0x328>)
 80025ba:	4293      	cmp	r3, r2
 80025bc:	d101      	bne.n	80025c2 <HAL_GPIO_Init+0x1fe>
 80025be:	2309      	movs	r3, #9
 80025c0:	e012      	b.n	80025e8 <HAL_GPIO_Init+0x224>
 80025c2:	230a      	movs	r3, #10
 80025c4:	e010      	b.n	80025e8 <HAL_GPIO_Init+0x224>
 80025c6:	2308      	movs	r3, #8
 80025c8:	e00e      	b.n	80025e8 <HAL_GPIO_Init+0x224>
 80025ca:	2307      	movs	r3, #7
 80025cc:	e00c      	b.n	80025e8 <HAL_GPIO_Init+0x224>
 80025ce:	2306      	movs	r3, #6
 80025d0:	e00a      	b.n	80025e8 <HAL_GPIO_Init+0x224>
 80025d2:	2305      	movs	r3, #5
 80025d4:	e008      	b.n	80025e8 <HAL_GPIO_Init+0x224>
 80025d6:	2304      	movs	r3, #4
 80025d8:	e006      	b.n	80025e8 <HAL_GPIO_Init+0x224>
 80025da:	2303      	movs	r3, #3
 80025dc:	e004      	b.n	80025e8 <HAL_GPIO_Init+0x224>
 80025de:	2302      	movs	r3, #2
 80025e0:	e002      	b.n	80025e8 <HAL_GPIO_Init+0x224>
 80025e2:	2301      	movs	r3, #1
 80025e4:	e000      	b.n	80025e8 <HAL_GPIO_Init+0x224>
 80025e6:	2300      	movs	r3, #0
 80025e8:	9a05      	ldr	r2, [sp, #20]
 80025ea:	f002 0203 	and.w	r2, r2, #3
 80025ee:	0092      	lsls	r2, r2, #2
 80025f0:	4093      	lsls	r3, r2
 80025f2:	9a04      	ldr	r2, [sp, #16]
 80025f4:	4313      	orrs	r3, r2
 80025f6:	9304      	str	r3, [sp, #16]
 80025f8:	4932      	ldr	r1, [pc, #200]	; (80026c4 <HAL_GPIO_Init+0x300>)
 80025fa:	9b05      	ldr	r3, [sp, #20]
 80025fc:	089b      	lsrs	r3, r3, #2
 80025fe:	3302      	adds	r3, #2
 8002600:	9a04      	ldr	r2, [sp, #16]
 8002602:	f841 2023 	str.w	r2, [r1, r3, lsl #2]
 8002606:	4b3a      	ldr	r3, [pc, #232]	; (80026f0 <HAL_GPIO_Init+0x32c>)
 8002608:	681b      	ldr	r3, [r3, #0]
 800260a:	9304      	str	r3, [sp, #16]
 800260c:	9b02      	ldr	r3, [sp, #8]
 800260e:	43db      	mvns	r3, r3
 8002610:	9a04      	ldr	r2, [sp, #16]
 8002612:	4013      	ands	r3, r2
 8002614:	9304      	str	r3, [sp, #16]
 8002616:	9b00      	ldr	r3, [sp, #0]
 8002618:	685b      	ldr	r3, [r3, #4]
 800261a:	f403 3380 	and.w	r3, r3, #65536	; 0x10000
 800261e:	2b00      	cmp	r3, #0
 8002620:	d003      	beq.n	800262a <HAL_GPIO_Init+0x266>
 8002622:	9a04      	ldr	r2, [sp, #16]
 8002624:	9b02      	ldr	r3, [sp, #8]
 8002626:	4313      	orrs	r3, r2
 8002628:	9304      	str	r3, [sp, #16]
 800262a:	4a31      	ldr	r2, [pc, #196]	; (80026f0 <HAL_GPIO_Init+0x32c>)
 800262c:	9b04      	ldr	r3, [sp, #16]
 800262e:	6013      	str	r3, [r2, #0]
 8002630:	4b2f      	ldr	r3, [pc, #188]	; (80026f0 <HAL_GPIO_Init+0x32c>)
 8002632:	685b      	ldr	r3, [r3, #4]
 8002634:	9304      	str	r3, [sp, #16]
 8002636:	9b02      	ldr	r3, [sp, #8]
 8002638:	43db      	mvns	r3, r3
 800263a:	9a04      	ldr	r2, [sp, #16]
 800263c:	4013      	ands	r3, r2
 800263e:	9304      	str	r3, [sp, #16]
 8002640:	9b00      	ldr	r3, [sp, #0]
 8002642:	685b      	ldr	r3, [r3, #4]
 8002644:	f403 3300 	and.w	r3, r3, #131072	; 0x20000
 8002648:	2b00      	cmp	r3, #0
 800264a:	d003      	beq.n	8002654 <HAL_GPIO_Init+0x290>
 800264c:	9a04      	ldr	r2, [sp, #16]
 800264e:	9b02      	ldr	r3, [sp, #8]
 8002650:	4313      	orrs	r3, r2
 8002652:	9304      	str	r3, [sp, #16]
 8002654:	4a26      	ldr	r2, [pc, #152]	; (80026f0 <HAL_GPIO_Init+0x32c>)
 8002656:	9b04      	ldr	r3, [sp, #16]
 8002658:	6053      	str	r3, [r2, #4]
 800265a:	4b25      	ldr	r3, [pc, #148]	; (80026f0 <HAL_GPIO_Init+0x32c>)
 800265c:	689b      	ldr	r3, [r3, #8]
 800265e:	9304      	str	r3, [sp, #16]
 8002660:	9b02      	ldr	r3, [sp, #8]
 8002662:	43db      	mvns	r3, r3
 8002664:	9a04      	ldr	r2, [sp, #16]
 8002666:	4013      	ands	r3, r2
 8002668:	9304      	str	r3, [sp, #16]
 800266a:	9b00      	ldr	r3, [sp, #0]
 800266c:	685b      	ldr	r3, [r3, #4]
 800266e:	f403 1380 	and.w	r3, r3, #1048576	; 0x100000
 8002672:	2b00      	cmp	r3, #0
 8002674:	d003      	beq.n	800267e <HAL_GPIO_Init+0x2ba>
 8002676:	9a04      	ldr	r2, [sp, #16]
 8002678:	9b02      	ldr	r3, [sp, #8]
 800267a:	4313      	orrs	r3, r2
 800267c:	9304      	str	r3, [sp, #16]
 800267e:	4a1c      	ldr	r2, [pc, #112]	; (80026f0 <HAL_GPIO_Init+0x32c>)
 8002680:	9b04      	ldr	r3, [sp, #16]
 8002682:	6093      	str	r3, [r2, #8]
 8002684:	4b1a      	ldr	r3, [pc, #104]	; (80026f0 <HAL_GPIO_Init+0x32c>)
 8002686:	68db      	ldr	r3, [r3, #12]
 8002688:	9304      	str	r3, [sp, #16]
 800268a:	9b02      	ldr	r3, [sp, #8]
 800268c:	43db      	mvns	r3, r3
 800268e:	9a04      	ldr	r2, [sp, #16]
 8002690:	4013      	ands	r3, r2
 8002692:	9304      	str	r3, [sp, #16]
 8002694:	9b00      	ldr	r3, [sp, #0]
 8002696:	685b      	ldr	r3, [r3, #4]
 8002698:	f403 1300 	and.w	r3, r3, #2097152	; 0x200000
 800269c:	2b00      	cmp	r3, #0
 800269e:	d003      	beq.n	80026a8 <HAL_GPIO_Init+0x2e4>
 80026a0:	9a04      	ldr	r2, [sp, #16]
 80026a2:	9b02      	ldr	r3, [sp, #8]
 80026a4:	4313      	orrs	r3, r2
 80026a6:	9304      	str	r3, [sp, #16]
 80026a8:	4a11      	ldr	r2, [pc, #68]	; (80026f0 <HAL_GPIO_Init+0x32c>)
 80026aa:	9b04      	ldr	r3, [sp, #16]
 80026ac:	60d3      	str	r3, [r2, #12]
 80026ae:	9b05      	ldr	r3, [sp, #20]
 80026b0:	3301      	adds	r3, #1
 80026b2:	9305      	str	r3, [sp, #20]
 80026b4:	9b05      	ldr	r3, [sp, #20]
 80026b6:	2b0f      	cmp	r3, #15
 80026b8:	f67f ae90 	bls.w	80023dc <HAL_GPIO_Init+0x18>
 80026bc:	b006      	add	sp, #24
 80026be:	4770      	bx	lr
 80026c0:	40023800 	.word	0x40023800
 80026c4:	40013800 	.word	0x40013800
 80026c8:	40020000 	.word	0x40020000
 80026cc:	40020400 	.word	0x40020400
 80026d0:	40020800 	.word	0x40020800
 80026d4:	40020c00 	.word	0x40020c00
 80026d8:	40021000 	.word	0x40021000
 80026dc:	40021400 	.word	0x40021400
 80026e0:	40021800 	.word	0x40021800
 80026e4:	40021c00 	.word	0x40021c00
 80026e8:	40022000 	.word	0x40022000
 80026ec:	40022400 	.word	0x40022400
 80026f0:	40013c00 	.word	0x40013c00

080026f4 <HAL_RCC_OscConfig>:
 80026f4:	b500      	push	{lr}
 80026f6:	b099      	sub	sp, #100	; 0x64
 80026f8:	9001      	str	r0, [sp, #4]
 80026fa:	2300      	movs	r3, #0
 80026fc:	9317      	str	r3, [sp, #92]	; 0x5c
 80026fe:	9b01      	ldr	r3, [sp, #4]
 8002700:	681b      	ldr	r3, [r3, #0]
 8002702:	f003 0301 	and.w	r3, r3, #1
 8002706:	2b00      	cmp	r3, #0
 8002708:	d067      	beq.n	80027da <HAL_RCC_OscConfig+0xe6>
 800270a:	4ba2      	ldr	r3, [pc, #648]	; (8002994 <HAL_RCC_OscConfig+0x2a0>)
 800270c:	689b      	ldr	r3, [r3, #8]
 800270e:	f003 030c 	and.w	r3, r3, #12
 8002712:	2b04      	cmp	r3, #4
 8002714:	d00b      	beq.n	800272e <HAL_RCC_OscConfig+0x3a>
 8002716:	4b9f      	ldr	r3, [pc, #636]	; (8002994 <HAL_RCC_OscConfig+0x2a0>)
 8002718:	689b      	ldr	r3, [r3, #8]
 800271a:	f003 030c 	and.w	r3, r3, #12
 800271e:	2b08      	cmp	r3, #8
 8002720:	d112      	bne.n	8002748 <HAL_RCC_OscConfig+0x54>
 8002722:	4b9c      	ldr	r3, [pc, #624]	; (8002994 <HAL_RCC_OscConfig+0x2a0>)
 8002724:	685b      	ldr	r3, [r3, #4]
 8002726:	f403 0380 	and.w	r3, r3, #4194304	; 0x400000
 800272a:	2b00      	cmp	r3, #0
 800272c:	d00c      	beq.n	8002748 <HAL_RCC_OscConfig+0x54>
 800272e:	4b99      	ldr	r3, [pc, #612]	; (8002994 <HAL_RCC_OscConfig+0x2a0>)
 8002730:	681b      	ldr	r3, [r3, #0]
 8002732:	f403 3300 	and.w	r3, r3, #131072	; 0x20000
 8002736:	2b00      	cmp	r3, #0
 8002738:	d005      	beq.n	8002746 <HAL_RCC_OscConfig+0x52>
 800273a:	9b01      	ldr	r3, [sp, #4]
 800273c:	685b      	ldr	r3, [r3, #4]
 800273e:	2b01      	cmp	r3, #1
 8002740:	d001      	beq.n	8002746 <HAL_RCC_OscConfig+0x52>
 8002742:	2301      	movs	r3, #1
 8002744:	e21a      	b.n	8002b7c <HAL_RCC_OscConfig+0x488>
 8002746:	e048      	b.n	80027da <HAL_RCC_OscConfig+0xe6>
 8002748:	4b93      	ldr	r3, [pc, #588]	; (8002998 <HAL_RCC_OscConfig+0x2a4>)
 800274a:	2200      	movs	r2, #0
 800274c:	701a      	strb	r2, [r3, #0]
 800274e:	f7ff fe0b 	bl	8002368 <HAL_GetTick>
 8002752:	9017      	str	r0, [sp, #92]	; 0x5c
 8002754:	e009      	b.n	800276a <HAL_RCC_OscConfig+0x76>
 8002756:	f7ff fe07 	bl	8002368 <HAL_GetTick>
 800275a:	4602      	mov	r2, r0
 800275c:	9b17      	ldr	r3, [sp, #92]	; 0x5c
 800275e:	1ad3      	subs	r3, r2, r3
 8002760:	f5b3 7ffa 	cmp.w	r3, #500	; 0x1f4
 8002764:	d901      	bls.n	800276a <HAL_RCC_OscConfig+0x76>
 8002766:	2303      	movs	r3, #3
 8002768:	e208      	b.n	8002b7c <HAL_RCC_OscConfig+0x488>
 800276a:	4b8a      	ldr	r3, [pc, #552]	; (8002994 <HAL_RCC_OscConfig+0x2a0>)
 800276c:	681b      	ldr	r3, [r3, #0]
 800276e:	f403 3300 	and.w	r3, r3, #131072	; 0x20000
 8002772:	2b00      	cmp	r3, #0
 8002774:	d1ef      	bne.n	8002756 <HAL_RCC_OscConfig+0x62>
 8002776:	4a88      	ldr	r2, [pc, #544]	; (8002998 <HAL_RCC_OscConfig+0x2a4>)
 8002778:	9b01      	ldr	r3, [sp, #4]
 800277a:	685b      	ldr	r3, [r3, #4]
 800277c:	b2db      	uxtb	r3, r3
 800277e:	7013      	strb	r3, [r2, #0]
 8002780:	9b01      	ldr	r3, [sp, #4]
 8002782:	685b      	ldr	r3, [r3, #4]
 8002784:	2b01      	cmp	r3, #1
 8002786:	d114      	bne.n	80027b2 <HAL_RCC_OscConfig+0xbe>
 8002788:	f7ff fdee 	bl	8002368 <HAL_GetTick>
 800278c:	9017      	str	r0, [sp, #92]	; 0x5c
 800278e:	e009      	b.n	80027a4 <HAL_RCC_OscConfig+0xb0>
 8002790:	f7ff fdea 	bl	8002368 <HAL_GetTick>
 8002794:	4602      	mov	r2, r0
 8002796:	9b17      	ldr	r3, [sp, #92]	; 0x5c
 8002798:	1ad3      	subs	r3, r2, r3
 800279a:	f5b3 7ffa 	cmp.w	r3, #500	; 0x1f4
 800279e:	d901      	bls.n	80027a4 <HAL_RCC_OscConfig+0xb0>
 80027a0:	2303      	movs	r3, #3
 80027a2:	e1eb      	b.n	8002b7c <HAL_RCC_OscConfig+0x488>
 80027a4:	4b7b      	ldr	r3, [pc, #492]	; (8002994 <HAL_RCC_OscConfig+0x2a0>)
 80027a6:	681b      	ldr	r3, [r3, #0]
 80027a8:	f403 3300 	and.w	r3, r3, #131072	; 0x20000
 80027ac:	2b00      	cmp	r3, #0
 80027ae:	d0ef      	beq.n	8002790 <HAL_RCC_OscConfig+0x9c>
 80027b0:	e013      	b.n	80027da <HAL_RCC_OscConfig+0xe6>
 80027b2:	f7ff fdd9 	bl	8002368 <HAL_GetTick>
 80027b6:	9017      	str	r0, [sp, #92]	; 0x5c
 80027b8:	e009      	b.n	80027ce <HAL_RCC_OscConfig+0xda>
 80027ba:	f7ff fdd5 	bl	8002368 <HAL_GetTick>
 80027be:	4602      	mov	r2, r0
 80027c0:	9b17      	ldr	r3, [sp, #92]	; 0x5c
 80027c2:	1ad3      	subs	r3, r2, r3
 80027c4:	f5b3 7ffa 	cmp.w	r3, #500	; 0x1f4
 80027c8:	d901      	bls.n	80027ce <HAL_RCC_OscConfig+0xda>
 80027ca:	2303      	movs	r3, #3
 80027cc:	e1d6      	b.n	8002b7c <HAL_RCC_OscConfig+0x488>
 80027ce:	4b71      	ldr	r3, [pc, #452]	; (8002994 <HAL_RCC_OscConfig+0x2a0>)
 80027d0:	681b      	ldr	r3, [r3, #0]
 80027d2:	f403 3300 	and.w	r3, r3, #131072	; 0x20000
 80027d6:	2b00      	cmp	r3, #0
 80027d8:	d1ef      	bne.n	80027ba <HAL_RCC_OscConfig+0xc6>
 80027da:	9b01      	ldr	r3, [sp, #4]
 80027dc:	681b      	ldr	r3, [r3, #0]
 80027de:	f003 0302 	and.w	r3, r3, #2
 80027e2:	2b00      	cmp	r3, #0
 80027e4:	d07f      	beq.n	80028e6 <HAL_RCC_OscConfig+0x1f2>
 80027e6:	4b6b      	ldr	r3, [pc, #428]	; (8002994 <HAL_RCC_OscConfig+0x2a0>)
 80027e8:	689b      	ldr	r3, [r3, #8]
 80027ea:	f003 030c 	and.w	r3, r3, #12
 80027ee:	2b00      	cmp	r3, #0
 80027f0:	d00b      	beq.n	800280a <HAL_RCC_OscConfig+0x116>
 80027f2:	4b68      	ldr	r3, [pc, #416]	; (8002994 <HAL_RCC_OscConfig+0x2a0>)
 80027f4:	689b      	ldr	r3, [r3, #8]
 80027f6:	f003 030c 	and.w	r3, r3, #12
 80027fa:	2b08      	cmp	r3, #8
 80027fc:	d12a      	bne.n	8002854 <HAL_RCC_OscConfig+0x160>
 80027fe:	4b65      	ldr	r3, [pc, #404]	; (8002994 <HAL_RCC_OscConfig+0x2a0>)
 8002800:	685b      	ldr	r3, [r3, #4]
 8002802:	f403 0380 	and.w	r3, r3, #4194304	; 0x400000
 8002806:	2b00      	cmp	r3, #0
 8002808:	d124      	bne.n	8002854 <HAL_RCC_OscConfig+0x160>
 800280a:	4b62      	ldr	r3, [pc, #392]	; (8002994 <HAL_RCC_OscConfig+0x2a0>)
 800280c:	681b      	ldr	r3, [r3, #0]
 800280e:	f003 0302 	and.w	r3, r3, #2
 8002812:	2b00      	cmp	r3, #0
 8002814:	d005      	beq.n	8002822 <HAL_RCC_OscConfig+0x12e>
 8002816:	9b01      	ldr	r3, [sp, #4]
 8002818:	68db      	ldr	r3, [r3, #12]
 800281a:	2b01      	cmp	r3, #1
 800281c:	d001      	beq.n	8002822 <HAL_RCC_OscConfig+0x12e>
 800281e:	2301      	movs	r3, #1
 8002820:	e1ac      	b.n	8002b7c <HAL_RCC_OscConfig+0x488>
 8002822:	485c      	ldr	r0, [pc, #368]	; (8002994 <HAL_RCC_OscConfig+0x2a0>)
 8002824:	4b5b      	ldr	r3, [pc, #364]	; (8002994 <HAL_RCC_OscConfig+0x2a0>)
 8002826:	681b      	ldr	r3, [r3, #0]
 8002828:	f023 02f8 	bic.w	r2, r3, #248	; 0xf8
 800282c:	9b01      	ldr	r3, [sp, #4]
 800282e:	691b      	ldr	r3, [r3, #16]
 8002830:	21f8      	movs	r1, #248	; 0xf8
 8002832:	9116      	str	r1, [sp, #88]	; 0x58
 8002834:	9916      	ldr	r1, [sp, #88]	; 0x58
 8002836:	fa91 f1a1 	rbit	r1, r1
 800283a:	9115      	str	r1, [sp, #84]	; 0x54
 800283c:	9915      	ldr	r1, [sp, #84]	; 0x54
 800283e:	9114      	str	r1, [sp, #80]	; 0x50
 8002840:	9914      	ldr	r1, [sp, #80]	; 0x50
 8002842:	fab1 f181 	clz	r1, r1
 8002846:	9113      	str	r1, [sp, #76]	; 0x4c
 8002848:	9913      	ldr	r1, [sp, #76]	; 0x4c
 800284a:	b2c9      	uxtb	r1, r1
 800284c:	408b      	lsls	r3, r1
 800284e:	4313      	orrs	r3, r2
 8002850:	6003      	str	r3, [r0, #0]
 8002852:	e048      	b.n	80028e6 <HAL_RCC_OscConfig+0x1f2>
 8002854:	9b01      	ldr	r3, [sp, #4]
 8002856:	68db      	ldr	r3, [r3, #12]
 8002858:	2b00      	cmp	r3, #0
 800285a:	d02e      	beq.n	80028ba <HAL_RCC_OscConfig+0x1c6>
 800285c:	4b4f      	ldr	r3, [pc, #316]	; (800299c <HAL_RCC_OscConfig+0x2a8>)
 800285e:	2201      	movs	r2, #1
 8002860:	601a      	str	r2, [r3, #0]
 8002862:	f7ff fd81 	bl	8002368 <HAL_GetTick>
 8002866:	9017      	str	r0, [sp, #92]	; 0x5c
 8002868:	e008      	b.n	800287c <HAL_RCC_OscConfig+0x188>
 800286a:	f7ff fd7d 	bl	8002368 <HAL_GetTick>
 800286e:	4602      	mov	r2, r0
 8002870:	9b17      	ldr	r3, [sp, #92]	; 0x5c
 8002872:	1ad3      	subs	r3, r2, r3
 8002874:	2b64      	cmp	r3, #100	; 0x64
 8002876:	d901      	bls.n	800287c <HAL_RCC_OscConfig+0x188>
 8002878:	2303      	movs	r3, #3
 800287a:	e17f      	b.n	8002b7c <HAL_RCC_OscConfig+0x488>
 800287c:	4b45      	ldr	r3, [pc, #276]	; (8002994 <HAL_RCC_OscConfig+0x2a0>)
 800287e:	681b      	ldr	r3, [r3, #0]
 8002880:	f003 0302 	and.w	r3, r3, #2
 8002884:	2b00      	cmp	r3, #0
 8002886:	d0f0      	beq.n	800286a <HAL_RCC_OscConfig+0x176>
 8002888:	4842      	ldr	r0, [pc, #264]	; (8002994 <HAL_RCC_OscConfig+0x2a0>)
 800288a:	4b42      	ldr	r3, [pc, #264]	; (8002994 <HAL_RCC_OscConfig+0x2a0>)
 800288c:	681b      	ldr	r3, [r3, #0]
 800288e:	f023 02f8 	bic.w	r2, r3, #248	; 0xf8
 8002892:	9b01      	ldr	r3, [sp, #4]
 8002894:	691b      	ldr	r3, [r3, #16]
 8002896:	21f8      	movs	r1, #248	; 0xf8
 8002898:	9112      	str	r1, [sp, #72]	; 0x48
 800289a:	9912      	ldr	r1, [sp, #72]	; 0x48
 800289c:	fa91 f1a1 	rbit	r1, r1
 80028a0:	9111      	str	r1, [sp, #68]	; 0x44
 80028a2:	9911      	ldr	r1, [sp, #68]	; 0x44
 80028a4:	9110      	str	r1, [sp, #64]	; 0x40
 80028a6:	9910      	ldr	r1, [sp, #64]	; 0x40
 80028a8:	fab1 f181 	clz	r1, r1
 80028ac:	910f      	str	r1, [sp, #60]	; 0x3c
 80028ae:	990f      	ldr	r1, [sp, #60]	; 0x3c
 80028b0:	b2c9      	uxtb	r1, r1
 80028b2:	408b      	lsls	r3, r1
 80028b4:	4313      	orrs	r3, r2
 80028b6:	6003      	str	r3, [r0, #0]
 80028b8:	e015      	b.n	80028e6 <HAL_RCC_OscConfig+0x1f2>
 80028ba:	4b38      	ldr	r3, [pc, #224]	; (800299c <HAL_RCC_OscConfig+0x2a8>)
 80028bc:	2200      	movs	r2, #0
 80028be:	601a      	str	r2, [r3, #0]
 80028c0:	f7ff fd52 	bl	8002368 <HAL_GetTick>
 80028c4:	9017      	str	r0, [sp, #92]	; 0x5c
 80028c6:	e008      	b.n	80028da <HAL_RCC_OscConfig+0x1e6>
 80028c8:	f7ff fd4e 	bl	8002368 <HAL_GetTick>
 80028cc:	4602      	mov	r2, r0
 80028ce:	9b17      	ldr	r3, [sp, #92]	; 0x5c
 80028d0:	1ad3      	subs	r3, r2, r3
 80028d2:	2b64      	cmp	r3, #100	; 0x64
 80028d4:	d901      	bls.n	80028da <HAL_RCC_OscConfig+0x1e6>
 80028d6:	2303      	movs	r3, #3
 80028d8:	e150      	b.n	8002b7c <HAL_RCC_OscConfig+0x488>
 80028da:	4b2e      	ldr	r3, [pc, #184]	; (8002994 <HAL_RCC_OscConfig+0x2a0>)
 80028dc:	681b      	ldr	r3, [r3, #0]
 80028de:	f003 0302 	and.w	r3, r3, #2
 80028e2:	2b00      	cmp	r3, #0
 80028e4:	d1f0      	bne.n	80028c8 <HAL_RCC_OscConfig+0x1d4>
 80028e6:	9b01      	ldr	r3, [sp, #4]
 80028e8:	681b      	ldr	r3, [r3, #0]
 80028ea:	f003 0308 	and.w	r3, r3, #8
 80028ee:	2b00      	cmp	r3, #0
 80028f0:	d030      	beq.n	8002954 <HAL_RCC_OscConfig+0x260>
 80028f2:	9b01      	ldr	r3, [sp, #4]
 80028f4:	695b      	ldr	r3, [r3, #20]
 80028f6:	2b00      	cmp	r3, #0
 80028f8:	d016      	beq.n	8002928 <HAL_RCC_OscConfig+0x234>
 80028fa:	4b29      	ldr	r3, [pc, #164]	; (80029a0 <HAL_RCC_OscConfig+0x2ac>)
 80028fc:	2201      	movs	r2, #1
 80028fe:	601a      	str	r2, [r3, #0]
 8002900:	f7ff fd32 	bl	8002368 <HAL_GetTick>
 8002904:	9017      	str	r0, [sp, #92]	; 0x5c
 8002906:	e008      	b.n	800291a <HAL_RCC_OscConfig+0x226>
 8002908:	f7ff fd2e 	bl	8002368 <HAL_GetTick>
 800290c:	4602      	mov	r2, r0
 800290e:	9b17      	ldr	r3, [sp, #92]	; 0x5c
 8002910:	1ad3      	subs	r3, r2, r3
 8002912:	2b64      	cmp	r3, #100	; 0x64
 8002914:	d901      	bls.n	800291a <HAL_RCC_OscConfig+0x226>
 8002916:	2303      	movs	r3, #3
 8002918:	e130      	b.n	8002b7c <HAL_RCC_OscConfig+0x488>
 800291a:	4b1e      	ldr	r3, [pc, #120]	; (8002994 <HAL_RCC_OscConfig+0x2a0>)
 800291c:	6f5b      	ldr	r3, [r3, #116]	; 0x74
 800291e:	f003 0302 	and.w	r3, r3, #2
 8002922:	2b00      	cmp	r3, #0
 8002924:	d0f0      	beq.n	8002908 <HAL_RCC_OscConfig+0x214>
 8002926:	e015      	b.n	8002954 <HAL_RCC_OscConfig+0x260>
 8002928:	4b1d      	ldr	r3, [pc, #116]	; (80029a0 <HAL_RCC_OscConfig+0x2ac>)
 800292a:	2200      	movs	r2, #0
 800292c:	601a      	str	r2, [r3, #0]
 800292e:	f7ff fd1b 	bl	8002368 <HAL_GetTick>
 8002932:	9017      	str	r0, [sp, #92]	; 0x5c
 8002934:	e008      	b.n	8002948 <HAL_RCC_OscConfig+0x254>
 8002936:	f7ff fd17 	bl	8002368 <HAL_GetTick>
 800293a:	4602      	mov	r2, r0
 800293c:	9b17      	ldr	r3, [sp, #92]	; 0x5c
 800293e:	1ad3      	subs	r3, r2, r3
 8002940:	2b64      	cmp	r3, #100	; 0x64
 8002942:	d901      	bls.n	8002948 <HAL_RCC_OscConfig+0x254>
 8002944:	2303      	movs	r3, #3
 8002946:	e119      	b.n	8002b7c <HAL_RCC_OscConfig+0x488>
 8002948:	4b12      	ldr	r3, [pc, #72]	; (8002994 <HAL_RCC_OscConfig+0x2a0>)
 800294a:	6f5b      	ldr	r3, [r3, #116]	; 0x74
 800294c:	f003 0302 	and.w	r3, r3, #2
 8002950:	2b00      	cmp	r3, #0
 8002952:	d1f0      	bne.n	8002936 <HAL_RCC_OscConfig+0x242>
 8002954:	9b01      	ldr	r3, [sp, #4]
 8002956:	681b      	ldr	r3, [r3, #0]
 8002958:	f003 0304 	and.w	r3, r3, #4
 800295c:	2b00      	cmp	r3, #0
 800295e:	d072      	beq.n	8002a46 <HAL_RCC_OscConfig+0x352>
 8002960:	4a0c      	ldr	r2, [pc, #48]	; (8002994 <HAL_RCC_OscConfig+0x2a0>)
 8002962:	4b0c      	ldr	r3, [pc, #48]	; (8002994 <HAL_RCC_OscConfig+0x2a0>)
 8002964:	6c1b      	ldr	r3, [r3, #64]	; 0x40
 8002966:	f043 5380 	orr.w	r3, r3, #268435456	; 0x10000000
 800296a:	6413      	str	r3, [r2, #64]	; 0x40
 800296c:	4a0d      	ldr	r2, [pc, #52]	; (80029a4 <HAL_RCC_OscConfig+0x2b0>)
 800296e:	4b0d      	ldr	r3, [pc, #52]	; (80029a4 <HAL_RCC_OscConfig+0x2b0>)
 8002970:	681b      	ldr	r3, [r3, #0]
 8002972:	f443 7380 	orr.w	r3, r3, #256	; 0x100
 8002976:	6013      	str	r3, [r2, #0]
 8002978:	f7ff fcf6 	bl	8002368 <HAL_GetTick>
 800297c:	9017      	str	r0, [sp, #92]	; 0x5c
 800297e:	e013      	b.n	80029a8 <HAL_RCC_OscConfig+0x2b4>
 8002980:	f7ff fcf2 	bl	8002368 <HAL_GetTick>
 8002984:	4602      	mov	r2, r0
 8002986:	9b17      	ldr	r3, [sp, #92]	; 0x5c
 8002988:	1ad3      	subs	r3, r2, r3
 800298a:	2b64      	cmp	r3, #100	; 0x64
 800298c:	d90c      	bls.n	80029a8 <HAL_RCC_OscConfig+0x2b4>
 800298e:	2303      	movs	r3, #3
 8002990:	e0f4      	b.n	8002b7c <HAL_RCC_OscConfig+0x488>
 8002992:	bf00      	nop
 8002994:	40023800 	.word	0x40023800
 8002998:	40023802 	.word	0x40023802
 800299c:	42470000 	.word	0x42470000
 80029a0:	42470e80 	.word	0x42470e80
 80029a4:	40007000 	.word	0x40007000
 80029a8:	4b76      	ldr	r3, [pc, #472]	; (8002b84 <HAL_RCC_OscConfig+0x490>)
 80029aa:	681b      	ldr	r3, [r3, #0]
 80029ac:	f403 7380 	and.w	r3, r3, #256	; 0x100
 80029b0:	2b00      	cmp	r3, #0
 80029b2:	d0e5      	beq.n	8002980 <HAL_RCC_OscConfig+0x28c>
 80029b4:	4b74      	ldr	r3, [pc, #464]	; (8002b88 <HAL_RCC_OscConfig+0x494>)
 80029b6:	2200      	movs	r2, #0
 80029b8:	701a      	strb	r2, [r3, #0]
 80029ba:	f7ff fcd5 	bl	8002368 <HAL_GetTick>
 80029be:	9017      	str	r0, [sp, #92]	; 0x5c
 80029c0:	e009      	b.n	80029d6 <HAL_RCC_OscConfig+0x2e2>
 80029c2:	f7ff fcd1 	bl	8002368 <HAL_GetTick>
 80029c6:	4602      	mov	r2, r0
 80029c8:	9b17      	ldr	r3, [sp, #92]	; 0x5c
 80029ca:	1ad3      	subs	r3, r2, r3
 80029cc:	f5b3 7f16 	cmp.w	r3, #600	; 0x258
 80029d0:	d901      	bls.n	80029d6 <HAL_RCC_OscConfig+0x2e2>
 80029d2:	2303      	movs	r3, #3
 80029d4:	e0d2      	b.n	8002b7c <HAL_RCC_OscConfig+0x488>
 80029d6:	4b6d      	ldr	r3, [pc, #436]	; (8002b8c <HAL_RCC_OscConfig+0x498>)
 80029d8:	6f1b      	ldr	r3, [r3, #112]	; 0x70
 80029da:	f003 0302 	and.w	r3, r3, #2
 80029de:	2b00      	cmp	r3, #0
 80029e0:	d1ef      	bne.n	80029c2 <HAL_RCC_OscConfig+0x2ce>
 80029e2:	4a69      	ldr	r2, [pc, #420]	; (8002b88 <HAL_RCC_OscConfig+0x494>)
 80029e4:	9b01      	ldr	r3, [sp, #4]
 80029e6:	689b      	ldr	r3, [r3, #8]
 80029e8:	b2db      	uxtb	r3, r3
 80029ea:	7013      	strb	r3, [r2, #0]
 80029ec:	9b01      	ldr	r3, [sp, #4]
 80029ee:	689b      	ldr	r3, [r3, #8]
 80029f0:	2b01      	cmp	r3, #1
 80029f2:	d114      	bne.n	8002a1e <HAL_RCC_OscConfig+0x32a>
 80029f4:	f7ff fcb8 	bl	8002368 <HAL_GetTick>
 80029f8:	9017      	str	r0, [sp, #92]	; 0x5c
 80029fa:	e009      	b.n	8002a10 <HAL_RCC_OscConfig+0x31c>
 80029fc:	f7ff fcb4 	bl	8002368 <HAL_GetTick>
 8002a00:	4602      	mov	r2, r0
 8002a02:	9b17      	ldr	r3, [sp, #92]	; 0x5c
 8002a04:	1ad3      	subs	r3, r2, r3
 8002a06:	f5b3 7f16 	cmp.w	r3, #600	; 0x258
 8002a0a:	d901      	bls.n	8002a10 <HAL_RCC_OscConfig+0x31c>
 8002a0c:	2303      	movs	r3, #3
 8002a0e:	e0b5      	b.n	8002b7c <HAL_RCC_OscConfig+0x488>
 8002a10:	4b5e      	ldr	r3, [pc, #376]	; (8002b8c <HAL_RCC_OscConfig+0x498>)
 8002a12:	6f1b      	ldr	r3, [r3, #112]	; 0x70
 8002a14:	f003 0302 	and.w	r3, r3, #2
 8002a18:	2b00      	cmp	r3, #0
 8002a1a:	d0ef      	beq.n	80029fc <HAL_RCC_OscConfig+0x308>
 8002a1c:	e013      	b.n	8002a46 <HAL_RCC_OscConfig+0x352>
 8002a1e:	f7ff fca3 	bl	8002368 <HAL_GetTick>
 8002a22:	9017      	str	r0, [sp, #92]	; 0x5c
 8002a24:	e009      	b.n	8002a3a <HAL_RCC_OscConfig+0x346>
 8002a26:	f7ff fc9f 	bl	8002368 <HAL_GetTick>
 8002a2a:	4602      	mov	r2, r0
 8002a2c:	9b17      	ldr	r3, [sp, #92]	; 0x5c
 8002a2e:	1ad3      	subs	r3, r2, r3
 8002a30:	f5b3 7f16 	cmp.w	r3, #600	; 0x258
 8002a34:	d901      	bls.n	8002a3a <HAL_RCC_OscConfig+0x346>
 8002a36:	2303      	movs	r3, #3
 8002a38:	e0a0      	b.n	8002b7c <HAL_RCC_OscConfig+0x488>
 8002a3a:	4b54      	ldr	r3, [pc, #336]	; (8002b8c <HAL_RCC_OscConfig+0x498>)
 8002a3c:	6f1b      	ldr	r3, [r3, #112]	; 0x70
 8002a3e:	f003 0302 	and.w	r3, r3, #2
 8002a42:	2b00      	cmp	r3, #0
 8002a44:	d1ef      	bne.n	8002a26 <HAL_RCC_OscConfig+0x332>
 8002a46:	9b01      	ldr	r3, [sp, #4]
 8002a48:	699b      	ldr	r3, [r3, #24]
 8002a4a:	2b00      	cmp	r3, #0
 8002a4c:	f000 8095 	beq.w	8002b7a <HAL_RCC_OscConfig+0x486>
 8002a50:	4b4e      	ldr	r3, [pc, #312]	; (8002b8c <HAL_RCC_OscConfig+0x498>)
 8002a52:	689b      	ldr	r3, [r3, #8]
 8002a54:	f003 030c 	and.w	r3, r3, #12
 8002a58:	2b08      	cmp	r3, #8
 8002a5a:	f000 808c 	beq.w	8002b76 <HAL_RCC_OscConfig+0x482>
 8002a5e:	9b01      	ldr	r3, [sp, #4]
 8002a60:	699b      	ldr	r3, [r3, #24]
 8002a62:	2b02      	cmp	r3, #2
 8002a64:	d170      	bne.n	8002b48 <HAL_RCC_OscConfig+0x454>
 8002a66:	4b4a      	ldr	r3, [pc, #296]	; (8002b90 <HAL_RCC_OscConfig+0x49c>)
 8002a68:	2200      	movs	r2, #0
 8002a6a:	601a      	str	r2, [r3, #0]
 8002a6c:	f7ff fc7c 	bl	8002368 <HAL_GetTick>
 8002a70:	9017      	str	r0, [sp, #92]	; 0x5c
 8002a72:	e008      	b.n	8002a86 <HAL_RCC_OscConfig+0x392>
 8002a74:	f7ff fc78 	bl	8002368 <HAL_GetTick>
 8002a78:	4602      	mov	r2, r0
 8002a7a:	9b17      	ldr	r3, [sp, #92]	; 0x5c
 8002a7c:	1ad3      	subs	r3, r2, r3
 8002a7e:	2b64      	cmp	r3, #100	; 0x64
 8002a80:	d901      	bls.n	8002a86 <HAL_RCC_OscConfig+0x392>
 8002a82:	2303      	movs	r3, #3
 8002a84:	e07a      	b.n	8002b7c <HAL_RCC_OscConfig+0x488>
 8002a86:	4b41      	ldr	r3, [pc, #260]	; (8002b8c <HAL_RCC_OscConfig+0x498>)
 8002a88:	681b      	ldr	r3, [r3, #0]
 8002a8a:	f003 7300 	and.w	r3, r3, #33554432	; 0x2000000
 8002a8e:	2b00      	cmp	r3, #0
 8002a90:	d1f0      	bne.n	8002a74 <HAL_RCC_OscConfig+0x380>
 8002a92:	483e      	ldr	r0, [pc, #248]	; (8002b8c <HAL_RCC_OscConfig+0x498>)
 8002a94:	9b01      	ldr	r3, [sp, #4]
 8002a96:	6a1a      	ldr	r2, [r3, #32]
 8002a98:	9b01      	ldr	r3, [sp, #4]
 8002a9a:	6a5b      	ldr	r3, [r3, #36]	; 0x24
 8002a9c:	f647 71c0 	movw	r1, #32704	; 0x7fc0
 8002aa0:	910e      	str	r1, [sp, #56]	; 0x38
 8002aa2:	990e      	ldr	r1, [sp, #56]	; 0x38
 8002aa4:	fa91 f1a1 	rbit	r1, r1
 8002aa8:	910d      	str	r1, [sp, #52]	; 0x34
 8002aaa:	990d      	ldr	r1, [sp, #52]	; 0x34
 8002aac:	910c      	str	r1, [sp, #48]	; 0x30
 8002aae:	990c      	ldr	r1, [sp, #48]	; 0x30
 8002ab0:	fab1 f181 	clz	r1, r1
 8002ab4:	910b      	str	r1, [sp, #44]	; 0x2c
 8002ab6:	990b      	ldr	r1, [sp, #44]	; 0x2c
 8002ab8:	b2c9      	uxtb	r1, r1
 8002aba:	408b      	lsls	r3, r1
 8002abc:	431a      	orrs	r2, r3
 8002abe:	9b01      	ldr	r3, [sp, #4]
 8002ac0:	6a9b      	ldr	r3, [r3, #40]	; 0x28
 8002ac2:	085b      	lsrs	r3, r3, #1
 8002ac4:	3b01      	subs	r3, #1
 8002ac6:	f44f 3140 	mov.w	r1, #196608	; 0x30000
 8002aca:	910a      	str	r1, [sp, #40]	; 0x28
 8002acc:	990a      	ldr	r1, [sp, #40]	; 0x28
 8002ace:	fa91 f1a1 	rbit	r1, r1
 8002ad2:	9109      	str	r1, [sp, #36]	; 0x24
 8002ad4:	9909      	ldr	r1, [sp, #36]	; 0x24
 8002ad6:	9108      	str	r1, [sp, #32]
 8002ad8:	9908      	ldr	r1, [sp, #32]
 8002ada:	fab1 f181 	clz	r1, r1
 8002ade:	9107      	str	r1, [sp, #28]
 8002ae0:	9907      	ldr	r1, [sp, #28]
 8002ae2:	b2c9      	uxtb	r1, r1
 8002ae4:	408b      	lsls	r3, r1
 8002ae6:	431a      	orrs	r2, r3
 8002ae8:	9b01      	ldr	r3, [sp, #4]
 8002aea:	69db      	ldr	r3, [r3, #28]
 8002aec:	431a      	orrs	r2, r3
 8002aee:	9b01      	ldr	r3, [sp, #4]
 8002af0:	6adb      	ldr	r3, [r3, #44]	; 0x2c
 8002af2:	f04f 6170 	mov.w	r1, #251658240	; 0xf000000
 8002af6:	9106      	str	r1, [sp, #24]
 8002af8:	9906      	ldr	r1, [sp, #24]
 8002afa:	fa91 f1a1 	rbit	r1, r1
 8002afe:	9105      	str	r1, [sp, #20]
 8002b00:	9905      	ldr	r1, [sp, #20]
 8002b02:	9104      	str	r1, [sp, #16]
 8002b04:	9904      	ldr	r1, [sp, #16]
 8002b06:	fab1 f181 	clz	r1, r1
 8002b0a:	9103      	str	r1, [sp, #12]
 8002b0c:	9903      	ldr	r1, [sp, #12]
 8002b0e:	b2c9      	uxtb	r1, r1
 8002b10:	408b      	lsls	r3, r1
 8002b12:	4313      	orrs	r3, r2
 8002b14:	f043 5300 	orr.w	r3, r3, #536870912	; 0x20000000
 8002b18:	6043      	str	r3, [r0, #4]
 8002b1a:	4b1d      	ldr	r3, [pc, #116]	; (8002b90 <HAL_RCC_OscConfig+0x49c>)
 8002b1c:	2201      	movs	r2, #1
 8002b1e:	601a      	str	r2, [r3, #0]
 8002b20:	f7ff fc22 	bl	8002368 <HAL_GetTick>
 8002b24:	9017      	str	r0, [sp, #92]	; 0x5c
 8002b26:	e008      	b.n	8002b3a <HAL_RCC_OscConfig+0x446>
 8002b28:	f7ff fc1e 	bl	8002368 <HAL_GetTick>
 8002b2c:	4602      	mov	r2, r0
 8002b2e:	9b17      	ldr	r3, [sp, #92]	; 0x5c
 8002b30:	1ad3      	subs	r3, r2, r3
 8002b32:	2b64      	cmp	r3, #100	; 0x64
 8002b34:	d901      	bls.n	8002b3a <HAL_RCC_OscConfig+0x446>
 8002b36:	2303      	movs	r3, #3
 8002b38:	e020      	b.n	8002b7c <HAL_RCC_OscConfig+0x488>
 8002b3a:	4b14      	ldr	r3, [pc, #80]	; (8002b8c <HAL_RCC_OscConfig+0x498>)
 8002b3c:	681b      	ldr	r3, [r3, #0]
 8002b3e:	f003 7300 	and.w	r3, r3, #33554432	; 0x2000000
 8002b42:	2b00      	cmp	r3, #0
 8002b44:	d0f0      	beq.n	8002b28 <HAL_RCC_OscConfig+0x434>
 8002b46:	e018      	b.n	8002b7a <HAL_RCC_OscConfig+0x486>
 8002b48:	4b11      	ldr	r3, [pc, #68]	; (8002b90 <HAL_RCC_OscConfig+0x49c>)
 8002b4a:	2200      	movs	r2, #0
 8002b4c:	601a      	str	r2, [r3, #0]
 8002b4e:	f7ff fc0b 	bl	8002368 <HAL_GetTick>
 8002b52:	9017      	str	r0, [sp, #92]	; 0x5c
 8002b54:	e008      	b.n	8002b68 <HAL_RCC_OscConfig+0x474>
 8002b56:	f7ff fc07 	bl	8002368 <HAL_GetTick>
 8002b5a:	4602      	mov	r2, r0
 8002b5c:	9b17      	ldr	r3, [sp, #92]	; 0x5c
 8002b5e:	1ad3      	subs	r3, r2, r3
 8002b60:	2b64      	cmp	r3, #100	; 0x64
 8002b62:	d901      	bls.n	8002b68 <HAL_RCC_OscConfig+0x474>
 8002b64:	2303      	movs	r3, #3
 8002b66:	e009      	b.n	8002b7c <HAL_RCC_OscConfig+0x488>
 8002b68:	4b08      	ldr	r3, [pc, #32]	; (8002b8c <HAL_RCC_OscConfig+0x498>)
 8002b6a:	681b      	ldr	r3, [r3, #0]
 8002b6c:	f003 7300 	and.w	r3, r3, #33554432	; 0x2000000
 8002b70:	2b00      	cmp	r3, #0
 8002b72:	d1f0      	bne.n	8002b56 <HAL_RCC_OscConfig+0x462>
 8002b74:	e001      	b.n	8002b7a <HAL_RCC_OscConfig+0x486>
 8002b76:	2301      	movs	r3, #1
 8002b78:	e000      	b.n	8002b7c <HAL_RCC_OscConfig+0x488>
 8002b7a:	2300      	movs	r3, #0
 8002b7c:	4618      	mov	r0, r3
 8002b7e:	b019      	add	sp, #100	; 0x64
 8002b80:	f85d fb04 	ldr.w	pc, [sp], #4
 8002b84:	40007000 	.word	0x40007000
 8002b88:	40023870 	.word	0x40023870
 8002b8c:	40023800 	.word	0x40023800
 8002b90:	42470060 	.word	0x42470060

08002b94 <HAL_RCC_ClockConfig>:
 8002b94:	b500      	push	{lr}
 8002b96:	b085      	sub	sp, #20
 8002b98:	9001      	str	r0, [sp, #4]
 8002b9a:	9100      	str	r1, [sp, #0]
 8002b9c:	2300      	movs	r3, #0
 8002b9e:	9303      	str	r3, [sp, #12]
 8002ba0:	4ba6      	ldr	r3, [pc, #664]	; (8002e3c <HAL_RCC_ClockConfig+0x2a8>)
 8002ba2:	681b      	ldr	r3, [r3, #0]
 8002ba4:	f003 020f 	and.w	r2, r3, #15
 8002ba8:	9b00      	ldr	r3, [sp, #0]
 8002baa:	429a      	cmp	r2, r3
 8002bac:	f080 8090 	bcs.w	8002cd0 <HAL_RCC_ClockConfig+0x13c>
 8002bb0:	4ba2      	ldr	r3, [pc, #648]	; (8002e3c <HAL_RCC_ClockConfig+0x2a8>)
 8002bb2:	9a00      	ldr	r2, [sp, #0]
 8002bb4:	b2d2      	uxtb	r2, r2
 8002bb6:	701a      	strb	r2, [r3, #0]
 8002bb8:	4ba0      	ldr	r3, [pc, #640]	; (8002e3c <HAL_RCC_ClockConfig+0x2a8>)
 8002bba:	681b      	ldr	r3, [r3, #0]
 8002bbc:	f003 020f 	and.w	r2, r3, #15
 8002bc0:	9b00      	ldr	r3, [sp, #0]
 8002bc2:	429a      	cmp	r2, r3
 8002bc4:	d001      	beq.n	8002bca <HAL_RCC_ClockConfig+0x36>
 8002bc6:	2301      	movs	r3, #1
 8002bc8:	e133      	b.n	8002e32 <HAL_RCC_ClockConfig+0x29e>
 8002bca:	9b01      	ldr	r3, [sp, #4]
 8002bcc:	681b      	ldr	r3, [r3, #0]
 8002bce:	f003 0302 	and.w	r3, r3, #2
 8002bd2:	2b00      	cmp	r3, #0
 8002bd4:	d008      	beq.n	8002be8 <HAL_RCC_ClockConfig+0x54>
 8002bd6:	499a      	ldr	r1, [pc, #616]	; (8002e40 <HAL_RCC_ClockConfig+0x2ac>)
 8002bd8:	4b99      	ldr	r3, [pc, #612]	; (8002e40 <HAL_RCC_ClockConfig+0x2ac>)
 8002bda:	689b      	ldr	r3, [r3, #8]
 8002bdc:	f023 02f0 	bic.w	r2, r3, #240	; 0xf0
 8002be0:	9b01      	ldr	r3, [sp, #4]
 8002be2:	689b      	ldr	r3, [r3, #8]
 8002be4:	4313      	orrs	r3, r2
 8002be6:	608b      	str	r3, [r1, #8]
 8002be8:	9b01      	ldr	r3, [sp, #4]
 8002bea:	681b      	ldr	r3, [r3, #0]
 8002bec:	f003 0301 	and.w	r3, r3, #1
 8002bf0:	2b00      	cmp	r3, #0
 8002bf2:	f000 80fb 	beq.w	8002dec <HAL_RCC_ClockConfig+0x258>
 8002bf6:	9b01      	ldr	r3, [sp, #4]
 8002bf8:	685b      	ldr	r3, [r3, #4]
 8002bfa:	2b01      	cmp	r3, #1
 8002bfc:	d107      	bne.n	8002c0e <HAL_RCC_ClockConfig+0x7a>
 8002bfe:	4b90      	ldr	r3, [pc, #576]	; (8002e40 <HAL_RCC_ClockConfig+0x2ac>)
 8002c00:	681b      	ldr	r3, [r3, #0]
 8002c02:	f403 3300 	and.w	r3, r3, #131072	; 0x20000
 8002c06:	2b00      	cmp	r3, #0
 8002c08:	d115      	bne.n	8002c36 <HAL_RCC_ClockConfig+0xa2>
 8002c0a:	2301      	movs	r3, #1
 8002c0c:	e111      	b.n	8002e32 <HAL_RCC_ClockConfig+0x29e>
 8002c0e:	9b01      	ldr	r3, [sp, #4]
 8002c10:	685b      	ldr	r3, [r3, #4]
 8002c12:	2b02      	cmp	r3, #2
 8002c14:	d107      	bne.n	8002c26 <HAL_RCC_ClockConfig+0x92>
 8002c16:	4b8a      	ldr	r3, [pc, #552]	; (8002e40 <HAL_RCC_ClockConfig+0x2ac>)
 8002c18:	681b      	ldr	r3, [r3, #0]
 8002c1a:	f003 7300 	and.w	r3, r3, #33554432	; 0x2000000
 8002c1e:	2b00      	cmp	r3, #0
 8002c20:	d109      	bne.n	8002c36 <HAL_RCC_ClockConfig+0xa2>
 8002c22:	2301      	movs	r3, #1
 8002c24:	e105      	b.n	8002e32 <HAL_RCC_ClockConfig+0x29e>
 8002c26:	4b86      	ldr	r3, [pc, #536]	; (8002e40 <HAL_RCC_ClockConfig+0x2ac>)
 8002c28:	681b      	ldr	r3, [r3, #0]
 8002c2a:	f003 0302 	and.w	r3, r3, #2
 8002c2e:	2b00      	cmp	r3, #0
 8002c30:	d101      	bne.n	8002c36 <HAL_RCC_ClockConfig+0xa2>
 8002c32:	2301      	movs	r3, #1
 8002c34:	e0fd      	b.n	8002e32 <HAL_RCC_ClockConfig+0x29e>
 8002c36:	4982      	ldr	r1, [pc, #520]	; (8002e40 <HAL_RCC_ClockConfig+0x2ac>)
 8002c38:	4b81      	ldr	r3, [pc, #516]	; (8002e40 <HAL_RCC_ClockConfig+0x2ac>)
 8002c3a:	689b      	ldr	r3, [r3, #8]
 8002c3c:	f023 0203 	bic.w	r2, r3, #3
 8002c40:	9b01      	ldr	r3, [sp, #4]
 8002c42:	685b      	ldr	r3, [r3, #4]
 8002c44:	4313      	orrs	r3, r2
 8002c46:	608b      	str	r3, [r1, #8]
 8002c48:	f7ff fb8e 	bl	8002368 <HAL_GetTick>
 8002c4c:	9003      	str	r0, [sp, #12]
 8002c4e:	9b01      	ldr	r3, [sp, #4]
 8002c50:	685b      	ldr	r3, [r3, #4]
 8002c52:	2b01      	cmp	r3, #1
 8002c54:	d112      	bne.n	8002c7c <HAL_RCC_ClockConfig+0xe8>
 8002c56:	e00a      	b.n	8002c6e <HAL_RCC_ClockConfig+0xda>
 8002c58:	f7ff fb86 	bl	8002368 <HAL_GetTick>
 8002c5c:	4602      	mov	r2, r0
 8002c5e:	9b03      	ldr	r3, [sp, #12]
 8002c60:	1ad3      	subs	r3, r2, r3
 8002c62:	f241 3288 	movw	r2, #5000	; 0x1388
 8002c66:	4293      	cmp	r3, r2
 8002c68:	d901      	bls.n	8002c6e <HAL_RCC_ClockConfig+0xda>
 8002c6a:	2303      	movs	r3, #3
 8002c6c:	e0e1      	b.n	8002e32 <HAL_RCC_ClockConfig+0x29e>
 8002c6e:	4b74      	ldr	r3, [pc, #464]	; (8002e40 <HAL_RCC_ClockConfig+0x2ac>)
 8002c70:	689b      	ldr	r3, [r3, #8]
 8002c72:	f003 030c 	and.w	r3, r3, #12
 8002c76:	2b04      	cmp	r3, #4
 8002c78:	d1ee      	bne.n	8002c58 <HAL_RCC_ClockConfig+0xc4>
 8002c7a:	e0b7      	b.n	8002dec <HAL_RCC_ClockConfig+0x258>
 8002c7c:	9b01      	ldr	r3, [sp, #4]
 8002c7e:	685b      	ldr	r3, [r3, #4]
 8002c80:	2b02      	cmp	r3, #2
 8002c82:	d112      	bne.n	8002caa <HAL_RCC_ClockConfig+0x116>
 8002c84:	e00a      	b.n	8002c9c <HAL_RCC_ClockConfig+0x108>
 8002c86:	f7ff fb6f 	bl	8002368 <HAL_GetTick>
 8002c8a:	4602      	mov	r2, r0
 8002c8c:	9b03      	ldr	r3, [sp, #12]
 8002c8e:	1ad3      	subs	r3, r2, r3
 8002c90:	f241 3288 	movw	r2, #5000	; 0x1388
 8002c94:	4293      	cmp	r3, r2
 8002c96:	d901      	bls.n	8002c9c <HAL_RCC_ClockConfig+0x108>
 8002c98:	2303      	movs	r3, #3
 8002c9a:	e0ca      	b.n	8002e32 <HAL_RCC_ClockConfig+0x29e>
 8002c9c:	4b68      	ldr	r3, [pc, #416]	; (8002e40 <HAL_RCC_ClockConfig+0x2ac>)
 8002c9e:	689b      	ldr	r3, [r3, #8]
 8002ca0:	f003 030c 	and.w	r3, r3, #12
 8002ca4:	2b08      	cmp	r3, #8
 8002ca6:	d1ee      	bne.n	8002c86 <HAL_RCC_ClockConfig+0xf2>
 8002ca8:	e0a0      	b.n	8002dec <HAL_RCC_ClockConfig+0x258>
 8002caa:	e00a      	b.n	8002cc2 <HAL_RCC_ClockConfig+0x12e>
 8002cac:	f7ff fb5c 	bl	8002368 <HAL_GetTick>
 8002cb0:	4602      	mov	r2, r0
 8002cb2:	9b03      	ldr	r3, [sp, #12]
 8002cb4:	1ad3      	subs	r3, r2, r3
 8002cb6:	f241 3288 	movw	r2, #5000	; 0x1388
 8002cba:	4293      	cmp	r3, r2
 8002cbc:	d901      	bls.n	8002cc2 <HAL_RCC_ClockConfig+0x12e>
 8002cbe:	2303      	movs	r3, #3
 8002cc0:	e0b7      	b.n	8002e32 <HAL_RCC_ClockConfig+0x29e>
 8002cc2:	4b5f      	ldr	r3, [pc, #380]	; (8002e40 <HAL_RCC_ClockConfig+0x2ac>)
 8002cc4:	689b      	ldr	r3, [r3, #8]
 8002cc6:	f003 030c 	and.w	r3, r3, #12
 8002cca:	2b00      	cmp	r3, #0
 8002ccc:	d1ee      	bne.n	8002cac <HAL_RCC_ClockConfig+0x118>
 8002cce:	e08d      	b.n	8002dec <HAL_RCC_ClockConfig+0x258>
 8002cd0:	9b01      	ldr	r3, [sp, #4]
 8002cd2:	681b      	ldr	r3, [r3, #0]
 8002cd4:	f003 0302 	and.w	r3, r3, #2
 8002cd8:	2b00      	cmp	r3, #0
 8002cda:	d008      	beq.n	8002cee <HAL_RCC_ClockConfig+0x15a>
 8002cdc:	4958      	ldr	r1, [pc, #352]	; (8002e40 <HAL_RCC_ClockConfig+0x2ac>)
 8002cde:	4b58      	ldr	r3, [pc, #352]	; (8002e40 <HAL_RCC_ClockConfig+0x2ac>)
 8002ce0:	689b      	ldr	r3, [r3, #8]
 8002ce2:	f023 02f0 	bic.w	r2, r3, #240	; 0xf0
 8002ce6:	9b01      	ldr	r3, [sp, #4]
 8002ce8:	689b      	ldr	r3, [r3, #8]
 8002cea:	4313      	orrs	r3, r2
 8002cec:	608b      	str	r3, [r1, #8]
 8002cee:	9b01      	ldr	r3, [sp, #4]
 8002cf0:	681b      	ldr	r3, [r3, #0]
 8002cf2:	f003 0301 	and.w	r3, r3, #1
 8002cf6:	2b00      	cmp	r3, #0
 8002cf8:	d06b      	beq.n	8002dd2 <HAL_RCC_ClockConfig+0x23e>
 8002cfa:	9b01      	ldr	r3, [sp, #4]
 8002cfc:	685b      	ldr	r3, [r3, #4]
 8002cfe:	2b01      	cmp	r3, #1
 8002d00:	d107      	bne.n	8002d12 <HAL_RCC_ClockConfig+0x17e>
 8002d02:	4b4f      	ldr	r3, [pc, #316]	; (8002e40 <HAL_RCC_ClockConfig+0x2ac>)
 8002d04:	681b      	ldr	r3, [r3, #0]
 8002d06:	f403 3300 	and.w	r3, r3, #131072	; 0x20000
 8002d0a:	2b00      	cmp	r3, #0
 8002d0c:	d115      	bne.n	8002d3a <HAL_RCC_ClockConfig+0x1a6>
 8002d0e:	2301      	movs	r3, #1
 8002d10:	e08f      	b.n	8002e32 <HAL_RCC_ClockConfig+0x29e>
 8002d12:	9b01      	ldr	r3, [sp, #4]
 8002d14:	685b      	ldr	r3, [r3, #4]
 8002d16:	2b02      	cmp	r3, #2
 8002d18:	d107      	bne.n	8002d2a <HAL_RCC_ClockConfig+0x196>
 8002d1a:	4b49      	ldr	r3, [pc, #292]	; (8002e40 <HAL_RCC_ClockConfig+0x2ac>)
 8002d1c:	681b      	ldr	r3, [r3, #0]
 8002d1e:	f003 7300 	and.w	r3, r3, #33554432	; 0x2000000
 8002d22:	2b00      	cmp	r3, #0
 8002d24:	d109      	bne.n	8002d3a <HAL_RCC_ClockConfig+0x1a6>
 8002d26:	2301      	movs	r3, #1
 8002d28:	e083      	b.n	8002e32 <HAL_RCC_ClockConfig+0x29e>
 8002d2a:	4b45      	ldr	r3, [pc, #276]	; (8002e40 <HAL_RCC_ClockConfig+0x2ac>)
 8002d2c:	681b      	ldr	r3, [r3, #0]
 8002d2e:	f003 0302 	and.w	r3, r3, #2
 8002d32:	2b00      	cmp	r3, #0
 8002d34:	d101      	bne.n	8002d3a <HAL_RCC_ClockConfig+0x1a6>
 8002d36:	2301      	movs	r3, #1
 8002d38:	e07b      	b.n	8002e32 <HAL_RCC_ClockConfig+0x29e>
 8002d3a:	4941      	ldr	r1, [pc, #260]	; (8002e40 <HAL_RCC_ClockConfig+0x2ac>)
 8002d3c:	4b40      	ldr	r3, [pc, #256]	; (8002e40 <HAL_RCC_ClockConfig+0x2ac>)
 8002d3e:	689b      	ldr	r3, [r3, #8]
 8002d40:	f023 0203 	bic.w	r2, r3, #3
 8002d44:	9b01      	ldr	r3, [sp, #4]
 8002d46:	685b      	ldr	r3, [r3, #4]
 8002d48:	4313      	orrs	r3, r2
 8002d4a:	608b      	str	r3, [r1, #8]
 8002d4c:	f7ff fb0c 	bl	8002368 <HAL_GetTick>
 8002d50:	9003      	str	r0, [sp, #12]
 8002d52:	9b01      	ldr	r3, [sp, #4]
 8002d54:	685b      	ldr	r3, [r3, #4]
 8002d56:	2b01      	cmp	r3, #1
 8002d58:	d112      	bne.n	8002d80 <HAL_RCC_ClockConfig+0x1ec>
 8002d5a:	e00a      	b.n	8002d72 <HAL_RCC_ClockConfig+0x1de>
 8002d5c:	f7ff fb04 	bl	8002368 <HAL_GetTick>
 8002d60:	4602      	mov	r2, r0
 8002d62:	9b03      	ldr	r3, [sp, #12]
 8002d64:	1ad3      	subs	r3, r2, r3
 8002d66:	f241 3288 	movw	r2, #5000	; 0x1388
 8002d6a:	4293      	cmp	r3, r2
 8002d6c:	d901      	bls.n	8002d72 <HAL_RCC_ClockConfig+0x1de>
 8002d6e:	2303      	movs	r3, #3
 8002d70:	e05f      	b.n	8002e32 <HAL_RCC_ClockConfig+0x29e>
 8002d72:	4b33      	ldr	r3, [pc, #204]	; (8002e40 <HAL_RCC_ClockConfig+0x2ac>)
 8002d74:	689b      	ldr	r3, [r3, #8]
 8002d76:	f003 030c 	and.w	r3, r3, #12
 8002d7a:	2b04      	cmp	r3, #4
 8002d7c:	d1ee      	bne.n	8002d5c <HAL_RCC_ClockConfig+0x1c8>
 8002d7e:	e028      	b.n	8002dd2 <HAL_RCC_ClockConfig+0x23e>
 8002d80:	9b01      	ldr	r3, [sp, #4]
 8002d82:	685b      	ldr	r3, [r3, #4]
 8002d84:	2b02      	cmp	r3, #2
 8002d86:	d112      	bne.n	8002dae <HAL_RCC_ClockConfig+0x21a>
 8002d88:	e00a      	b.n	8002da0 <HAL_RCC_ClockConfig+0x20c>
 8002d8a:	f7ff faed 	bl	8002368 <HAL_GetTick>
 8002d8e:	4602      	mov	r2, r0
 8002d90:	9b03      	ldr	r3, [sp, #12]
 8002d92:	1ad3      	subs	r3, r2, r3
 8002d94:	f241 3288 	movw	r2, #5000	; 0x1388
 8002d98:	4293      	cmp	r3, r2
 8002d9a:	d901      	bls.n	8002da0 <HAL_RCC_ClockConfig+0x20c>
 8002d9c:	2303      	movs	r3, #3
 8002d9e:	e048      	b.n	8002e32 <HAL_RCC_ClockConfig+0x29e>
 8002da0:	4b27      	ldr	r3, [pc, #156]	; (8002e40 <HAL_RCC_ClockConfig+0x2ac>)
 8002da2:	689b      	ldr	r3, [r3, #8]
 8002da4:	f003 030c 	and.w	r3, r3, #12
 8002da8:	2b08      	cmp	r3, #8
 8002daa:	d1ee      	bne.n	8002d8a <HAL_RCC_ClockConfig+0x1f6>
 8002dac:	e011      	b.n	8002dd2 <HAL_RCC_ClockConfig+0x23e>
 8002dae:	e00a      	b.n	8002dc6 <HAL_RCC_ClockConfig+0x232>
 8002db0:	f7ff fada 	bl	8002368 <HAL_GetTick>
 8002db4:	4602      	mov	r2, r0
 8002db6:	9b03      	ldr	r3, [sp, #12]
 8002db8:	1ad3      	subs	r3, r2, r3
 8002dba:	f241 3288 	movw	r2, #5000	; 0x1388
 8002dbe:	4293      	cmp	r3, r2
 8002dc0:	d901      	bls.n	8002dc6 <HAL_RCC_ClockConfig+0x232>
 8002dc2:	2303      	movs	r3, #3
 8002dc4:	e035      	b.n	8002e32 <HAL_RCC_ClockConfig+0x29e>
 8002dc6:	4b1e      	ldr	r3, [pc, #120]	; (8002e40 <HAL_RCC_ClockConfig+0x2ac>)
 8002dc8:	689b      	ldr	r3, [r3, #8]
 8002dca:	f003 030c 	and.w	r3, r3, #12
 8002dce:	2b00      	cmp	r3, #0
 8002dd0:	d1ee      	bne.n	8002db0 <HAL_RCC_ClockConfig+0x21c>
 8002dd2:	4b1a      	ldr	r3, [pc, #104]	; (8002e3c <HAL_RCC_ClockConfig+0x2a8>)
 8002dd4:	9a00      	ldr	r2, [sp, #0]
 8002dd6:	b2d2      	uxtb	r2, r2
 8002dd8:	701a      	strb	r2, [r3, #0]
 8002dda:	4b18      	ldr	r3, [pc, #96]	; (8002e3c <HAL_RCC_ClockConfig+0x2a8>)
 8002ddc:	681b      	ldr	r3, [r3, #0]
 8002dde:	f003 020f 	and.w	r2, r3, #15
 8002de2:	9b00      	ldr	r3, [sp, #0]
 8002de4:	429a      	cmp	r2, r3
 8002de6:	d001      	beq.n	8002dec <HAL_RCC_ClockConfig+0x258>
 8002de8:	2301      	movs	r3, #1
 8002dea:	e022      	b.n	8002e32 <HAL_RCC_ClockConfig+0x29e>
 8002dec:	9b01      	ldr	r3, [sp, #4]
 8002dee:	681b      	ldr	r3, [r3, #0]
 8002df0:	f003 0304 	and.w	r3, r3, #4
 8002df4:	2b00      	cmp	r3, #0
 8002df6:	d008      	beq.n	8002e0a <HAL_RCC_ClockConfig+0x276>
 8002df8:	4911      	ldr	r1, [pc, #68]	; (8002e40 <HAL_RCC_ClockConfig+0x2ac>)
 8002dfa:	4b11      	ldr	r3, [pc, #68]	; (8002e40 <HAL_RCC_ClockConfig+0x2ac>)
 8002dfc:	689b      	ldr	r3, [r3, #8]
 8002dfe:	f423 52e0 	bic.w	r2, r3, #7168	; 0x1c00
 8002e02:	9b01      	ldr	r3, [sp, #4]
 8002e04:	68db      	ldr	r3, [r3, #12]
 8002e06:	4313      	orrs	r3, r2
 8002e08:	608b      	str	r3, [r1, #8]
 8002e0a:	9b01      	ldr	r3, [sp, #4]
 8002e0c:	681b      	ldr	r3, [r3, #0]
 8002e0e:	f003 0308 	and.w	r3, r3, #8
 8002e12:	2b00      	cmp	r3, #0
 8002e14:	d009      	beq.n	8002e2a <HAL_RCC_ClockConfig+0x296>
 8002e16:	490a      	ldr	r1, [pc, #40]	; (8002e40 <HAL_RCC_ClockConfig+0x2ac>)
 8002e18:	4b09      	ldr	r3, [pc, #36]	; (8002e40 <HAL_RCC_ClockConfig+0x2ac>)
 8002e1a:	689b      	ldr	r3, [r3, #8]
 8002e1c:	f423 4260 	bic.w	r2, r3, #57344	; 0xe000
 8002e20:	9b01      	ldr	r3, [sp, #4]
 8002e22:	691b      	ldr	r3, [r3, #16]
 8002e24:	00db      	lsls	r3, r3, #3
 8002e26:	4313      	orrs	r3, r2
 8002e28:	608b      	str	r3, [r1, #8]
 8002e2a:	200f      	movs	r0, #15
 8002e2c:	f000 fc40 	bl	80036b0 <HAL_InitTick>
 8002e30:	2300      	movs	r3, #0
 8002e32:	4618      	mov	r0, r3
 8002e34:	b005      	add	sp, #20
 8002e36:	f85d fb04 	ldr.w	pc, [sp], #4
 8002e3a:	bf00      	nop
 8002e3c:	40023c00 	.word	0x40023c00
 8002e40:	40023800 	.word	0x40023800

08002e44 <HAL_RCC_GetSysClockFreq>:
 8002e44:	b094      	sub	sp, #80	; 0x50
 8002e46:	2300      	movs	r3, #0
 8002e48:	9311      	str	r3, [sp, #68]	; 0x44
 8002e4a:	2300      	movs	r3, #0
 8002e4c:	9313      	str	r3, [sp, #76]	; 0x4c
 8002e4e:	2300      	movs	r3, #0
 8002e50:	9310      	str	r3, [sp, #64]	; 0x40
 8002e52:	2300      	movs	r3, #0
 8002e54:	9312      	str	r3, [sp, #72]	; 0x48
 8002e56:	4b44      	ldr	r3, [pc, #272]	; (8002f68 <HAL_RCC_GetSysClockFreq+0x124>)
 8002e58:	689b      	ldr	r3, [r3, #8]
 8002e5a:	f003 030c 	and.w	r3, r3, #12
 8002e5e:	2b04      	cmp	r3, #4
 8002e60:	d006      	beq.n	8002e70 <HAL_RCC_GetSysClockFreq+0x2c>
 8002e62:	2b08      	cmp	r3, #8
 8002e64:	d007      	beq.n	8002e76 <HAL_RCC_GetSysClockFreq+0x32>
 8002e66:	2b00      	cmp	r3, #0
 8002e68:	d176      	bne.n	8002f58 <HAL_RCC_GetSysClockFreq+0x114>
 8002e6a:	4b40      	ldr	r3, [pc, #256]	; (8002f6c <HAL_RCC_GetSysClockFreq+0x128>)
 8002e6c:	9312      	str	r3, [sp, #72]	; 0x48
 8002e6e:	e076      	b.n	8002f5e <HAL_RCC_GetSysClockFreq+0x11a>
 8002e70:	4b3f      	ldr	r3, [pc, #252]	; (8002f70 <HAL_RCC_GetSysClockFreq+0x12c>)
 8002e72:	9312      	str	r3, [sp, #72]	; 0x48
 8002e74:	e073      	b.n	8002f5e <HAL_RCC_GetSysClockFreq+0x11a>
 8002e76:	4b3c      	ldr	r3, [pc, #240]	; (8002f68 <HAL_RCC_GetSysClockFreq+0x124>)
 8002e78:	685b      	ldr	r3, [r3, #4]
 8002e7a:	f003 033f 	and.w	r3, r3, #63	; 0x3f
 8002e7e:	9311      	str	r3, [sp, #68]	; 0x44
 8002e80:	4b39      	ldr	r3, [pc, #228]	; (8002f68 <HAL_RCC_GetSysClockFreq+0x124>)
 8002e82:	685b      	ldr	r3, [r3, #4]
 8002e84:	f403 0380 	and.w	r3, r3, #4194304	; 0x400000
 8002e88:	f44f 0280 	mov.w	r2, #4194304	; 0x400000
 8002e8c:	920f      	str	r2, [sp, #60]	; 0x3c
 8002e8e:	9a0f      	ldr	r2, [sp, #60]	; 0x3c
 8002e90:	fa92 f2a2 	rbit	r2, r2
 8002e94:	920e      	str	r2, [sp, #56]	; 0x38
 8002e96:	9a0e      	ldr	r2, [sp, #56]	; 0x38
 8002e98:	920d      	str	r2, [sp, #52]	; 0x34
 8002e9a:	9a0d      	ldr	r2, [sp, #52]	; 0x34
 8002e9c:	fab2 f282 	clz	r2, r2
 8002ea0:	920c      	str	r2, [sp, #48]	; 0x30
 8002ea2:	9a0c      	ldr	r2, [sp, #48]	; 0x30
 8002ea4:	b2d2      	uxtb	r2, r2
 8002ea6:	40d3      	lsrs	r3, r2
 8002ea8:	2b00      	cmp	r3, #0
 8002eaa:	d01c      	beq.n	8002ee6 <HAL_RCC_GetSysClockFreq+0xa2>
 8002eac:	4a30      	ldr	r2, [pc, #192]	; (8002f70 <HAL_RCC_GetSysClockFreq+0x12c>)
 8002eae:	9b11      	ldr	r3, [sp, #68]	; 0x44
 8002eb0:	fbb2 f2f3 	udiv	r2, r2, r3
 8002eb4:	4b2c      	ldr	r3, [pc, #176]	; (8002f68 <HAL_RCC_GetSysClockFreq+0x124>)
 8002eb6:	6859      	ldr	r1, [r3, #4]
 8002eb8:	f647 73c0 	movw	r3, #32704	; 0x7fc0
 8002ebc:	400b      	ands	r3, r1
 8002ebe:	f647 71c0 	movw	r1, #32704	; 0x7fc0
 8002ec2:	910b      	str	r1, [sp, #44]	; 0x2c
 8002ec4:	990b      	ldr	r1, [sp, #44]	; 0x2c
 8002ec6:	fa91 f1a1 	rbit	r1, r1
 8002eca:	910a      	str	r1, [sp, #40]	; 0x28
 8002ecc:	990a      	ldr	r1, [sp, #40]	; 0x28
 8002ece:	9109      	str	r1, [sp, #36]	; 0x24
 8002ed0:	9909      	ldr	r1, [sp, #36]	; 0x24
 8002ed2:	fab1 f181 	clz	r1, r1
 8002ed6:	9108      	str	r1, [sp, #32]
 8002ed8:	9908      	ldr	r1, [sp, #32]
 8002eda:	b2c9      	uxtb	r1, r1
 8002edc:	40cb      	lsrs	r3, r1
 8002ede:	fb03 f302 	mul.w	r3, r3, r2
 8002ee2:	9313      	str	r3, [sp, #76]	; 0x4c
 8002ee4:	e01b      	b.n	8002f1e <HAL_RCC_GetSysClockFreq+0xda>
 8002ee6:	4a21      	ldr	r2, [pc, #132]	; (8002f6c <HAL_RCC_GetSysClockFreq+0x128>)
 8002ee8:	9b11      	ldr	r3, [sp, #68]	; 0x44
 8002eea:	fbb2 f2f3 	udiv	r2, r2, r3
 8002eee:	4b1e      	ldr	r3, [pc, #120]	; (8002f68 <HAL_RCC_GetSysClockFreq+0x124>)
 8002ef0:	6859      	ldr	r1, [r3, #4]
 8002ef2:	f647 73c0 	movw	r3, #32704	; 0x7fc0
 8002ef6:	400b      	ands	r3, r1
 8002ef8:	f647 71c0 	movw	r1, #32704	; 0x7fc0
 8002efc:	9107      	str	r1, [sp, #28]
 8002efe:	9907      	ldr	r1, [sp, #28]
 8002f00:	fa91 f1a1 	rbit	r1, r1
 8002f04:	9106      	str	r1, [sp, #24]
 8002f06:	9906      	ldr	r1, [sp, #24]
 8002f08:	9105      	str	r1, [sp, #20]
 8002f0a:	9905      	ldr	r1, [sp, #20]
 8002f0c:	fab1 f181 	clz	r1, r1
 8002f10:	9104      	str	r1, [sp, #16]
 8002f12:	9904      	ldr	r1, [sp, #16]
 8002f14:	b2c9      	uxtb	r1, r1
 8002f16:	40cb      	lsrs	r3, r1
 8002f18:	fb03 f302 	mul.w	r3, r3, r2
 8002f1c:	9313      	str	r3, [sp, #76]	; 0x4c
 8002f1e:	4b12      	ldr	r3, [pc, #72]	; (8002f68 <HAL_RCC_GetSysClockFreq+0x124>)
 8002f20:	685b      	ldr	r3, [r3, #4]
 8002f22:	f403 3340 	and.w	r3, r3, #196608	; 0x30000
 8002f26:	f44f 3240 	mov.w	r2, #196608	; 0x30000
 8002f2a:	9203      	str	r2, [sp, #12]
 8002f2c:	9a03      	ldr	r2, [sp, #12]
 8002f2e:	fa92 f2a2 	rbit	r2, r2
 8002f32:	9202      	str	r2, [sp, #8]
 8002f34:	9a02      	ldr	r2, [sp, #8]
 8002f36:	9201      	str	r2, [sp, #4]
 8002f38:	9a01      	ldr	r2, [sp, #4]
 8002f3a:	fab2 f282 	clz	r2, r2
 8002f3e:	9200      	str	r2, [sp, #0]
 8002f40:	9a00      	ldr	r2, [sp, #0]
 8002f42:	b2d2      	uxtb	r2, r2
 8002f44:	40d3      	lsrs	r3, r2
 8002f46:	3301      	adds	r3, #1
 8002f48:	005b      	lsls	r3, r3, #1
 8002f4a:	9310      	str	r3, [sp, #64]	; 0x40
 8002f4c:	9a13      	ldr	r2, [sp, #76]	; 0x4c
 8002f4e:	9b10      	ldr	r3, [sp, #64]	; 0x40
 8002f50:	fbb2 f3f3 	udiv	r3, r2, r3
 8002f54:	9312      	str	r3, [sp, #72]	; 0x48
 8002f56:	e002      	b.n	8002f5e <HAL_RCC_GetSysClockFreq+0x11a>
 8002f58:	4b04      	ldr	r3, [pc, #16]	; (8002f6c <HAL_RCC_GetSysClockFreq+0x128>)
 8002f5a:	9312      	str	r3, [sp, #72]	; 0x48
 8002f5c:	bf00      	nop
 8002f5e:	9b12      	ldr	r3, [sp, #72]	; 0x48
 8002f60:	4618      	mov	r0, r3
 8002f62:	b014      	add	sp, #80	; 0x50
 8002f64:	4770      	bx	lr
 8002f66:	bf00      	nop
 8002f68:	40023800 	.word	0x40023800
 8002f6c:	00f42400 	.word	0x00f42400
 8002f70:	007a1200 	.word	0x007a1200

08002f74 <HAL_RCC_GetHCLKFreq>:
 8002f74:	b500      	push	{lr}
 8002f76:	b085      	sub	sp, #20
 8002f78:	f7ff ff64 	bl	8002e44 <HAL_RCC_GetSysClockFreq>
 8002f7c:	4601      	mov	r1, r0
 8002f7e:	4b0f      	ldr	r3, [pc, #60]	; (8002fbc <HAL_RCC_GetHCLKFreq+0x48>)
 8002f80:	689b      	ldr	r3, [r3, #8]
 8002f82:	f003 03f0 	and.w	r3, r3, #240	; 0xf0
 8002f86:	22f0      	movs	r2, #240	; 0xf0
 8002f88:	9203      	str	r2, [sp, #12]
 8002f8a:	9a03      	ldr	r2, [sp, #12]
 8002f8c:	fa92 f2a2 	rbit	r2, r2
 8002f90:	9202      	str	r2, [sp, #8]
 8002f92:	9a02      	ldr	r2, [sp, #8]
 8002f94:	9201      	str	r2, [sp, #4]
 8002f96:	9a01      	ldr	r2, [sp, #4]
 8002f98:	fab2 f282 	clz	r2, r2
 8002f9c:	9200      	str	r2, [sp, #0]
 8002f9e:	9a00      	ldr	r2, [sp, #0]
 8002fa0:	b2d2      	uxtb	r2, r2
 8002fa2:	40d3      	lsrs	r3, r2
 8002fa4:	4a06      	ldr	r2, [pc, #24]	; (8002fc0 <HAL_RCC_GetHCLKFreq+0x4c>)
 8002fa6:	5cd3      	ldrb	r3, [r2, r3]
 8002fa8:	fa21 f303 	lsr.w	r3, r1, r3
 8002fac:	4a05      	ldr	r2, [pc, #20]	; (8002fc4 <HAL_RCC_GetHCLKFreq+0x50>)
 8002fae:	6013      	str	r3, [r2, #0]
 8002fb0:	4b04      	ldr	r3, [pc, #16]	; (8002fc4 <HAL_RCC_GetHCLKFreq+0x50>)
 8002fb2:	681b      	ldr	r3, [r3, #0]
 8002fb4:	4618      	mov	r0, r3
 8002fb6:	b005      	add	sp, #20
 8002fb8:	f85d fb04 	ldr.w	pc, [sp], #4
 8002fbc:	40023800 	.word	0x40023800
 8002fc0:	080074ec 	.word	0x080074ec
 8002fc4:	20000198 	.word	0x20000198

08002fc8 <HAL_RCC_GetPCLK1Freq>:
 8002fc8:	b500      	push	{lr}
 8002fca:	b085      	sub	sp, #20
 8002fcc:	f7ff ffd2 	bl	8002f74 <HAL_RCC_GetHCLKFreq>
 8002fd0:	4601      	mov	r1, r0
 8002fd2:	4b0e      	ldr	r3, [pc, #56]	; (800300c <HAL_RCC_GetPCLK1Freq+0x44>)
 8002fd4:	689b      	ldr	r3, [r3, #8]
 8002fd6:	f403 53e0 	and.w	r3, r3, #7168	; 0x1c00
 8002fda:	f44f 52e0 	mov.w	r2, #7168	; 0x1c00
 8002fde:	9203      	str	r2, [sp, #12]
 8002fe0:	9a03      	ldr	r2, [sp, #12]
 8002fe2:	fa92 f2a2 	rbit	r2, r2
 8002fe6:	9202      	str	r2, [sp, #8]
 8002fe8:	9a02      	ldr	r2, [sp, #8]
 8002fea:	9201      	str	r2, [sp, #4]
 8002fec:	9a01      	ldr	r2, [sp, #4]
 8002fee:	fab2 f282 	clz	r2, r2
 8002ff2:	9200      	str	r2, [sp, #0]
 8002ff4:	9a00      	ldr	r2, [sp, #0]
 8002ff6:	b2d2      	uxtb	r2, r2
 8002ff8:	40d3      	lsrs	r3, r2
 8002ffa:	4a05      	ldr	r2, [pc, #20]	; (8003010 <HAL_RCC_GetPCLK1Freq+0x48>)
 8002ffc:	5cd3      	ldrb	r3, [r2, r3]
 8002ffe:	fa21 f303 	lsr.w	r3, r1, r3
 8003002:	4618      	mov	r0, r3
 8003004:	b005      	add	sp, #20
 8003006:	f85d fb04 	ldr.w	pc, [sp], #4
 800300a:	bf00      	nop
 800300c:	40023800 	.word	0x40023800
 8003010:	080074ec 	.word	0x080074ec

08003014 <HAL_RCC_GetPCLK2Freq>:
 8003014:	b500      	push	{lr}
 8003016:	b085      	sub	sp, #20
 8003018:	f7ff ffac 	bl	8002f74 <HAL_RCC_GetHCLKFreq>
 800301c:	4601      	mov	r1, r0
 800301e:	4b0e      	ldr	r3, [pc, #56]	; (8003058 <HAL_RCC_GetPCLK2Freq+0x44>)
 8003020:	689b      	ldr	r3, [r3, #8]
 8003022:	f403 4360 	and.w	r3, r3, #57344	; 0xe000
 8003026:	f44f 4260 	mov.w	r2, #57344	; 0xe000
 800302a:	9203      	str	r2, [sp, #12]
 800302c:	9a03      	ldr	r2, [sp, #12]
 800302e:	fa92 f2a2 	rbit	r2, r2
 8003032:	9202      	str	r2, [sp, #8]
 8003034:	9a02      	ldr	r2, [sp, #8]
 8003036:	9201      	str	r2, [sp, #4]
 8003038:	9a01      	ldr	r2, [sp, #4]
 800303a:	fab2 f282 	clz	r2, r2
 800303e:	9200      	str	r2, [sp, #0]
 8003040:	9a00      	ldr	r2, [sp, #0]
 8003042:	b2d2      	uxtb	r2, r2
 8003044:	40d3      	lsrs	r3, r2
 8003046:	4a05      	ldr	r2, [pc, #20]	; (800305c <HAL_RCC_GetPCLK2Freq+0x48>)
 8003048:	5cd3      	ldrb	r3, [r2, r3]
 800304a:	fa21 f303 	lsr.w	r3, r1, r3
 800304e:	4618      	mov	r0, r3
 8003050:	b005      	add	sp, #20
 8003052:	f85d fb04 	ldr.w	pc, [sp], #4
 8003056:	bf00      	nop
 8003058:	40023800 	.word	0x40023800
 800305c:	080074ec 	.word	0x080074ec

08003060 <HAL_TIM_OC_Init>:
 8003060:	b500      	push	{lr}
 8003062:	b083      	sub	sp, #12
 8003064:	9001      	str	r0, [sp, #4]
 8003066:	9b01      	ldr	r3, [sp, #4]
 8003068:	2b00      	cmp	r3, #0
 800306a:	d101      	bne.n	8003070 <HAL_TIM_OC_Init+0x10>
 800306c:	2301      	movs	r3, #1
 800306e:	e019      	b.n	80030a4 <HAL_TIM_OC_Init+0x44>
 8003070:	9b01      	ldr	r3, [sp, #4]
 8003072:	f893 3039 	ldrb.w	r3, [r3, #57]	; 0x39
 8003076:	b2db      	uxtb	r3, r3
 8003078:	2b00      	cmp	r3, #0
 800307a:	d102      	bne.n	8003082 <HAL_TIM_OC_Init+0x22>
 800307c:	9801      	ldr	r0, [sp, #4]
 800307e:	f000 f815 	bl	80030ac <HAL_TIM_OC_MspInit>
 8003082:	9b01      	ldr	r3, [sp, #4]
 8003084:	2202      	movs	r2, #2
 8003086:	f883 2039 	strb.w	r2, [r3, #57]	; 0x39
 800308a:	9b01      	ldr	r3, [sp, #4]
 800308c:	681a      	ldr	r2, [r3, #0]
 800308e:	9b01      	ldr	r3, [sp, #4]
 8003090:	3304      	adds	r3, #4
 8003092:	4610      	mov	r0, r2
 8003094:	4619      	mov	r1, r3
 8003096:	f000 f835 	bl	8003104 <TIM_Base_SetConfig>
 800309a:	9b01      	ldr	r3, [sp, #4]
 800309c:	2201      	movs	r2, #1
 800309e:	f883 2039 	strb.w	r2, [r3, #57]	; 0x39
 80030a2:	2300      	movs	r3, #0
 80030a4:	4618      	mov	r0, r3
 80030a6:	b003      	add	sp, #12
 80030a8:	f85d fb04 	ldr.w	pc, [sp], #4

080030ac <HAL_TIM_OC_MspInit>:
 80030ac:	b082      	sub	sp, #8
 80030ae:	9001      	str	r0, [sp, #4]
 80030b0:	b002      	add	sp, #8
 80030b2:	4770      	bx	lr

080030b4 <HAL_TIM_OC_Start>:
 80030b4:	b500      	push	{lr}
 80030b6:	b083      	sub	sp, #12
 80030b8:	9001      	str	r0, [sp, #4]
 80030ba:	9100      	str	r1, [sp, #0]
 80030bc:	9b01      	ldr	r3, [sp, #4]
 80030be:	681b      	ldr	r3, [r3, #0]
 80030c0:	4618      	mov	r0, r3
 80030c2:	9900      	ldr	r1, [sp, #0]
 80030c4:	2201      	movs	r2, #1
 80030c6:	f000 f89b 	bl	8003200 <TIM_CCxChannelCmd>
 80030ca:	9b01      	ldr	r3, [sp, #4]
 80030cc:	681b      	ldr	r3, [r3, #0]
 80030ce:	4a0c      	ldr	r2, [pc, #48]	; (8003100 <HAL_TIM_OC_Start+0x4c>)
 80030d0:	4293      	cmp	r3, r2
 80030d2:	d107      	bne.n	80030e4 <HAL_TIM_OC_Start+0x30>
 80030d4:	9b01      	ldr	r3, [sp, #4]
 80030d6:	681b      	ldr	r3, [r3, #0]
 80030d8:	9a01      	ldr	r2, [sp, #4]
 80030da:	6812      	ldr	r2, [r2, #0]
 80030dc:	6c52      	ldr	r2, [r2, #68]	; 0x44
 80030de:	f442 4200 	orr.w	r2, r2, #32768	; 0x8000
 80030e2:	645a      	str	r2, [r3, #68]	; 0x44
 80030e4:	9b01      	ldr	r3, [sp, #4]
 80030e6:	681b      	ldr	r3, [r3, #0]
 80030e8:	9a01      	ldr	r2, [sp, #4]
 80030ea:	6812      	ldr	r2, [r2, #0]
 80030ec:	6812      	ldr	r2, [r2, #0]
 80030ee:	f042 0201 	orr.w	r2, r2, #1
 80030f2:	601a      	str	r2, [r3, #0]
 80030f4:	2300      	movs	r3, #0
 80030f6:	4618      	mov	r0, r3
 80030f8:	b003      	add	sp, #12
 80030fa:	f85d fb04 	ldr.w	pc, [sp], #4
 80030fe:	bf00      	nop
 8003100:	40010000 	.word	0x40010000

08003104 <TIM_Base_SetConfig>:
 8003104:	b084      	sub	sp, #16
 8003106:	9001      	str	r0, [sp, #4]
 8003108:	9100      	str	r1, [sp, #0]
 800310a:	2300      	movs	r3, #0
 800310c:	9303      	str	r3, [sp, #12]
 800310e:	9b01      	ldr	r3, [sp, #4]
 8003110:	681b      	ldr	r3, [r3, #0]
 8003112:	9303      	str	r3, [sp, #12]
 8003114:	9b01      	ldr	r3, [sp, #4]
 8003116:	4a33      	ldr	r2, [pc, #204]	; (80031e4 <TIM_Base_SetConfig+0xe0>)
 8003118:	4293      	cmp	r3, r2
 800311a:	d00f      	beq.n	800313c <TIM_Base_SetConfig+0x38>
 800311c:	9b01      	ldr	r3, [sp, #4]
 800311e:	f1b3 4f80 	cmp.w	r3, #1073741824	; 0x40000000
 8003122:	d00b      	beq.n	800313c <TIM_Base_SetConfig+0x38>
 8003124:	9b01      	ldr	r3, [sp, #4]
 8003126:	4a30      	ldr	r2, [pc, #192]	; (80031e8 <TIM_Base_SetConfig+0xe4>)
 8003128:	4293      	cmp	r3, r2
 800312a:	d007      	beq.n	800313c <TIM_Base_SetConfig+0x38>
 800312c:	9b01      	ldr	r3, [sp, #4]
 800312e:	4a2f      	ldr	r2, [pc, #188]	; (80031ec <TIM_Base_SetConfig+0xe8>)
 8003130:	4293      	cmp	r3, r2
 8003132:	d003      	beq.n	800313c <TIM_Base_SetConfig+0x38>
 8003134:	9b01      	ldr	r3, [sp, #4]
 8003136:	4a2e      	ldr	r2, [pc, #184]	; (80031f0 <TIM_Base_SetConfig+0xec>)
 8003138:	4293      	cmp	r3, r2
 800313a:	d101      	bne.n	8003140 <TIM_Base_SetConfig+0x3c>
 800313c:	2301      	movs	r3, #1
 800313e:	e000      	b.n	8003142 <TIM_Base_SetConfig+0x3e>
 8003140:	2300      	movs	r3, #0
 8003142:	2b00      	cmp	r3, #0
 8003144:	d008      	beq.n	8003158 <TIM_Base_SetConfig+0x54>
 8003146:	9b03      	ldr	r3, [sp, #12]
 8003148:	f023 0370 	bic.w	r3, r3, #112	; 0x70
 800314c:	9303      	str	r3, [sp, #12]
 800314e:	9b00      	ldr	r3, [sp, #0]
 8003150:	685b      	ldr	r3, [r3, #4]
 8003152:	9a03      	ldr	r2, [sp, #12]
 8003154:	4313      	orrs	r3, r2
 8003156:	9303      	str	r3, [sp, #12]
 8003158:	9b01      	ldr	r3, [sp, #4]
 800315a:	4a22      	ldr	r2, [pc, #136]	; (80031e4 <TIM_Base_SetConfig+0xe0>)
 800315c:	4293      	cmp	r3, r2
 800315e:	d01b      	beq.n	8003198 <TIM_Base_SetConfig+0x94>
 8003160:	9b01      	ldr	r3, [sp, #4]
 8003162:	f1b3 4f80 	cmp.w	r3, #1073741824	; 0x40000000
 8003166:	d017      	beq.n	8003198 <TIM_Base_SetConfig+0x94>
 8003168:	9b01      	ldr	r3, [sp, #4]
 800316a:	4a1f      	ldr	r2, [pc, #124]	; (80031e8 <TIM_Base_SetConfig+0xe4>)
 800316c:	4293      	cmp	r3, r2
 800316e:	d013      	beq.n	8003198 <TIM_Base_SetConfig+0x94>
 8003170:	9b01      	ldr	r3, [sp, #4]
 8003172:	4a1e      	ldr	r2, [pc, #120]	; (80031ec <TIM_Base_SetConfig+0xe8>)
 8003174:	4293      	cmp	r3, r2
 8003176:	d00f      	beq.n	8003198 <TIM_Base_SetConfig+0x94>
 8003178:	9b01      	ldr	r3, [sp, #4]
 800317a:	4a1d      	ldr	r2, [pc, #116]	; (80031f0 <TIM_Base_SetConfig+0xec>)
 800317c:	4293      	cmp	r3, r2
 800317e:	d00b      	beq.n	8003198 <TIM_Base_SetConfig+0x94>
 8003180:	9b01      	ldr	r3, [sp, #4]
 8003182:	4a1c      	ldr	r2, [pc, #112]	; (80031f4 <TIM_Base_SetConfig+0xf0>)
 8003184:	4293      	cmp	r3, r2
 8003186:	d007      	beq.n	8003198 <TIM_Base_SetConfig+0x94>
 8003188:	9b01      	ldr	r3, [sp, #4]
 800318a:	4a1b      	ldr	r2, [pc, #108]	; (80031f8 <TIM_Base_SetConfig+0xf4>)
 800318c:	4293      	cmp	r3, r2
 800318e:	d003      	beq.n	8003198 <TIM_Base_SetConfig+0x94>
 8003190:	9b01      	ldr	r3, [sp, #4]
 8003192:	4a1a      	ldr	r2, [pc, #104]	; (80031fc <TIM_Base_SetConfig+0xf8>)
 8003194:	4293      	cmp	r3, r2
 8003196:	d101      	bne.n	800319c <TIM_Base_SetConfig+0x98>
 8003198:	2301      	movs	r3, #1
 800319a:	e000      	b.n	800319e <TIM_Base_SetConfig+0x9a>
 800319c:	2300      	movs	r3, #0
 800319e:	2b00      	cmp	r3, #0
 80031a0:	d008      	beq.n	80031b4 <TIM_Base_SetConfig+0xb0>
 80031a2:	9b03      	ldr	r3, [sp, #12]
 80031a4:	f423 7340 	bic.w	r3, r3, #768	; 0x300
 80031a8:	9303      	str	r3, [sp, #12]
 80031aa:	9b00      	ldr	r3, [sp, #0]
 80031ac:	68db      	ldr	r3, [r3, #12]
 80031ae:	9a03      	ldr	r2, [sp, #12]
 80031b0:	4313      	orrs	r3, r2
 80031b2:	9303      	str	r3, [sp, #12]
 80031b4:	9b01      	ldr	r3, [sp, #4]
 80031b6:	9a03      	ldr	r2, [sp, #12]
 80031b8:	601a      	str	r2, [r3, #0]
 80031ba:	9b00      	ldr	r3, [sp, #0]
 80031bc:	689a      	ldr	r2, [r3, #8]
 80031be:	9b01      	ldr	r3, [sp, #4]
 80031c0:	62da      	str	r2, [r3, #44]	; 0x2c
 80031c2:	9b00      	ldr	r3, [sp, #0]
 80031c4:	681a      	ldr	r2, [r3, #0]
 80031c6:	9b01      	ldr	r3, [sp, #4]
 80031c8:	629a      	str	r2, [r3, #40]	; 0x28
 80031ca:	9b01      	ldr	r3, [sp, #4]
 80031cc:	4a05      	ldr	r2, [pc, #20]	; (80031e4 <TIM_Base_SetConfig+0xe0>)
 80031ce:	4293      	cmp	r3, r2
 80031d0:	d103      	bne.n	80031da <TIM_Base_SetConfig+0xd6>
 80031d2:	9b00      	ldr	r3, [sp, #0]
 80031d4:	691a      	ldr	r2, [r3, #16]
 80031d6:	9b01      	ldr	r3, [sp, #4]
 80031d8:	631a      	str	r2, [r3, #48]	; 0x30
 80031da:	9b01      	ldr	r3, [sp, #4]
 80031dc:	2201      	movs	r2, #1
 80031de:	615a      	str	r2, [r3, #20]
 80031e0:	b004      	add	sp, #16
 80031e2:	4770      	bx	lr
 80031e4:	40010000 	.word	0x40010000
 80031e8:	40000400 	.word	0x40000400
 80031ec:	40000800 	.word	0x40000800
 80031f0:	40000c00 	.word	0x40000c00
 80031f4:	40014000 	.word	0x40014000
 80031f8:	40014400 	.word	0x40014400
 80031fc:	40014800 	.word	0x40014800

08003200 <TIM_CCxChannelCmd>:
 8003200:	b086      	sub	sp, #24
 8003202:	9003      	str	r0, [sp, #12]
 8003204:	9102      	str	r1, [sp, #8]
 8003206:	9201      	str	r2, [sp, #4]
 8003208:	2300      	movs	r3, #0
 800320a:	9305      	str	r3, [sp, #20]
 800320c:	9b02      	ldr	r3, [sp, #8]
 800320e:	2201      	movs	r2, #1
 8003210:	fa02 f303 	lsl.w	r3, r2, r3
 8003214:	9305      	str	r3, [sp, #20]
 8003216:	9b03      	ldr	r3, [sp, #12]
 8003218:	6a1a      	ldr	r2, [r3, #32]
 800321a:	9b05      	ldr	r3, [sp, #20]
 800321c:	43db      	mvns	r3, r3
 800321e:	401a      	ands	r2, r3
 8003220:	9b03      	ldr	r3, [sp, #12]
 8003222:	621a      	str	r2, [r3, #32]
 8003224:	9b03      	ldr	r3, [sp, #12]
 8003226:	6a1a      	ldr	r2, [r3, #32]
 8003228:	9b02      	ldr	r3, [sp, #8]
 800322a:	9901      	ldr	r1, [sp, #4]
 800322c:	fa01 f303 	lsl.w	r3, r1, r3
 8003230:	431a      	orrs	r2, r3
 8003232:	9b03      	ldr	r3, [sp, #12]
 8003234:	621a      	str	r2, [r3, #32]
 8003236:	b006      	add	sp, #24
 8003238:	4770      	bx	lr
 800323a:	bf00      	nop

0800323c <HAL_UART_Init>:
 800323c:	b500      	push	{lr}
 800323e:	b083      	sub	sp, #12
 8003240:	9001      	str	r0, [sp, #4]
 8003242:	9b01      	ldr	r3, [sp, #4]
 8003244:	2b00      	cmp	r3, #0
 8003246:	d101      	bne.n	800324c <HAL_UART_Init+0x10>
 8003248:	2301      	movs	r3, #1
 800324a:	e038      	b.n	80032be <HAL_UART_Init+0x82>
 800324c:	9b01      	ldr	r3, [sp, #4]
 800324e:	f893 3039 	ldrb.w	r3, [r3, #57]	; 0x39
 8003252:	b2db      	uxtb	r3, r3
 8003254:	2b00      	cmp	r3, #0
 8003256:	d102      	bne.n	800325e <HAL_UART_Init+0x22>
 8003258:	9801      	ldr	r0, [sp, #4]
 800325a:	f000 f835 	bl	80032c8 <HAL_UART_MspInit>
 800325e:	9b01      	ldr	r3, [sp, #4]
 8003260:	2202      	movs	r2, #2
 8003262:	f883 2039 	strb.w	r2, [r3, #57]	; 0x39
 8003266:	9b01      	ldr	r3, [sp, #4]
 8003268:	681b      	ldr	r3, [r3, #0]
 800326a:	9a01      	ldr	r2, [sp, #4]
 800326c:	6812      	ldr	r2, [r2, #0]
 800326e:	68d2      	ldr	r2, [r2, #12]
 8003270:	f422 5200 	bic.w	r2, r2, #8192	; 0x2000
 8003274:	60da      	str	r2, [r3, #12]
 8003276:	9801      	ldr	r0, [sp, #4]
 8003278:	f000 f82a 	bl	80032d0 <UART_SetConfig>
 800327c:	9b01      	ldr	r3, [sp, #4]
 800327e:	681b      	ldr	r3, [r3, #0]
 8003280:	9a01      	ldr	r2, [sp, #4]
 8003282:	6812      	ldr	r2, [r2, #0]
 8003284:	6912      	ldr	r2, [r2, #16]
 8003286:	f422 4290 	bic.w	r2, r2, #18432	; 0x4800
 800328a:	611a      	str	r2, [r3, #16]
 800328c:	9b01      	ldr	r3, [sp, #4]
 800328e:	681b      	ldr	r3, [r3, #0]
 8003290:	9a01      	ldr	r2, [sp, #4]
 8003292:	6812      	ldr	r2, [r2, #0]
 8003294:	6952      	ldr	r2, [r2, #20]
 8003296:	f022 022a 	bic.w	r2, r2, #42	; 0x2a
 800329a:	615a      	str	r2, [r3, #20]
 800329c:	9b01      	ldr	r3, [sp, #4]
 800329e:	681b      	ldr	r3, [r3, #0]
 80032a0:	9a01      	ldr	r2, [sp, #4]
 80032a2:	6812      	ldr	r2, [r2, #0]
 80032a4:	68d2      	ldr	r2, [r2, #12]
 80032a6:	f442 5200 	orr.w	r2, r2, #8192	; 0x2000
 80032aa:	60da      	str	r2, [r3, #12]
 80032ac:	9b01      	ldr	r3, [sp, #4]
 80032ae:	2200      	movs	r2, #0
 80032b0:	f883 203a 	strb.w	r2, [r3, #58]	; 0x3a
 80032b4:	9b01      	ldr	r3, [sp, #4]
 80032b6:	2201      	movs	r2, #1
 80032b8:	f883 2039 	strb.w	r2, [r3, #57]	; 0x39
 80032bc:	2300      	movs	r3, #0
 80032be:	4618      	mov	r0, r3
 80032c0:	b003      	add	sp, #12
 80032c2:	f85d fb04 	ldr.w	pc, [sp], #4
 80032c6:	bf00      	nop

080032c8 <HAL_UART_MspInit>:
 80032c8:	b082      	sub	sp, #8
 80032ca:	9001      	str	r0, [sp, #4]
 80032cc:	b002      	add	sp, #8
 80032ce:	4770      	bx	lr

