
NUCLEO_F401RE/MusicControl.elf:     file format elf32-littlearm
architecture: arm, flags 0x00000112:
EXEC_P, HAS_SYMS, D_PAGED
start address 0x08004f55


Disassembly of section .text:

08000000 <g_pfnVectors>:
 8000000:	00 80 01 20 55 4f 00 08 a1 4f 00 08 a1 4f 00 08     ... UO...O...O..
 8000010:	a1 4f 00 08 a1 4f 00 08 a1 4f 00 08 00 00 00 00     .O...O...O......
	...
 800002c:	a1 4f 00 08 a1 4f 00 08 00 00 00 00 a1 4f 00 08     .O...O.......O..
 800003c:	a1 4f 00 08 a1 4f 00 08 a1 4f 00 08 a1 4f 00 08     .O...O...O...O..
 800004c:	a1 4f 00 08 a1 4f 00 08 a1 4f 00 08 a1 4f 00 08     .O...O...O...O..
 800005c:	a1 4f 00 08 a1 4f 00 08 a1 4f 00 08 a1 4f 00 08     .O...O...O...O..
 800006c:	a1 4f 00 08 a1 4f 00 08 a1 4f 00 08 a1 4f 00 08     .O...O...O...O..
 800007c:	a1 4f 00 08 a1 4f 00 08 a1 4f 00 08 a1 4f 00 08     .O...O...O...O..
	...
 800009c:	a1 4f 00 08 a1 4f 00 08 a1 4f 00 08 a1 4f 00 08     .O...O...O...O..
 80000ac:	a1 4f 00 08 a1 4f 00 08 a1 4f 00 08 a1 4f 00 08     .O...O...O...O..
 80000bc:	a1 4f 00 08 a1 4f 00 08 a1 4f 00 08 a1 4f 00 08     .O...O...O...O..
 80000cc:	a1 4f 00 08 a1 4f 00 08 a1 4f 00 08 a1 4f 00 08     .O...O...O...O..
 80000dc:	00 00 00 00 a1 4f 00 08 a1 4f 00 08 a1 4f 00 08     .....O...O...O..
	...
 80000fc:	a1 4f 00 08 00 00 00 00 a1 4f 00 08 a1 4f 00 08     .O.......O...O..
 800010c:	a1 4f 00 08 00 00 00 00 00 00 00 00 00 00 00 00     .O..............
 800011c:	00 00 00 00 a1 4f 00 08 a1 4f 00 08 a1 4f 00 08     .....O...O...O..
 800012c:	a1 4f 00 08 a1 4f 00 08 00 00 00 00 00 00 00 00     .O...O..........
	...
 800014c:	a1 4f 00 08 a1 4f 00 08 a1 4f 00 08 a1 4f 00 08     .O...O...O...O..
 800015c:	a1 4f 00 08 a1 4f 00 08 a1 4f 00 08 00 00 00 00     .O...O...O......
	...
 8000184:	a1 4f 00 08 00 00 00 00 00 00 00 00 a1 4f 00 08     .O...........O..

08000194 <__do_global_dtors_aux>:
 8000194:	b510      	push	{r4, lr}
 8000196:	4c05      	ldr	r4, [pc, #20]	; (80001ac <__do_global_dtors_aux+0x18>)
 8000198:	7823      	ldrb	r3, [r4, #0]
 800019a:	b933      	cbnz	r3, 80001aa <__do_global_dtors_aux+0x16>
 800019c:	4b04      	ldr	r3, [pc, #16]	; (80001b0 <__do_global_dtors_aux+0x1c>)
 800019e:	b113      	cbz	r3, 80001a6 <__do_global_dtors_aux+0x12>
 80001a0:	4804      	ldr	r0, [pc, #16]	; (80001b4 <__do_global_dtors_aux+0x20>)
 80001a2:	f3af 8000 	nop.w
 80001a6:	2301      	movs	r3, #1
 80001a8:	7023      	strb	r3, [r4, #0]
 80001aa:	bd10      	pop	{r4, pc}
 80001ac:	20000218 	.word	0x20000218
 80001b0:	00000000 	.word	0x00000000
 80001b4:	08007a7c 	.word	0x08007a7c

080001b8 <frame_dummy>:
 80001b8:	4b08      	ldr	r3, [pc, #32]	; (80001dc <frame_dummy+0x24>)
 80001ba:	b510      	push	{r4, lr}
 80001bc:	b11b      	cbz	r3, 80001c6 <frame_dummy+0xe>
 80001be:	4808      	ldr	r0, [pc, #32]	; (80001e0 <frame_dummy+0x28>)
 80001c0:	4908      	ldr	r1, [pc, #32]	; (80001e4 <frame_dummy+0x2c>)
 80001c2:	f3af 8000 	nop.w
 80001c6:	4808      	ldr	r0, [pc, #32]	; (80001e8 <frame_dummy+0x30>)
 80001c8:	6803      	ldr	r3, [r0, #0]
 80001ca:	b903      	cbnz	r3, 80001ce <frame_dummy+0x16>
 80001cc:	bd10      	pop	{r4, pc}
 80001ce:	4b07      	ldr	r3, [pc, #28]	; (80001ec <frame_dummy+0x34>)
 80001d0:	2b00      	cmp	r3, #0
 80001d2:	d0fb      	beq.n	80001cc <frame_dummy+0x14>
 80001d4:	e8bd 4010 	ldmia.w	sp!, {r4, lr}
 80001d8:	4718      	bx	r3
 80001da:	bf00      	nop
 80001dc:	00000000 	.word	0x00000000
 80001e0:	08007a7c 	.word	0x08007a7c
 80001e4:	2000021c 	.word	0x2000021c
 80001e8:	20000214 	.word	0x20000214
 80001ec:	00000000 	.word	0x00000000

080001f0 <gpio_read>:
 80001f0:	b500      	push	{lr}
 80001f2:	b083      	sub	sp, #12
 80001f4:	9001      	str	r0, [sp, #4]
 80001f6:	9b01      	ldr	r3, [sp, #4]
 80001f8:	781b      	ldrb	r3, [r3, #0]
 80001fa:	b25b      	sxtb	r3, r3
 80001fc:	f1b3 3fff 	cmp.w	r3, #4294967295
 8000200:	d104      	bne.n	800020c <gpio_read+0x1c>
 8000202:	480a      	ldr	r0, [pc, #40]	; (800022c <gpio_read+0x3c>)
 8000204:	490a      	ldr	r1, [pc, #40]	; (8000230 <gpio_read+0x40>)
 8000206:	223f      	movs	r2, #63	; 0x3f
 8000208:	f001 fe94 	bl	8001f34 <mbed_assert_internal>
 800020c:	9b01      	ldr	r3, [sp, #4]
 800020e:	689b      	ldr	r3, [r3, #8]
 8000210:	681a      	ldr	r2, [r3, #0]
 8000212:	9b01      	ldr	r3, [sp, #4]
 8000214:	685b      	ldr	r3, [r3, #4]
 8000216:	4013      	ands	r3, r2
 8000218:	2b00      	cmp	r3, #0
 800021a:	d001      	beq.n	8000220 <gpio_read+0x30>
 800021c:	2301      	movs	r3, #1
 800021e:	e000      	b.n	8000222 <gpio_read+0x32>
 8000220:	2300      	movs	r3, #0
 8000222:	4618      	mov	r0, r3
 8000224:	b003      	add	sp, #12
 8000226:	f85d fb04 	ldr.w	pc, [sp], #4
 800022a:	bf00      	nop
 800022c:	08006fac 	.word	0x08006fac
 8000230:	08006fc4 	.word	0x08006fc4

08000234 <mbed::DigitalIn::DigitalIn(PinName)>:
 8000234:	b500      	push	{lr}
 8000236:	b083      	sub	sp, #12
 8000238:	9001      	str	r0, [sp, #4]
 800023a:	460b      	mov	r3, r1
 800023c:	f88d 3003 	strb.w	r3, [sp, #3]
 8000240:	9b01      	ldr	r3, [sp, #4]
 8000242:	2200      	movs	r2, #0
 8000244:	701a      	strb	r2, [r3, #0]
 8000246:	9b01      	ldr	r3, [sp, #4]
 8000248:	2200      	movs	r2, #0
 800024a:	605a      	str	r2, [r3, #4]
 800024c:	9b01      	ldr	r3, [sp, #4]
 800024e:	2200      	movs	r2, #0
 8000250:	609a      	str	r2, [r3, #8]
 8000252:	9b01      	ldr	r3, [sp, #4]
 8000254:	2200      	movs	r2, #0
 8000256:	60da      	str	r2, [r3, #12]
 8000258:	9b01      	ldr	r3, [sp, #4]
 800025a:	2200      	movs	r2, #0
 800025c:	611a      	str	r2, [r3, #16]
 800025e:	9a01      	ldr	r2, [sp, #4]
 8000260:	f99d 3003 	ldrsb.w	r3, [sp, #3]
 8000264:	4610      	mov	r0, r2
 8000266:	4619      	mov	r1, r3
 8000268:	f001 ff08 	bl	800207c <gpio_init_in>
 800026c:	9b01      	ldr	r3, [sp, #4]
 800026e:	4618      	mov	r0, r3
 8000270:	b003      	add	sp, #12
 8000272:	f85d fb04 	ldr.w	pc, [sp], #4
 8000276:	bf00      	nop

08000278 <mbed::DigitalIn::read()>:
 8000278:	b500      	push	{lr}
 800027a:	b083      	sub	sp, #12
 800027c:	9001      	str	r0, [sp, #4]
 800027e:	9b01      	ldr	r3, [sp, #4]
 8000280:	4618      	mov	r0, r3
 8000282:	f7ff ffb5 	bl	80001f0 <gpio_read>
 8000286:	4603      	mov	r3, r0
 8000288:	4618      	mov	r0, r3
 800028a:	b003      	add	sp, #12
 800028c:	f85d fb04 	ldr.w	pc, [sp], #4

08000290 <mbed::DigitalIn::operator int()>:
 8000290:	b500      	push	{lr}
 8000292:	b083      	sub	sp, #12
 8000294:	9001      	str	r0, [sp, #4]
 8000296:	9801      	ldr	r0, [sp, #4]
 8000298:	f7ff ffee 	bl	8000278 <mbed::DigitalIn::read()>
 800029c:	4603      	mov	r3, r0
 800029e:	4618      	mov	r0, r3
 80002a0:	b003      	add	sp, #12
 80002a2:	f85d fb04 	ldr.w	pc, [sp], #4
 80002a6:	bf00      	nop

080002a8 <mbed::DigitalOut::DigitalOut(PinName)>:
 80002a8:	b500      	push	{lr}
 80002aa:	b083      	sub	sp, #12
 80002ac:	9001      	str	r0, [sp, #4]
 80002ae:	460b      	mov	r3, r1
 80002b0:	f88d 3003 	strb.w	r3, [sp, #3]
 80002b4:	9b01      	ldr	r3, [sp, #4]
 80002b6:	2200      	movs	r2, #0
 80002b8:	701a      	strb	r2, [r3, #0]
 80002ba:	9b01      	ldr	r3, [sp, #4]
 80002bc:	2200      	movs	r2, #0
 80002be:	605a      	str	r2, [r3, #4]
 80002c0:	9b01      	ldr	r3, [sp, #4]
 80002c2:	2200      	movs	r2, #0
 80002c4:	609a      	str	r2, [r3, #8]
 80002c6:	9b01      	ldr	r3, [sp, #4]
 80002c8:	2200      	movs	r2, #0
 80002ca:	60da      	str	r2, [r3, #12]
 80002cc:	9b01      	ldr	r3, [sp, #4]
 80002ce:	2200      	movs	r2, #0
 80002d0:	611a      	str	r2, [r3, #16]
 80002d2:	9a01      	ldr	r2, [sp, #4]
 80002d4:	f99d 3003 	ldrsb.w	r3, [sp, #3]
 80002d8:	4610      	mov	r0, r2
 80002da:	4619      	mov	r1, r3
 80002dc:	f001 fef4 	bl	80020c8 <gpio_init_out>
 80002e0:	9b01      	ldr	r3, [sp, #4]
 80002e2:	4618      	mov	r0, r3
 80002e4:	b003      	add	sp, #12
 80002e6:	f85d fb04 	ldr.w	pc, [sp], #4
 80002ea:	bf00      	nop

080002ec <mbed::SerialBase::~SerialBase()>:
 80002ec:	b500      	push	{lr}
 80002ee:	b083      	sub	sp, #12
 80002f0:	9001      	str	r0, [sp, #4]
 80002f2:	9b01      	ldr	r3, [sp, #4]
 80002f4:	4a06      	ldr	r2, [pc, #24]	; (8000310 <mbed::SerialBase::~SerialBase()+0x24>)
 80002f6:	601a      	str	r2, [r3, #0]
 80002f8:	2300      	movs	r3, #0
 80002fa:	2b00      	cmp	r3, #0
 80002fc:	d002      	beq.n	8000304 <mbed::SerialBase::~SerialBase()+0x18>
 80002fe:	9801      	ldr	r0, [sp, #4]
 8000300:	f004 fe60 	bl	8004fc4 <operator delete(void*)>
 8000304:	9b01      	ldr	r3, [sp, #4]
 8000306:	4618      	mov	r0, r3
 8000308:	b003      	add	sp, #12
 800030a:	f85d fb04 	ldr.w	pc, [sp], #4
 800030e:	bf00      	nop
 8000310:	08007088 	.word	0x08007088

08000314 <mbed::SerialBase::~SerialBase()>:
 8000314:	b500      	push	{lr}
 8000316:	b083      	sub	sp, #12
 8000318:	9001      	str	r0, [sp, #4]
 800031a:	9801      	ldr	r0, [sp, #4]
 800031c:	f7ff ffe6 	bl	80002ec <mbed::SerialBase::~SerialBase()>
 8000320:	9801      	ldr	r0, [sp, #4]
 8000322:	f004 fe4f 	bl	8004fc4 <operator delete(void*)>
 8000326:	9b01      	ldr	r3, [sp, #4]
 8000328:	4618      	mov	r0, r3
 800032a:	b003      	add	sp, #12
 800032c:	f85d fb04 	ldr.w	pc, [sp], #4

08000330 <main>:
 8000330:	b508      	push	{r3, lr}
 8000332:	483d      	ldr	r0, [pc, #244]	; (8000428 <main+0xf8>)
 8000334:	2100      	movs	r1, #0
 8000336:	2200      	movs	r2, #0
 8000338:	f001 f8c6 	bl	80014c8 <TextLCD_Base::locate(int, int)>
 800033c:	483a      	ldr	r0, [pc, #232]	; (8000428 <main+0xf8>)
 800033e:	493b      	ldr	r1, [pc, #236]	; (800042c <main+0xfc>)
 8000340:	f004 fdee 	bl	8004f20 <mbed::Stream::printf(char const*, ...)>
 8000344:	483a      	ldr	r0, [pc, #232]	; (8000430 <main+0x100>)
 8000346:	493b      	ldr	r1, [pc, #236]	; (8000434 <main+0x104>)
 8000348:	f004 fdea 	bl	8004f20 <mbed::Stream::printf(char const*, ...)>
 800034c:	483a      	ldr	r0, [pc, #232]	; (8000438 <main+0x108>)
 800034e:	f44f 31e1 	mov.w	r1, #115200	; 0x1c200
 8000352:	f004 fcd5 	bl	8004d00 <mbed::SerialBase::baud(int)>
 8000356:	4839      	ldr	r0, [pc, #228]	; (800043c <main+0x10c>)
 8000358:	f001 ffa8 	bl	80022ac <wait>
 800035c:	4838      	ldr	r0, [pc, #224]	; (8000440 <main+0x110>)
 800035e:	4939      	ldr	r1, [pc, #228]	; (8000444 <main+0x114>)
 8000360:	f004 fdde 	bl	8004f20 <mbed::Stream::printf(char const*, ...)>
 8000364:	4838      	ldr	r0, [pc, #224]	; (8000448 <main+0x118>)
 8000366:	f7ff ff93 	bl	8000290 <mbed::DigitalIn::operator int()>
 800036a:	4603      	mov	r3, r0
 800036c:	2b00      	cmp	r3, #0
 800036e:	bf14      	ite	ne
 8000370:	2301      	movne	r3, #1
 8000372:	2300      	moveq	r3, #0
 8000374:	b2db      	uxtb	r3, r3
 8000376:	2b00      	cmp	r3, #0
 8000378:	d009      	beq.n	800038e <main+0x5e>
 800037a:	482b      	ldr	r0, [pc, #172]	; (8000428 <main+0xf8>)
 800037c:	2100      	movs	r1, #0
 800037e:	2201      	movs	r2, #1
 8000380:	f001 f8a2 	bl	80014c8 <TextLCD_Base::locate(int, int)>
 8000384:	4828      	ldr	r0, [pc, #160]	; (8000428 <main+0xf8>)
 8000386:	4931      	ldr	r1, [pc, #196]	; (800044c <main+0x11c>)
 8000388:	f004 fdca 	bl	8004f20 <mbed::Stream::printf(char const*, ...)>
 800038c:	e04b      	b.n	8000426 <main+0xf6>
 800038e:	4830      	ldr	r0, [pc, #192]	; (8000450 <main+0x120>)
 8000390:	f7ff ff7e 	bl	8000290 <mbed::DigitalIn::operator int()>
 8000394:	4603      	mov	r3, r0
 8000396:	2b00      	cmp	r3, #0
 8000398:	bf14      	ite	ne
 800039a:	2301      	movne	r3, #1
 800039c:	2300      	moveq	r3, #0
 800039e:	b2db      	uxtb	r3, r3
 80003a0:	2b00      	cmp	r3, #0
 80003a2:	d00d      	beq.n	80003c0 <main+0x90>
 80003a4:	4820      	ldr	r0, [pc, #128]	; (8000428 <main+0xf8>)
 80003a6:	2100      	movs	r1, #0
 80003a8:	2201      	movs	r2, #1
 80003aa:	f001 f88d 	bl	80014c8 <TextLCD_Base::locate(int, int)>
 80003ae:	481e      	ldr	r0, [pc, #120]	; (8000428 <main+0xf8>)
 80003b0:	4928      	ldr	r1, [pc, #160]	; (8000454 <main+0x124>)
 80003b2:	f004 fdb5 	bl	8004f20 <mbed::Stream::printf(char const*, ...)>
 80003b6:	4822      	ldr	r0, [pc, #136]	; (8000440 <main+0x110>)
 80003b8:	4927      	ldr	r1, [pc, #156]	; (8000458 <main+0x128>)
 80003ba:	f004 fdb1 	bl	8004f20 <mbed::Stream::printf(char const*, ...)>
 80003be:	e032      	b.n	8000426 <main+0xf6>
 80003c0:	4826      	ldr	r0, [pc, #152]	; (800045c <main+0x12c>)
 80003c2:	f7ff ff65 	bl	8000290 <mbed::DigitalIn::operator int()>
 80003c6:	4603      	mov	r3, r0
 80003c8:	2b00      	cmp	r3, #0
 80003ca:	bf14      	ite	ne
 80003cc:	2301      	movne	r3, #1
 80003ce:	2300      	moveq	r3, #0
 80003d0:	b2db      	uxtb	r3, r3
 80003d2:	2b00      	cmp	r3, #0
 80003d4:	d009      	beq.n	80003ea <main+0xba>
 80003d6:	4814      	ldr	r0, [pc, #80]	; (8000428 <main+0xf8>)
 80003d8:	2100      	movs	r1, #0
 80003da:	2201      	movs	r2, #1
 80003dc:	f001 f874 	bl	80014c8 <TextLCD_Base::locate(int, int)>
 80003e0:	4811      	ldr	r0, [pc, #68]	; (8000428 <main+0xf8>)
 80003e2:	491f      	ldr	r1, [pc, #124]	; (8000460 <main+0x130>)
 80003e4:	f004 fd9c 	bl	8004f20 <mbed::Stream::printf(char const*, ...)>
 80003e8:	e01d      	b.n	8000426 <main+0xf6>
 80003ea:	481e      	ldr	r0, [pc, #120]	; (8000464 <main+0x134>)
 80003ec:	f7ff ff50 	bl	8000290 <mbed::DigitalIn::operator int()>
 80003f0:	4603      	mov	r3, r0
 80003f2:	2b00      	cmp	r3, #0
 80003f4:	bf14      	ite	ne
 80003f6:	2301      	movne	r3, #1
 80003f8:	2300      	moveq	r3, #0
 80003fa:	b2db      	uxtb	r3, r3
 80003fc:	2b00      	cmp	r3, #0
 80003fe:	d009      	beq.n	8000414 <main+0xe4>
 8000400:	4809      	ldr	r0, [pc, #36]	; (8000428 <main+0xf8>)
 8000402:	2100      	movs	r1, #0
 8000404:	2201      	movs	r2, #1
 8000406:	f001 f85f 	bl	80014c8 <TextLCD_Base::locate(int, int)>
 800040a:	4807      	ldr	r0, [pc, #28]	; (8000428 <main+0xf8>)
 800040c:	4916      	ldr	r1, [pc, #88]	; (8000468 <main+0x138>)
 800040e:	f004 fd87 	bl	8004f20 <mbed::Stream::printf(char const*, ...)>
 8000412:	e008      	b.n	8000426 <main+0xf6>
 8000414:	4804      	ldr	r0, [pc, #16]	; (8000428 <main+0xf8>)
 8000416:	2100      	movs	r1, #0
 8000418:	2201      	movs	r2, #1
 800041a:	f001 f855 	bl	80014c8 <TextLCD_Base::locate(int, int)>
 800041e:	4802      	ldr	r0, [pc, #8]	; (8000428 <main+0xf8>)
 8000420:	4912      	ldr	r1, [pc, #72]	; (800046c <main+0x13c>)
 8000422:	f004 fd7d 	bl	8004f20 <mbed::Stream::printf(char const*, ...)>
 8000426:	e79d      	b.n	8000364 <main+0x34>
 8000428:	20000380 	.word	0x20000380
 800042c:	08007028 	.word	0x08007028
 8000430:	20000290 	.word	0x20000290
 8000434:	08007038 	.word	0x08007038
 8000438:	200002a8 	.word	0x200002a8
 800043c:	40400000 	.word	0x40400000
 8000440:	20000304 	.word	0x20000304
 8000444:	08007048 	.word	0x08007048
 8000448:	20000330 	.word	0x20000330
 800044c:	08007050 	.word	0x08007050
 8000450:	20000344 	.word	0x20000344
 8000454:	08007058 	.word	0x08007058
 8000458:	08007060 	.word	0x08007060
 800045c:	20000358 	.word	0x20000358
 8000460:	08007068 	.word	0x08007068
 8000464:	2000036c 	.word	0x2000036c
 8000468:	08007070 	.word	0x08007070
 800046c:	08007078 	.word	0x08007078

08000470 <mbed::Serial::~Serial()>:
 8000470:	b500      	push	{lr}
 8000472:	b083      	sub	sp, #12
 8000474:	9001      	str	r0, [sp, #4]
 8000476:	9b01      	ldr	r3, [sp, #4]
 8000478:	4a0d      	ldr	r2, [pc, #52]	; (80004b0 <mbed::Serial::~Serial()+0x40>)
 800047a:	601a      	str	r2, [r3, #0]
 800047c:	9b01      	ldr	r3, [sp, #4]
 800047e:	4a0d      	ldr	r2, [pc, #52]	; (80004b4 <mbed::Serial::~Serial()+0x44>)
 8000480:	65da      	str	r2, [r3, #92]	; 0x5c
 8000482:	9b01      	ldr	r3, [sp, #4]
 8000484:	4a0c      	ldr	r2, [pc, #48]	; (80004b8 <mbed::Serial::~Serial()+0x48>)
 8000486:	661a      	str	r2, [r3, #96]	; 0x60
 8000488:	9b01      	ldr	r3, [sp, #4]
 800048a:	335c      	adds	r3, #92	; 0x5c
 800048c:	4618      	mov	r0, r3
 800048e:	f004 fcaf 	bl	8004df0 <mbed::Stream::~Stream()>
 8000492:	9b01      	ldr	r3, [sp, #4]
 8000494:	4618      	mov	r0, r3
 8000496:	f7ff ff29 	bl	80002ec <mbed::SerialBase::~SerialBase()>
 800049a:	2300      	movs	r3, #0
 800049c:	2b00      	cmp	r3, #0
 800049e:	d002      	beq.n	80004a6 <mbed::Serial::~Serial()+0x36>
 80004a0:	9801      	ldr	r0, [sp, #4]
 80004a2:	f004 fd8f 	bl	8004fc4 <operator delete(void*)>
 80004a6:	9b01      	ldr	r3, [sp, #4]
 80004a8:	4618      	mov	r0, r3
 80004aa:	b003      	add	sp, #12
 80004ac:	f85d fb04 	ldr.w	pc, [sp], #4
 80004b0:	08007810 	.word	0x08007810
 80004b4:	08007828 	.word	0x08007828
 80004b8:	0800785c 	.word	0x0800785c

080004bc <non-virtual thunk to mbed::Serial::~Serial()>:
 80004bc:	f1a0 005c 	sub.w	r0, r0, #92	; 0x5c
 80004c0:	f7ff bfd6 	b.w	8000470 <mbed::Serial::~Serial()>

080004c4 <non-virtual thunk to mbed::Serial::~Serial()>:
 80004c4:	f1a0 0060 	sub.w	r0, r0, #96	; 0x60
 80004c8:	f7ff bfd2 	b.w	8000470 <mbed::Serial::~Serial()>

080004cc <mbed::Serial::~Serial()>:
 80004cc:	b500      	push	{lr}
 80004ce:	b083      	sub	sp, #12
 80004d0:	9001      	str	r0, [sp, #4]
 80004d2:	9801      	ldr	r0, [sp, #4]
 80004d4:	f7ff ffcc 	bl	8000470 <mbed::Serial::~Serial()>
 80004d8:	9801      	ldr	r0, [sp, #4]
 80004da:	f004 fd73 	bl	8004fc4 <operator delete(void*)>
 80004de:	9b01      	ldr	r3, [sp, #4]
 80004e0:	4618      	mov	r0, r3
 80004e2:	b003      	add	sp, #12
 80004e4:	f85d fb04 	ldr.w	pc, [sp], #4

080004e8 <non-virtual thunk to mbed::Serial::~Serial()>:
 80004e8:	f1a0 005c 	sub.w	r0, r0, #92	; 0x5c
 80004ec:	e7ee      	b.n	80004cc <mbed::Serial::~Serial()>
 80004ee:	bf00      	nop

080004f0 <non-virtual thunk to mbed::Serial::~Serial()>:
 80004f0:	f1a0 0060 	sub.w	r0, r0, #96	; 0x60
 80004f4:	e7ea      	b.n	80004cc <mbed::Serial::~Serial()>
 80004f6:	bf00      	nop

080004f8 <__static_initialization_and_destruction_0(int, int)>:
 80004f8:	b500      	push	{lr}
 80004fa:	b08b      	sub	sp, #44	; 0x2c
 80004fc:	9009      	str	r0, [sp, #36]	; 0x24
 80004fe:	9108      	str	r1, [sp, #32]
 8000500:	9b09      	ldr	r3, [sp, #36]	; 0x24
 8000502:	2b01      	cmp	r3, #1
 8000504:	d14b      	bne.n	800059e <__static_initialization_and_destruction_0(int, int)+0xa6>
 8000506:	9b08      	ldr	r3, [sp, #32]
 8000508:	f64f 72ff 	movw	r2, #65535	; 0xffff
 800050c:	4293      	cmp	r3, r2
 800050e:	d146      	bne.n	800059e <__static_initialization_and_destruction_0(int, int)+0xa6>
 8000510:	4824      	ldr	r0, [pc, #144]	; (80005a4 <__static_initialization_and_destruction_0(int, int)+0xac>)
 8000512:	2102      	movs	r1, #2
 8000514:	2203      	movs	r2, #3
 8000516:	2300      	movs	r3, #0
 8000518:	f004 fb50 	bl	8004bbc <mbed::Serial::Serial(PinName, PinName, char const*)>
 800051c:	4821      	ldr	r0, [pc, #132]	; (80005a4 <__static_initialization_and_destruction_0(int, int)+0xac>)
 800051e:	4922      	ldr	r1, [pc, #136]	; (80005a8 <__static_initialization_and_destruction_0(int, int)+0xb0>)
 8000520:	4a22      	ldr	r2, [pc, #136]	; (80005ac <__static_initialization_and_destruction_0(int, int)+0xb4>)
 8000522:	f004 fd59 	bl	8004fd8 <__aeabi_atexit>
 8000526:	4822      	ldr	r0, [pc, #136]	; (80005b0 <__static_initialization_and_destruction_0(int, int)+0xb8>)
 8000528:	210b      	movs	r1, #11
 800052a:	220c      	movs	r2, #12
 800052c:	2300      	movs	r3, #0
 800052e:	f004 fb45 	bl	8004bbc <mbed::Serial::Serial(PinName, PinName, char const*)>
 8000532:	481f      	ldr	r0, [pc, #124]	; (80005b0 <__static_initialization_and_destruction_0(int, int)+0xb8>)
 8000534:	491c      	ldr	r1, [pc, #112]	; (80005a8 <__static_initialization_and_destruction_0(int, int)+0xb0>)
 8000536:	4a1d      	ldr	r2, [pc, #116]	; (80005ac <__static_initialization_and_destruction_0(int, int)+0xb4>)
 8000538:	f004 fd4e 	bl	8004fd8 <__aeabi_atexit>
 800053c:	481d      	ldr	r0, [pc, #116]	; (80005b4 <__static_initialization_and_destruction_0(int, int)+0xbc>)
 800053e:	2105      	movs	r1, #5
 8000540:	f7ff feb2 	bl	80002a8 <mbed::DigitalOut::DigitalOut(PinName)>
 8000544:	481c      	ldr	r0, [pc, #112]	; (80005b8 <__static_initialization_and_destruction_0(int, int)+0xc0>)
 8000546:	2116      	movs	r1, #22
 8000548:	f7ff fe74 	bl	8000234 <mbed::DigitalIn::DigitalIn(PinName)>
 800054c:	481b      	ldr	r0, [pc, #108]	; (80005bc <__static_initialization_and_destruction_0(int, int)+0xc4>)
 800054e:	2107      	movs	r1, #7
 8000550:	f7ff fe70 	bl	8000234 <mbed::DigitalIn::DigitalIn(PinName)>
 8000554:	481a      	ldr	r0, [pc, #104]	; (80005c0 <__static_initialization_and_destruction_0(int, int)+0xc8>)
 8000556:	2106      	movs	r1, #6
 8000558:	f7ff fe6c 	bl	8000234 <mbed::DigitalIn::DigitalIn(PinName)>
 800055c:	4819      	ldr	r0, [pc, #100]	; (80005c4 <__static_initialization_and_destruction_0(int, int)+0xcc>)
 800055e:	2105      	movs	r1, #5
 8000560:	f7ff fe68 	bl	8000234 <mbed::DigitalIn::DigitalIn(PinName)>
 8000564:	2314      	movs	r3, #20
 8000566:	9300      	str	r3, [sp, #0]
 8000568:	231a      	movs	r3, #26
 800056a:	9301      	str	r3, [sp, #4]
 800056c:	2308      	movs	r3, #8
 800056e:	9302      	str	r3, [sp, #8]
 8000570:	f44f 7304 	mov.w	r3, #528	; 0x210
 8000574:	9303      	str	r3, [sp, #12]
 8000576:	f04f 33ff 	mov.w	r3, #4294967295
 800057a:	9304      	str	r3, [sp, #16]
 800057c:	f04f 33ff 	mov.w	r3, #4294967295
 8000580:	9305      	str	r3, [sp, #20]
 8000582:	f04f 7380 	mov.w	r3, #16777216	; 0x1000000
 8000586:	9306      	str	r3, [sp, #24]
 8000588:	480f      	ldr	r0, [pc, #60]	; (80005c8 <__static_initialization_and_destruction_0(int, int)+0xd0>)
 800058a:	2109      	movs	r1, #9
 800058c:	2227      	movs	r2, #39	; 0x27
 800058e:	2315      	movs	r3, #21
 8000590:	f001 faf2 	bl	8001b78 <TextLCD::TextLCD(PinName, PinName, PinName, PinName, PinName, PinName, TextLCD_Base::LCDType, PinName, PinName, TextLCD_Base::LCDCtrl)>
 8000594:	480c      	ldr	r0, [pc, #48]	; (80005c8 <__static_initialization_and_destruction_0(int, int)+0xd0>)
 8000596:	490d      	ldr	r1, [pc, #52]	; (80005cc <__static_initialization_and_destruction_0(int, int)+0xd4>)
 8000598:	4a04      	ldr	r2, [pc, #16]	; (80005ac <__static_initialization_and_destruction_0(int, int)+0xb4>)
 800059a:	f004 fd1d 	bl	8004fd8 <__aeabi_atexit>
 800059e:	b00b      	add	sp, #44	; 0x2c
 80005a0:	f85d fb04 	ldr.w	pc, [sp], #4
 80005a4:	20000234 	.word	0x20000234
 80005a8:	08000471 	.word	0x08000471
 80005ac:	20000194 	.word	0x20000194
 80005b0:	200002a8 	.word	0x200002a8
 80005b4:	2000031c 	.word	0x2000031c
 80005b8:	20000330 	.word	0x20000330
 80005bc:	20000344 	.word	0x20000344
 80005c0:	20000358 	.word	0x20000358
 80005c4:	2000036c 	.word	0x2000036c
 80005c8:	20000380 	.word	0x20000380
 80005cc:	08001ccd 	.word	0x08001ccd

080005d0 <_GLOBAL__sub_I_pc>:
 80005d0:	b508      	push	{r3, lr}
 80005d2:	2001      	movs	r0, #1
 80005d4:	f64f 71ff 	movw	r1, #65535	; 0xffff
 80005d8:	f7ff ff8e 	bl	80004f8 <__static_initialization_and_destruction_0(int, int)>
 80005dc:	bd08      	pop	{r3, pc}
 80005de:	bf00      	nop

080005e0 <gpio_write>:
 80005e0:	b500      	push	{lr}
 80005e2:	b083      	sub	sp, #12
 80005e4:	9001      	str	r0, [sp, #4]
 80005e6:	9100      	str	r1, [sp, #0]
 80005e8:	9b01      	ldr	r3, [sp, #4]
 80005ea:	781b      	ldrb	r3, [r3, #0]
 80005ec:	b25b      	sxtb	r3, r3
 80005ee:	f1b3 3fff 	cmp.w	r3, #4294967295
 80005f2:	d104      	bne.n	80005fe <gpio_write+0x1e>
 80005f4:	480b      	ldr	r0, [pc, #44]	; (8000624 <gpio_write+0x44>)
 80005f6:	490c      	ldr	r1, [pc, #48]	; (8000628 <gpio_write+0x48>)
 80005f8:	2235      	movs	r2, #53	; 0x35
 80005fa:	f001 fc9b 	bl	8001f34 <mbed_assert_internal>
 80005fe:	9b00      	ldr	r3, [sp, #0]
 8000600:	2b00      	cmp	r3, #0
 8000602:	d006      	beq.n	8000612 <gpio_write+0x32>
 8000604:	9b01      	ldr	r3, [sp, #4]
 8000606:	68db      	ldr	r3, [r3, #12]
 8000608:	9a01      	ldr	r2, [sp, #4]
 800060a:	6852      	ldr	r2, [r2, #4]
 800060c:	b292      	uxth	r2, r2
 800060e:	801a      	strh	r2, [r3, #0]
 8000610:	e005      	b.n	800061e <gpio_write+0x3e>
 8000612:	9b01      	ldr	r3, [sp, #4]
 8000614:	691b      	ldr	r3, [r3, #16]
 8000616:	9a01      	ldr	r2, [sp, #4]
 8000618:	6852      	ldr	r2, [r2, #4]
 800061a:	b292      	uxth	r2, r2
 800061c:	801a      	strh	r2, [r3, #0]
 800061e:	b003      	add	sp, #12
 8000620:	f85d fb04 	ldr.w	pc, [sp], #4
 8000624:	08007090 	.word	0x08007090
 8000628:	080070a8 	.word	0x080070a8

0800062c <mbed::DigitalOut::write(int)>:
 800062c:	b500      	push	{lr}
 800062e:	b083      	sub	sp, #12
 8000630:	9001      	str	r0, [sp, #4]
 8000632:	9100      	str	r1, [sp, #0]
 8000634:	9b01      	ldr	r3, [sp, #4]
 8000636:	4618      	mov	r0, r3
 8000638:	9900      	ldr	r1, [sp, #0]
 800063a:	f7ff ffd1 	bl	80005e0 <gpio_write>
 800063e:	b003      	add	sp, #12
 8000640:	f85d fb04 	ldr.w	pc, [sp], #4

08000644 <mbed::DigitalOut::operator=(int)>:
 8000644:	b500      	push	{lr}
 8000646:	b083      	sub	sp, #12
 8000648:	9001      	str	r0, [sp, #4]
 800064a:	9100      	str	r1, [sp, #0]
 800064c:	9801      	ldr	r0, [sp, #4]
 800064e:	9900      	ldr	r1, [sp, #0]
 8000650:	f7ff ffec 	bl	800062c <mbed::DigitalOut::write(int)>
 8000654:	9b01      	ldr	r3, [sp, #4]
 8000656:	4618      	mov	r0, r3
 8000658:	b003      	add	sp, #12
 800065a:	f85d fb04 	ldr.w	pc, [sp], #4
 800065e:	bf00      	nop

08000660 <TextLCD_Base::TextLCD_Base(TextLCD_Base::LCDType, TextLCD_Base::LCDCtrl)>:
 8000660:	b500      	push	{lr}
 8000662:	b085      	sub	sp, #20
 8000664:	9003      	str	r0, [sp, #12]
 8000666:	9102      	str	r1, [sp, #8]
 8000668:	9201      	str	r2, [sp, #4]
 800066a:	9b03      	ldr	r3, [sp, #12]
 800066c:	4618      	mov	r0, r3
 800066e:	2100      	movs	r1, #0
 8000670:	f004 fb8c 	bl	8004d8c <mbed::Stream::Stream(char const*)>
 8000674:	9b03      	ldr	r3, [sp, #12]
 8000676:	4a10      	ldr	r2, [pc, #64]	; (80006b8 <TextLCD_Base::TextLCD_Base(TextLCD_Base::LCDType, TextLCD_Base::LCDCtrl)+0x58>)
 8000678:	601a      	str	r2, [r3, #0]
 800067a:	9b03      	ldr	r3, [sp, #12]
 800067c:	4a0f      	ldr	r2, [pc, #60]	; (80006bc <TextLCD_Base::TextLCD_Base(TextLCD_Base::LCDType, TextLCD_Base::LCDCtrl)+0x5c>)
 800067e:	605a      	str	r2, [r3, #4]
 8000680:	9b03      	ldr	r3, [sp, #12]
 8000682:	9a02      	ldr	r2, [sp, #8]
 8000684:	619a      	str	r2, [r3, #24]
 8000686:	9b03      	ldr	r3, [sp, #12]
 8000688:	9a01      	ldr	r2, [sp, #4]
 800068a:	62da      	str	r2, [r3, #44]	; 0x2c
 800068c:	9b03      	ldr	r3, [sp, #12]
 800068e:	699b      	ldr	r3, [r3, #24]
 8000690:	b2da      	uxtb	r2, r3
 8000692:	9b03      	ldr	r3, [sp, #12]
 8000694:	61da      	str	r2, [r3, #28]
 8000696:	9b03      	ldr	r3, [sp, #12]
 8000698:	699b      	ldr	r3, [r3, #24]
 800069a:	121b      	asrs	r3, r3, #8
 800069c:	b2da      	uxtb	r2, r3
 800069e:	9b03      	ldr	r3, [sp, #12]
 80006a0:	621a      	str	r2, [r3, #32]
 80006a2:	9b03      	ldr	r3, [sp, #12]
 80006a4:	699b      	ldr	r3, [r3, #24]
 80006a6:	f403 2270 	and.w	r2, r3, #983040	; 0xf0000
 80006aa:	9b03      	ldr	r3, [sp, #12]
 80006ac:	625a      	str	r2, [r3, #36]	; 0x24
 80006ae:	9b03      	ldr	r3, [sp, #12]
 80006b0:	4618      	mov	r0, r3
 80006b2:	b005      	add	sp, #20
 80006b4:	f85d fb04 	ldr.w	pc, [sp], #4
 80006b8:	080073b0 	.word	0x080073b0
 80006bc:	080073f8 	.word	0x080073f8

080006c0 <TextLCD_Base::_init(TextLCD_Base::_LCDDatalength)>:
 80006c0:	b500      	push	{lr}
 80006c2:	b083      	sub	sp, #12
 80006c4:	9001      	str	r0, [sp, #4]
 80006c6:	460b      	mov	r3, r1
 80006c8:	f88d 3003 	strb.w	r3, [sp, #3]
 80006cc:	9b01      	ldr	r3, [sp, #4]
 80006ce:	699b      	ldr	r3, [r3, #24]
 80006d0:	4a0e      	ldr	r2, [pc, #56]	; (800070c <TextLCD_Base::_init(TextLCD_Base::_LCDDatalength)+0x4c>)
 80006d2:	4293      	cmp	r3, r2
 80006d4:	d109      	bne.n	80006ea <TextLCD_Base::_init(TextLCD_Base::_LCDDatalength)+0x2a>
 80006d6:	9b01      	ldr	r3, [sp, #4]
 80006d8:	2201      	movs	r2, #1
 80006da:	f883 2030 	strb.w	r2, [r3, #48]	; 0x30
 80006de:	f89d 3003 	ldrb.w	r3, [sp, #3]
 80006e2:	9801      	ldr	r0, [sp, #4]
 80006e4:	4619      	mov	r1, r3
 80006e6:	f000 f813 	bl	8000710 <TextLCD_Base::_initCtrl(TextLCD_Base::_LCDDatalength)>
 80006ea:	9b01      	ldr	r3, [sp, #4]
 80006ec:	2200      	movs	r2, #0
 80006ee:	f883 2030 	strb.w	r2, [r3, #48]	; 0x30
 80006f2:	f89d 3003 	ldrb.w	r3, [sp, #3]
 80006f6:	9801      	ldr	r0, [sp, #4]
 80006f8:	4619      	mov	r1, r3
 80006fa:	f000 f809 	bl	8000710 <TextLCD_Base::_initCtrl(TextLCD_Base::_LCDDatalength)>
 80006fe:	9801      	ldr	r0, [sp, #4]
 8000700:	f000 fea2 	bl	8001448 <TextLCD_Base::cls()>
 8000704:	b003      	add	sp, #12
 8000706:	f85d fb04 	ldr.w	pc, [sp], #4
 800070a:	bf00      	nop
 800070c:	00050428 	.word	0x00050428

08000710 <TextLCD_Base::_initCtrl(TextLCD_Base::_LCDDatalength)>:
 8000710:	b500      	push	{lr}
 8000712:	b085      	sub	sp, #20
 8000714:	9001      	str	r0, [sp, #4]
 8000716:	460b      	mov	r3, r1
 8000718:	f88d 3003 	strb.w	r3, [sp, #3]
 800071c:	2300      	movs	r3, #0
 800071e:	9303      	str	r3, [sp, #12]
 8000720:	2300      	movs	r3, #0
 8000722:	9302      	str	r3, [sp, #8]
 8000724:	9b01      	ldr	r3, [sp, #4]
 8000726:	681b      	ldr	r3, [r3, #0]
 8000728:	3330      	adds	r3, #48	; 0x30
 800072a:	681b      	ldr	r3, [r3, #0]
 800072c:	9801      	ldr	r0, [sp, #4]
 800072e:	2100      	movs	r1, #0
 8000730:	4798      	blx	r3
 8000732:	2014      	movs	r0, #20
 8000734:	f001 fdce 	bl	80022d4 <wait_ms>
 8000738:	9801      	ldr	r0, [sp, #4]
 800073a:	2103      	movs	r1, #3
 800073c:	f000 ff3e 	bl	80015bc <TextLCD_Base::_writeNibble(int)>
 8000740:	200f      	movs	r0, #15
 8000742:	f001 fdc7 	bl	80022d4 <wait_ms>
 8000746:	9801      	ldr	r0, [sp, #4]
 8000748:	2103      	movs	r1, #3
 800074a:	f000 ff37 	bl	80015bc <TextLCD_Base::_writeNibble(int)>
 800074e:	200f      	movs	r0, #15
 8000750:	f001 fdc0 	bl	80022d4 <wait_ms>
 8000754:	9801      	ldr	r0, [sp, #4]
 8000756:	2103      	movs	r1, #3
 8000758:	f000 ff30 	bl	80015bc <TextLCD_Base::_writeNibble(int)>
 800075c:	200f      	movs	r0, #15
 800075e:	f001 fdb9 	bl	80022d4 <wait_ms>
 8000762:	9801      	ldr	r0, [sp, #4]
 8000764:	2102      	movs	r1, #2
 8000766:	f000 ff29 	bl	80015bc <TextLCD_Base::_writeNibble(int)>
 800076a:	2028      	movs	r0, #40	; 0x28
 800076c:	f001 fdc0 	bl	80022f0 <wait_us>
 8000770:	9b01      	ldr	r3, [sp, #4]
 8000772:	6adb      	ldr	r3, [r3, #44]	; 0x2c
 8000774:	4aa6      	ldr	r2, [pc, #664]	; (8000a10 <TextLCD_Base::_initCtrl(TextLCD_Base::_LCDDatalength)+0x300>)
 8000776:	4293      	cmp	r3, r2
 8000778:	f000 83d4 	beq.w	8000f24 <TextLCD_Base::_initCtrl(TextLCD_Base::_LCDDatalength)+0x814>
 800077c:	4aa4      	ldr	r2, [pc, #656]	; (8000a10 <TextLCD_Base::_initCtrl(TextLCD_Base::_LCDDatalength)+0x300>)
 800077e:	4293      	cmp	r3, r2
 8000780:	d821      	bhi.n	80007c6 <TextLCD_Base::_initCtrl(TextLCD_Base::_LCDDatalength)+0xb6>
 8000782:	4aa4      	ldr	r2, [pc, #656]	; (8000a14 <TextLCD_Base::_initCtrl(TextLCD_Base::_LCDDatalength)+0x304>)
 8000784:	4293      	cmp	r3, r2
 8000786:	d046      	beq.n	8000816 <TextLCD_Base::_initCtrl(TextLCD_Base::_LCDDatalength)+0x106>
 8000788:	4aa2      	ldr	r2, [pc, #648]	; (8000a14 <TextLCD_Base::_initCtrl(TextLCD_Base::_LCDDatalength)+0x304>)
 800078a:	4293      	cmp	r3, r2
 800078c:	d80d      	bhi.n	80007aa <TextLCD_Base::_initCtrl(TextLCD_Base::_LCDDatalength)+0x9a>
 800078e:	4aa2      	ldr	r2, [pc, #648]	; (8000a18 <TextLCD_Base::_initCtrl(TextLCD_Base::_LCDDatalength)+0x308>)
 8000790:	4293      	cmp	r3, r2
 8000792:	f000 85ab 	beq.w	80012ec <TextLCD_Base::_initCtrl(TextLCD_Base::_LCDDatalength)+0xbdc>
 8000796:	4aa1      	ldr	r2, [pc, #644]	; (8000a1c <TextLCD_Base::_initCtrl(TextLCD_Base::_LCDDatalength)+0x30c>)
 8000798:	4293      	cmp	r3, r2
 800079a:	f000 80aa 	beq.w	80008f2 <TextLCD_Base::_initCtrl(TextLCD_Base::_LCDDatalength)+0x1e2>
 800079e:	4aa0      	ldr	r2, [pc, #640]	; (8000a20 <TextLCD_Base::_initCtrl(TextLCD_Base::_LCDDatalength)+0x310>)
 80007a0:	4293      	cmp	r3, r2
 80007a2:	f000 8471 	beq.w	8001088 <TextLCD_Base::_initCtrl(TextLCD_Base::_LCDDatalength)+0x978>
 80007a6:	f000 bde7 	b.w	8001378 <TextLCD_Base::_initCtrl(TextLCD_Base::_LCDDatalength)+0xc68>
 80007aa:	4a9e      	ldr	r2, [pc, #632]	; (8000a24 <TextLCD_Base::_initCtrl(TextLCD_Base::_LCDDatalength)+0x314>)
 80007ac:	4293      	cmp	r3, r2
 80007ae:	f000 8331 	beq.w	8000e14 <TextLCD_Base::_initCtrl(TextLCD_Base::_LCDDatalength)+0x704>
 80007b2:	4a9d      	ldr	r2, [pc, #628]	; (8000a28 <TextLCD_Base::_initCtrl(TextLCD_Base::_LCDDatalength)+0x318>)
 80007b4:	4293      	cmp	r3, r2
 80007b6:	f000 83e8 	beq.w	8000f8a <TextLCD_Base::_initCtrl(TextLCD_Base::_LCDDatalength)+0x87a>
 80007ba:	4a9c      	ldr	r2, [pc, #624]	; (8000a2c <TextLCD_Base::_initCtrl(TextLCD_Base::_LCDDatalength)+0x31c>)
 80007bc:	4293      	cmp	r3, r2
 80007be:	f000 821d 	beq.w	8000bfc <TextLCD_Base::_initCtrl(TextLCD_Base::_LCDDatalength)+0x4ec>
 80007c2:	f000 bdd9 	b.w	8001378 <TextLCD_Base::_initCtrl(TextLCD_Base::_LCDDatalength)+0xc68>
 80007c6:	4a9a      	ldr	r2, [pc, #616]	; (8000a30 <TextLCD_Base::_initCtrl(TextLCD_Base::_LCDDatalength)+0x320>)
 80007c8:	4293      	cmp	r3, r2
 80007ca:	f000 825d 	beq.w	8000c88 <TextLCD_Base::_initCtrl(TextLCD_Base::_LCDDatalength)+0x578>
 80007ce:	4a98      	ldr	r2, [pc, #608]	; (8000a30 <TextLCD_Base::_initCtrl(TextLCD_Base::_LCDDatalength)+0x320>)
 80007d0:	4293      	cmp	r3, r2
 80007d2:	d80d      	bhi.n	80007f0 <TextLCD_Base::_initCtrl(TextLCD_Base::_LCDDatalength)+0xe0>
 80007d4:	4a97      	ldr	r2, [pc, #604]	; (8000a34 <TextLCD_Base::_initCtrl(TextLCD_Base::_LCDDatalength)+0x324>)
 80007d6:	4293      	cmp	r3, r2
 80007d8:	f000 83ef 	beq.w	8000fba <TextLCD_Base::_initCtrl(TextLCD_Base::_LCDDatalength)+0x8aa>
 80007dc:	4a96      	ldr	r2, [pc, #600]	; (8000a38 <TextLCD_Base::_initCtrl(TextLCD_Base::_LCDDatalength)+0x328>)
 80007de:	4293      	cmp	r3, r2
 80007e0:	f000 84a0 	beq.w	8001124 <TextLCD_Base::_initCtrl(TextLCD_Base::_LCDDatalength)+0xa14>
 80007e4:	4a95      	ldr	r2, [pc, #596]	; (8000a3c <TextLCD_Base::_initCtrl(TextLCD_Base::_LCDDatalength)+0x32c>)
 80007e6:	4293      	cmp	r3, r2
 80007e8:	f000 8349 	beq.w	8000e7e <TextLCD_Base::_initCtrl(TextLCD_Base::_LCDDatalength)+0x76e>
 80007ec:	f000 bdc4 	b.w	8001378 <TextLCD_Base::_initCtrl(TextLCD_Base::_LCDDatalength)+0xc68>
 80007f0:	4a93      	ldr	r2, [pc, #588]	; (8000a40 <TextLCD_Base::_initCtrl(TextLCD_Base::_LCDDatalength)+0x330>)
 80007f2:	4293      	cmp	r3, r2
 80007f4:	d809      	bhi.n	800080a <TextLCD_Base::_initCtrl(TextLCD_Base::_LCDDatalength)+0xfa>
 80007f6:	4a93      	ldr	r2, [pc, #588]	; (8000a44 <TextLCD_Base::_initCtrl(TextLCD_Base::_LCDDatalength)+0x334>)
 80007f8:	4293      	cmp	r3, r2
 80007fa:	f080 8184 	bcs.w	8000b06 <TextLCD_Base::_initCtrl(TextLCD_Base::_LCDDatalength)+0x3f6>
 80007fe:	4a92      	ldr	r2, [pc, #584]	; (8000a48 <TextLCD_Base::_initCtrl(TextLCD_Base::_LCDDatalength)+0x338>)
 8000800:	4293      	cmp	r3, r2
 8000802:	f000 80d2 	beq.w	80009aa <TextLCD_Base::_initCtrl(TextLCD_Base::_LCDDatalength)+0x29a>
 8000806:	f000 bdb7 	b.w	8001378 <TextLCD_Base::_initCtrl(TextLCD_Base::_LCDDatalength)+0xc68>
 800080a:	4a90      	ldr	r2, [pc, #576]	; (8000a4c <TextLCD_Base::_initCtrl(TextLCD_Base::_LCDDatalength)+0x33c>)
 800080c:	4293      	cmp	r3, r2
 800080e:	f000 80cc 	beq.w	80009aa <TextLCD_Base::_initCtrl(TextLCD_Base::_LCDDatalength)+0x29a>
 8000812:	f000 bdb1 	b.w	8001378 <TextLCD_Base::_initCtrl(TextLCD_Base::_LCDDatalength)+0xc68>
 8000816:	9b01      	ldr	r3, [sp, #4]
 8000818:	699b      	ldr	r3, [r3, #24]
 800081a:	f5b3 7f8c 	cmp.w	r3, #280	; 0x118
 800081e:	d024      	beq.n	800086a <TextLCD_Base::_initCtrl(TextLCD_Base::_LCDDatalength)+0x15a>
 8000820:	f5b3 7f8c 	cmp.w	r3, #280	; 0x118
 8000824:	dc10      	bgt.n	8000848 <TextLCD_Base::_initCtrl(TextLCD_Base::_LCDDatalength)+0x138>
 8000826:	f5b3 7f86 	cmp.w	r3, #268	; 0x10c
 800082a:	d01e      	beq.n	800086a <TextLCD_Base::_initCtrl(TextLCD_Base::_LCDDatalength)+0x15a>
 800082c:	f5b3 7f86 	cmp.w	r3, #268	; 0x10c
 8000830:	dc03      	bgt.n	800083a <TextLCD_Base::_initCtrl(TextLCD_Base::_LCDDatalength)+0x12a>
 8000832:	f5b3 7f84 	cmp.w	r3, #264	; 0x108
 8000836:	d018      	beq.n	800086a <TextLCD_Base::_initCtrl(TextLCD_Base::_LCDDatalength)+0x15a>
 8000838:	e02f      	b.n	800089a <TextLCD_Base::_initCtrl(TextLCD_Base::_LCDDatalength)+0x18a>
 800083a:	f5b3 7f88 	cmp.w	r3, #272	; 0x110
 800083e:	d014      	beq.n	800086a <TextLCD_Base::_initCtrl(TextLCD_Base::_LCDDatalength)+0x15a>
 8000840:	f5b3 7f8a 	cmp.w	r3, #276	; 0x114
 8000844:	d011      	beq.n	800086a <TextLCD_Base::_initCtrl(TextLCD_Base::_LCDDatalength)+0x15a>
 8000846:	e028      	b.n	800089a <TextLCD_Base::_initCtrl(TextLCD_Base::_LCDDatalength)+0x18a>
 8000848:	4a81      	ldr	r2, [pc, #516]	; (8000a50 <TextLCD_Base::_initCtrl(TextLCD_Base::_LCDDatalength)+0x340>)
 800084a:	4293      	cmp	r3, r2
 800084c:	d017      	beq.n	800087e <TextLCD_Base::_initCtrl(TextLCD_Base::_LCDDatalength)+0x16e>
 800084e:	4a80      	ldr	r2, [pc, #512]	; (8000a50 <TextLCD_Base::_initCtrl(TextLCD_Base::_LCDDatalength)+0x340>)
 8000850:	4293      	cmp	r3, r2
 8000852:	dc03      	bgt.n	800085c <TextLCD_Base::_initCtrl(TextLCD_Base::_LCDDatalength)+0x14c>
 8000854:	4a7f      	ldr	r2, [pc, #508]	; (8000a54 <TextLCD_Base::_initCtrl(TextLCD_Base::_LCDDatalength)+0x344>)
 8000856:	4293      	cmp	r3, r2
 8000858:	d011      	beq.n	800087e <TextLCD_Base::_initCtrl(TextLCD_Base::_LCDDatalength)+0x16e>
 800085a:	e01e      	b.n	800089a <TextLCD_Base::_initCtrl(TextLCD_Base::_LCDDatalength)+0x18a>
 800085c:	4a7e      	ldr	r2, [pc, #504]	; (8000a58 <TextLCD_Base::_initCtrl(TextLCD_Base::_LCDDatalength)+0x348>)
 800085e:	4293      	cmp	r3, r2
 8000860:	d017      	beq.n	8000892 <TextLCD_Base::_initCtrl(TextLCD_Base::_LCDDatalength)+0x182>
 8000862:	4a7e      	ldr	r2, [pc, #504]	; (8000a5c <TextLCD_Base::_initCtrl(TextLCD_Base::_LCDDatalength)+0x34c>)
 8000864:	4293      	cmp	r3, r2
 8000866:	d014      	beq.n	8000892 <TextLCD_Base::_initCtrl(TextLCD_Base::_LCDDatalength)+0x182>
 8000868:	e017      	b.n	800089a <TextLCD_Base::_initCtrl(TextLCD_Base::_LCDDatalength)+0x18a>
 800086a:	9b01      	ldr	r3, [sp, #4]
 800086c:	2202      	movs	r2, #2
 800086e:	641a      	str	r2, [r3, #64]	; 0x40
 8000870:	9b01      	ldr	r3, [sp, #4]
 8000872:	2204      	movs	r2, #4
 8000874:	645a      	str	r2, [r3, #68]	; 0x44
 8000876:	9b01      	ldr	r3, [sp, #4]
 8000878:	2200      	movs	r2, #0
 800087a:	649a      	str	r2, [r3, #72]	; 0x48
 800087c:	e017      	b.n	80008ae <TextLCD_Base::_initCtrl(TextLCD_Base::_LCDDatalength)+0x19e>
 800087e:	9b01      	ldr	r3, [sp, #4]
 8000880:	2202      	movs	r2, #2
 8000882:	641a      	str	r2, [r3, #64]	; 0x40
 8000884:	9b01      	ldr	r3, [sp, #4]
 8000886:	2204      	movs	r2, #4
 8000888:	645a      	str	r2, [r3, #68]	; 0x44
 800088a:	9b01      	ldr	r3, [sp, #4]
 800088c:	2201      	movs	r2, #1
 800088e:	649a      	str	r2, [r3, #72]	; 0x48
 8000890:	e00d      	b.n	80008ae <TextLCD_Base::_initCtrl(TextLCD_Base::_LCDDatalength)+0x19e>
 8000892:	4873      	ldr	r0, [pc, #460]	; (8000a60 <TextLCD_Base::_initCtrl(TextLCD_Base::_LCDDatalength)+0x350>)
 8000894:	f001 fb72 	bl	8001f7c <error>
 8000898:	e009      	b.n	80008ae <TextLCD_Base::_initCtrl(TextLCD_Base::_LCDDatalength)+0x19e>
 800089a:	9b01      	ldr	r3, [sp, #4]
 800089c:	220a      	movs	r2, #10
 800089e:	641a      	str	r2, [r3, #64]	; 0x40
 80008a0:	9b01      	ldr	r3, [sp, #4]
 80008a2:	220c      	movs	r2, #12
 80008a4:	645a      	str	r2, [r3, #68]	; 0x44
 80008a6:	9b01      	ldr	r3, [sp, #4]
 80008a8:	2200      	movs	r2, #0
 80008aa:	649a      	str	r2, [r3, #72]	; 0x48
 80008ac:	bf00      	nop
 80008ae:	9b01      	ldr	r3, [sp, #4]
 80008b0:	6c5b      	ldr	r3, [r3, #68]	; 0x44
 80008b2:	f043 0320 	orr.w	r3, r3, #32
 80008b6:	9801      	ldr	r0, [sp, #4]
 80008b8:	4619      	mov	r1, r3
 80008ba:	f000 fee5 	bl	8001688 <TextLCD_Base::_writeCommand(int)>
 80008be:	9b01      	ldr	r3, [sp, #4]
 80008c0:	6c9b      	ldr	r3, [r3, #72]	; 0x48
 80008c2:	f043 0308 	orr.w	r3, r3, #8
 80008c6:	9801      	ldr	r0, [sp, #4]
 80008c8:	4619      	mov	r1, r3
 80008ca:	f000 fedd 	bl	8001688 <TextLCD_Base::_writeCommand(int)>
 80008ce:	9801      	ldr	r0, [sp, #4]
 80008d0:	2110      	movs	r1, #16
 80008d2:	f000 fed9 	bl	8001688 <TextLCD_Base::_writeCommand(int)>
 80008d6:	9801      	ldr	r0, [sp, #4]
 80008d8:	2180      	movs	r1, #128	; 0x80
 80008da:	f000 fed5 	bl	8001688 <TextLCD_Base::_writeCommand(int)>
 80008de:	9b01      	ldr	r3, [sp, #4]
 80008e0:	6c1b      	ldr	r3, [r3, #64]	; 0x40
 80008e2:	f043 0320 	orr.w	r3, r3, #32
 80008e6:	9801      	ldr	r0, [sp, #4]
 80008e8:	4619      	mov	r1, r3
 80008ea:	f000 fecd 	bl	8001688 <TextLCD_Base::_writeCommand(int)>
 80008ee:	f000 bd94 	b.w	800141a <TextLCD_Base::_initCtrl(TextLCD_Base::_LCDDatalength)+0xd0a>
 80008f2:	9b01      	ldr	r3, [sp, #4]
 80008f4:	699b      	ldr	r3, [r3, #24]
 80008f6:	f5b3 7f8c 	cmp.w	r3, #280	; 0x118
 80008fa:	d012      	beq.n	8000922 <TextLCD_Base::_initCtrl(TextLCD_Base::_LCDDatalength)+0x212>
 80008fc:	f5b3 7f8c 	cmp.w	r3, #280	; 0x118
 8000900:	dc06      	bgt.n	8000910 <TextLCD_Base::_initCtrl(TextLCD_Base::_LCDDatalength)+0x200>
 8000902:	f5b3 7f84 	cmp.w	r3, #264	; 0x108
 8000906:	d00c      	beq.n	8000922 <TextLCD_Base::_initCtrl(TextLCD_Base::_LCDDatalength)+0x212>
 8000908:	f5b3 7f88 	cmp.w	r3, #272	; 0x110
 800090c:	d009      	beq.n	8000922 <TextLCD_Base::_initCtrl(TextLCD_Base::_LCDDatalength)+0x212>
 800090e:	e020      	b.n	8000952 <TextLCD_Base::_initCtrl(TextLCD_Base::_LCDDatalength)+0x242>
 8000910:	4a51      	ldr	r2, [pc, #324]	; (8000a58 <TextLCD_Base::_initCtrl(TextLCD_Base::_LCDDatalength)+0x348>)
 8000912:	4293      	cmp	r3, r2
 8000914:	d00f      	beq.n	8000936 <TextLCD_Base::_initCtrl(TextLCD_Base::_LCDDatalength)+0x226>
 8000916:	4a51      	ldr	r2, [pc, #324]	; (8000a5c <TextLCD_Base::_initCtrl(TextLCD_Base::_LCDDatalength)+0x34c>)
 8000918:	4293      	cmp	r3, r2
 800091a:	d016      	beq.n	800094a <TextLCD_Base::_initCtrl(TextLCD_Base::_LCDDatalength)+0x23a>
 800091c:	4a51      	ldr	r2, [pc, #324]	; (8000a64 <TextLCD_Base::_initCtrl(TextLCD_Base::_LCDDatalength)+0x354>)
 800091e:	4293      	cmp	r3, r2
 8000920:	d117      	bne.n	8000952 <TextLCD_Base::_initCtrl(TextLCD_Base::_LCDDatalength)+0x242>
 8000922:	9b01      	ldr	r3, [sp, #4]
 8000924:	2202      	movs	r2, #2
 8000926:	641a      	str	r2, [r3, #64]	; 0x40
 8000928:	9b01      	ldr	r3, [sp, #4]
 800092a:	2204      	movs	r2, #4
 800092c:	645a      	str	r2, [r3, #68]	; 0x44
 800092e:	9b01      	ldr	r3, [sp, #4]
 8000930:	2200      	movs	r2, #0
 8000932:	649a      	str	r2, [r3, #72]	; 0x48
 8000934:	e017      	b.n	8000966 <TextLCD_Base::_initCtrl(TextLCD_Base::_LCDDatalength)+0x256>
 8000936:	9b01      	ldr	r3, [sp, #4]
 8000938:	2202      	movs	r2, #2
 800093a:	641a      	str	r2, [r3, #64]	; 0x40
 800093c:	9b01      	ldr	r3, [sp, #4]
 800093e:	2204      	movs	r2, #4
 8000940:	645a      	str	r2, [r3, #68]	; 0x44
 8000942:	9b01      	ldr	r3, [sp, #4]
 8000944:	2201      	movs	r2, #1
 8000946:	649a      	str	r2, [r3, #72]	; 0x48
 8000948:	e00d      	b.n	8000966 <TextLCD_Base::_initCtrl(TextLCD_Base::_LCDDatalength)+0x256>
 800094a:	4845      	ldr	r0, [pc, #276]	; (8000a60 <TextLCD_Base::_initCtrl(TextLCD_Base::_LCDDatalength)+0x350>)
 800094c:	f001 fb16 	bl	8001f7c <error>
 8000950:	e009      	b.n	8000966 <TextLCD_Base::_initCtrl(TextLCD_Base::_LCDDatalength)+0x256>
 8000952:	9b01      	ldr	r3, [sp, #4]
 8000954:	220a      	movs	r2, #10
 8000956:	641a      	str	r2, [r3, #64]	; 0x40
 8000958:	9b01      	ldr	r3, [sp, #4]
 800095a:	220c      	movs	r2, #12
 800095c:	645a      	str	r2, [r3, #68]	; 0x44
 800095e:	9b01      	ldr	r3, [sp, #4]
 8000960:	2200      	movs	r2, #0
 8000962:	649a      	str	r2, [r3, #72]	; 0x48
 8000964:	bf00      	nop
 8000966:	9b01      	ldr	r3, [sp, #4]
 8000968:	6c5b      	ldr	r3, [r3, #68]	; 0x44
 800096a:	f043 0320 	orr.w	r3, r3, #32
 800096e:	9801      	ldr	r0, [sp, #4]
 8000970:	4619      	mov	r1, r3
 8000972:	f000 fe89 	bl	8001688 <TextLCD_Base::_writeCommand(int)>
 8000976:	9b01      	ldr	r3, [sp, #4]
 8000978:	6c9b      	ldr	r3, [r3, #72]	; 0x48
 800097a:	f043 0308 	orr.w	r3, r3, #8
 800097e:	9801      	ldr	r0, [sp, #4]
 8000980:	4619      	mov	r1, r3
 8000982:	f000 fe81 	bl	8001688 <TextLCD_Base::_writeCommand(int)>
 8000986:	9801      	ldr	r0, [sp, #4]
 8000988:	2110      	movs	r1, #16
 800098a:	f000 fe7d 	bl	8001688 <TextLCD_Base::_writeCommand(int)>
 800098e:	9801      	ldr	r0, [sp, #4]
 8000990:	2180      	movs	r1, #128	; 0x80
 8000992:	f000 fe79 	bl	8001688 <TextLCD_Base::_writeCommand(int)>
 8000996:	9b01      	ldr	r3, [sp, #4]
 8000998:	6c1b      	ldr	r3, [r3, #64]	; 0x40
 800099a:	f043 0320 	orr.w	r3, r3, #32
 800099e:	9801      	ldr	r0, [sp, #4]
 80009a0:	4619      	mov	r1, r3
 80009a2:	f000 fe71 	bl	8001688 <TextLCD_Base::_writeCommand(int)>
 80009a6:	f000 bd38 	b.w	800141a <TextLCD_Base::_initCtrl(TextLCD_Base::_LCDDatalength)+0xd0a>
 80009aa:	9b01      	ldr	r3, [sp, #4]
 80009ac:	699b      	ldr	r3, [r3, #24]
 80009ae:	4a2d      	ldr	r2, [pc, #180]	; (8000a64 <TextLCD_Base::_initCtrl(TextLCD_Base::_LCDDatalength)+0x354>)
 80009b0:	4293      	cmp	r3, r2
 80009b2:	d024      	beq.n	80009fe <TextLCD_Base::_initCtrl(TextLCD_Base::_LCDDatalength)+0x2ee>
 80009b4:	4a2b      	ldr	r2, [pc, #172]	; (8000a64 <TextLCD_Base::_initCtrl(TextLCD_Base::_LCDDatalength)+0x354>)
 80009b6:	4293      	cmp	r3, r2
 80009b8:	dc10      	bgt.n	80009dc <TextLCD_Base::_initCtrl(TextLCD_Base::_LCDDatalength)+0x2cc>
 80009ba:	f5b3 7f88 	cmp.w	r3, #272	; 0x110
 80009be:	d01e      	beq.n	80009fe <TextLCD_Base::_initCtrl(TextLCD_Base::_LCDDatalength)+0x2ee>
 80009c0:	f5b3 7f88 	cmp.w	r3, #272	; 0x110
 80009c4:	dc03      	bgt.n	80009ce <TextLCD_Base::_initCtrl(TextLCD_Base::_LCDDatalength)+0x2be>
 80009c6:	f5b3 7f84 	cmp.w	r3, #264	; 0x108
 80009ca:	d018      	beq.n	80009fe <TextLCD_Base::_initCtrl(TextLCD_Base::_LCDDatalength)+0x2ee>
 80009cc:	e050      	b.n	8000a70 <TextLCD_Base::_initCtrl(TextLCD_Base::_LCDDatalength)+0x360>
 80009ce:	f5b3 7f8c 	cmp.w	r3, #280	; 0x118
 80009d2:	d014      	beq.n	80009fe <TextLCD_Base::_initCtrl(TextLCD_Base::_LCDDatalength)+0x2ee>
 80009d4:	4a1f      	ldr	r2, [pc, #124]	; (8000a54 <TextLCD_Base::_initCtrl(TextLCD_Base::_LCDDatalength)+0x344>)
 80009d6:	4293      	cmp	r3, r2
 80009d8:	d015      	beq.n	8000a06 <TextLCD_Base::_initCtrl(TextLCD_Base::_LCDDatalength)+0x2f6>
 80009da:	e049      	b.n	8000a70 <TextLCD_Base::_initCtrl(TextLCD_Base::_LCDDatalength)+0x360>
 80009dc:	4a1e      	ldr	r2, [pc, #120]	; (8000a58 <TextLCD_Base::_initCtrl(TextLCD_Base::_LCDDatalength)+0x348>)
 80009de:	4293      	cmp	r3, r2
 80009e0:	d011      	beq.n	8000a06 <TextLCD_Base::_initCtrl(TextLCD_Base::_LCDDatalength)+0x2f6>
 80009e2:	4a1d      	ldr	r2, [pc, #116]	; (8000a58 <TextLCD_Base::_initCtrl(TextLCD_Base::_LCDDatalength)+0x348>)
 80009e4:	4293      	cmp	r3, r2
 80009e6:	dc03      	bgt.n	80009f0 <TextLCD_Base::_initCtrl(TextLCD_Base::_LCDDatalength)+0x2e0>
 80009e8:	4a1f      	ldr	r2, [pc, #124]	; (8000a68 <TextLCD_Base::_initCtrl(TextLCD_Base::_LCDDatalength)+0x358>)
 80009ea:	4293      	cmp	r3, r2
 80009ec:	d00b      	beq.n	8000a06 <TextLCD_Base::_initCtrl(TextLCD_Base::_LCDDatalength)+0x2f6>
 80009ee:	e03f      	b.n	8000a70 <TextLCD_Base::_initCtrl(TextLCD_Base::_LCDDatalength)+0x360>
 80009f0:	4a1e      	ldr	r2, [pc, #120]	; (8000a6c <TextLCD_Base::_initCtrl(TextLCD_Base::_LCDDatalength)+0x35c>)
 80009f2:	4293      	cmp	r3, r2
 80009f4:	d007      	beq.n	8000a06 <TextLCD_Base::_initCtrl(TextLCD_Base::_LCDDatalength)+0x2f6>
 80009f6:	4a19      	ldr	r2, [pc, #100]	; (8000a5c <TextLCD_Base::_initCtrl(TextLCD_Base::_LCDDatalength)+0x34c>)
 80009f8:	4293      	cmp	r3, r2
 80009fa:	d004      	beq.n	8000a06 <TextLCD_Base::_initCtrl(TextLCD_Base::_LCDDatalength)+0x2f6>
 80009fc:	e038      	b.n	8000a70 <TextLCD_Base::_initCtrl(TextLCD_Base::_LCDDatalength)+0x360>
 80009fe:	9b01      	ldr	r3, [sp, #4]
 8000a00:	2200      	movs	r2, #0
 8000a02:	641a      	str	r2, [r3, #64]	; 0x40
 8000a04:	e038      	b.n	8000a78 <TextLCD_Base::_initCtrl(TextLCD_Base::_LCDDatalength)+0x368>
 8000a06:	4816      	ldr	r0, [pc, #88]	; (8000a60 <TextLCD_Base::_initCtrl(TextLCD_Base::_LCDDatalength)+0x350>)
 8000a08:	f001 fab8 	bl	8001f7c <error>
 8000a0c:	e034      	b.n	8000a78 <TextLCD_Base::_initCtrl(TextLCD_Base::_LCDDatalength)+0x368>
 8000a0e:	bf00      	nop
 8000a10:	81010009 	.word	0x81010009
 8000a14:	21080015 	.word	0x21080015
 8000a18:	11020011 	.word	0x11020011
 8000a1c:	21080006 	.word	0x21080006
 8000a20:	09080001 	.word	0x09080001
 8000a24:	81000007 	.word	0x81000007
 8000a28:	8100000a 	.word	0x8100000a
 8000a2c:	43000014 	.word	0x43000014
 8000a30:	a10b000e 	.word	0xa10b000e
 8000a34:	8103000b 	.word	0x8103000b
 8000a38:	a10a0010 	.word	0xa10a0010
 8000a3c:	81030008 	.word	0x81030008
 8000a40:	c1030003 	.word	0xc1030003
 8000a44:	c1030002 	.word	0xc1030002
 8000a48:	c1020005 	.word	0xc1020005
 8000a4c:	c1030004 	.word	0xc1030004
 8000a50:	00030414 	.word	0x00030414
 8000a54:	0001040c 	.word	0x0001040c
 8000a58:	00030418 	.word	0x00030418
 8000a5c:	00070310 	.word	0x00070310
 8000a60:	0800710c 	.word	0x0800710c
 8000a64:	00030208 	.word	0x00030208
 8000a68:	0003030c 	.word	0x0003030c
 8000a6c:	0004030c 	.word	0x0004030c
 8000a70:	9b01      	ldr	r3, [sp, #4]
 8000a72:	2208      	movs	r2, #8
 8000a74:	641a      	str	r2, [r3, #64]	; 0x40
 8000a76:	bf00      	nop
 8000a78:	9b01      	ldr	r3, [sp, #4]
 8000a7a:	6c1b      	ldr	r3, [r3, #64]	; 0x40
 8000a7c:	f043 0321 	orr.w	r3, r3, #33	; 0x21
 8000a80:	9801      	ldr	r0, [sp, #4]
 8000a82:	4619      	mov	r1, r3
 8000a84:	f000 fe00 	bl	8001688 <TextLCD_Base::_writeCommand(int)>
 8000a88:	9801      	ldr	r0, [sp, #4]
 8000a8a:	211c      	movs	r1, #28
 8000a8c:	f000 fdfc 	bl	8001688 <TextLCD_Base::_writeCommand(int)>
 8000a90:	9b01      	ldr	r3, [sp, #4]
 8000a92:	2218      	movs	r2, #24
 8000a94:	651a      	str	r2, [r3, #80]	; 0x50
 8000a96:	9b01      	ldr	r3, [sp, #4]
 8000a98:	6d1b      	ldr	r3, [r3, #80]	; 0x50
 8000a9a:	f003 030f 	and.w	r3, r3, #15
 8000a9e:	f043 0370 	orr.w	r3, r3, #112	; 0x70
 8000aa2:	9801      	ldr	r0, [sp, #4]
 8000aa4:	4619      	mov	r1, r3
 8000aa6:	f000 fdef 	bl	8001688 <TextLCD_Base::_writeCommand(int)>
 8000aaa:	9b01      	ldr	r3, [sp, #4]
 8000aac:	6adb      	ldr	r3, [r3, #44]	; 0x2c
 8000aae:	4a9b      	ldr	r2, [pc, #620]	; (8000d1c <TextLCD_Base::_initCtrl(TextLCD_Base::_LCDDatalength)+0x60c>)
 8000ab0:	4293      	cmp	r3, r2
 8000ab2:	d103      	bne.n	8000abc <TextLCD_Base::_initCtrl(TextLCD_Base::_LCDDatalength)+0x3ac>
 8000ab4:	9b01      	ldr	r3, [sp, #4]
 8000ab6:	220c      	movs	r2, #12
 8000ab8:	64da      	str	r2, [r3, #76]	; 0x4c
 8000aba:	e002      	b.n	8000ac2 <TextLCD_Base::_initCtrl(TextLCD_Base::_LCDDatalength)+0x3b2>
 8000abc:	9b01      	ldr	r3, [sp, #4]
 8000abe:	2208      	movs	r2, #8
 8000ac0:	64da      	str	r2, [r3, #76]	; 0x4c
 8000ac2:	9b01      	ldr	r3, [sp, #4]
 8000ac4:	6cdb      	ldr	r3, [r3, #76]	; 0x4c
 8000ac6:	f043 0250 	orr.w	r2, r3, #80	; 0x50
 8000aca:	9b01      	ldr	r3, [sp, #4]
 8000acc:	6d1b      	ldr	r3, [r3, #80]	; 0x50
 8000ace:	111b      	asrs	r3, r3, #4
 8000ad0:	f003 0303 	and.w	r3, r3, #3
 8000ad4:	4313      	orrs	r3, r2
 8000ad6:	9801      	ldr	r0, [sp, #4]
 8000ad8:	4619      	mov	r1, r3
 8000ada:	f000 fdd5 	bl	8001688 <TextLCD_Base::_writeCommand(int)>
 8000ade:	200a      	movs	r0, #10
 8000ae0:	f001 fbf8 	bl	80022d4 <wait_ms>
 8000ae4:	9801      	ldr	r0, [sp, #4]
 8000ae6:	216c      	movs	r1, #108	; 0x6c
 8000ae8:	f000 fdce 	bl	8001688 <TextLCD_Base::_writeCommand(int)>
 8000aec:	200a      	movs	r0, #10
 8000aee:	f001 fbf1 	bl	80022d4 <wait_ms>
 8000af2:	9b01      	ldr	r3, [sp, #4]
 8000af4:	6c1b      	ldr	r3, [r3, #64]	; 0x40
 8000af6:	f043 0320 	orr.w	r3, r3, #32
 8000afa:	9801      	ldr	r0, [sp, #4]
 8000afc:	4619      	mov	r1, r3
 8000afe:	f000 fdc3 	bl	8001688 <TextLCD_Base::_writeCommand(int)>
 8000b02:	f000 bc8a 	b.w	800141a <TextLCD_Base::_initCtrl(TextLCD_Base::_LCDDatalength)+0xd0a>
 8000b06:	9b01      	ldr	r3, [sp, #4]
 8000b08:	699b      	ldr	r3, [r3, #24]
 8000b0a:	4a85      	ldr	r2, [pc, #532]	; (8000d20 <TextLCD_Base::_initCtrl(TextLCD_Base::_LCDDatalength)+0x610>)
 8000b0c:	4293      	cmp	r3, r2
 8000b0e:	d021      	beq.n	8000b54 <TextLCD_Base::_initCtrl(TextLCD_Base::_LCDDatalength)+0x444>
 8000b10:	4a83      	ldr	r2, [pc, #524]	; (8000d20 <TextLCD_Base::_initCtrl(TextLCD_Base::_LCDDatalength)+0x610>)
 8000b12:	4293      	cmp	r3, r2
 8000b14:	dc09      	bgt.n	8000b2a <TextLCD_Base::_initCtrl(TextLCD_Base::_LCDDatalength)+0x41a>
 8000b16:	f5b3 7f88 	cmp.w	r3, #272	; 0x110
 8000b1a:	d00f      	beq.n	8000b3c <TextLCD_Base::_initCtrl(TextLCD_Base::_LCDDatalength)+0x42c>
 8000b1c:	f5b3 7f8c 	cmp.w	r3, #280	; 0x118
 8000b20:	d00c      	beq.n	8000b3c <TextLCD_Base::_initCtrl(TextLCD_Base::_LCDDatalength)+0x42c>
 8000b22:	f5b3 7f84 	cmp.w	r3, #264	; 0x108
 8000b26:	d009      	beq.n	8000b3c <TextLCD_Base::_initCtrl(TextLCD_Base::_LCDDatalength)+0x42c>
 8000b28:	e018      	b.n	8000b5c <TextLCD_Base::_initCtrl(TextLCD_Base::_LCDDatalength)+0x44c>
 8000b2a:	4a7e      	ldr	r2, [pc, #504]	; (8000d24 <TextLCD_Base::_initCtrl(TextLCD_Base::_LCDDatalength)+0x614>)
 8000b2c:	4293      	cmp	r3, r2
 8000b2e:	d011      	beq.n	8000b54 <TextLCD_Base::_initCtrl(TextLCD_Base::_LCDDatalength)+0x444>
 8000b30:	4a7d      	ldr	r2, [pc, #500]	; (8000d28 <TextLCD_Base::_initCtrl(TextLCD_Base::_LCDDatalength)+0x618>)
 8000b32:	4293      	cmp	r3, r2
 8000b34:	d008      	beq.n	8000b48 <TextLCD_Base::_initCtrl(TextLCD_Base::_LCDDatalength)+0x438>
 8000b36:	4a7d      	ldr	r2, [pc, #500]	; (8000d2c <TextLCD_Base::_initCtrl(TextLCD_Base::_LCDDatalength)+0x61c>)
 8000b38:	4293      	cmp	r3, r2
 8000b3a:	d10f      	bne.n	8000b5c <TextLCD_Base::_initCtrl(TextLCD_Base::_LCDDatalength)+0x44c>
 8000b3c:	9b01      	ldr	r3, [sp, #4]
 8000b3e:	2200      	movs	r2, #0
 8000b40:	641a      	str	r2, [r3, #64]	; 0x40
 8000b42:	2304      	movs	r3, #4
 8000b44:	9303      	str	r3, [sp, #12]
 8000b46:	e00f      	b.n	8000b68 <TextLCD_Base::_initCtrl(TextLCD_Base::_LCDDatalength)+0x458>
 8000b48:	9b01      	ldr	r3, [sp, #4]
 8000b4a:	2208      	movs	r2, #8
 8000b4c:	641a      	str	r2, [r3, #64]	; 0x40
 8000b4e:	2305      	movs	r3, #5
 8000b50:	9303      	str	r3, [sp, #12]
 8000b52:	e009      	b.n	8000b68 <TextLCD_Base::_initCtrl(TextLCD_Base::_LCDDatalength)+0x458>
 8000b54:	4876      	ldr	r0, [pc, #472]	; (8000d30 <TextLCD_Base::_initCtrl(TextLCD_Base::_LCDDatalength)+0x620>)
 8000b56:	f001 fa11 	bl	8001f7c <error>
 8000b5a:	e005      	b.n	8000b68 <TextLCD_Base::_initCtrl(TextLCD_Base::_LCDDatalength)+0x458>
 8000b5c:	9b01      	ldr	r3, [sp, #4]
 8000b5e:	2208      	movs	r2, #8
 8000b60:	641a      	str	r2, [r3, #64]	; 0x40
 8000b62:	2304      	movs	r3, #4
 8000b64:	9303      	str	r3, [sp, #12]
 8000b66:	bf00      	nop
 8000b68:	9b01      	ldr	r3, [sp, #4]
 8000b6a:	6c1b      	ldr	r3, [r3, #64]	; 0x40
 8000b6c:	f043 0321 	orr.w	r3, r3, #33	; 0x21
 8000b70:	9801      	ldr	r0, [sp, #4]
 8000b72:	4619      	mov	r1, r3
 8000b74:	f000 fd88 	bl	8001688 <TextLCD_Base::_writeCommand(int)>
 8000b78:	9b03      	ldr	r3, [sp, #12]
 8000b7a:	f043 0310 	orr.w	r3, r3, #16
 8000b7e:	9801      	ldr	r0, [sp, #4]
 8000b80:	4619      	mov	r1, r3
 8000b82:	f000 fd81 	bl	8001688 <TextLCD_Base::_writeCommand(int)>
 8000b86:	9b01      	ldr	r3, [sp, #4]
 8000b88:	2228      	movs	r2, #40	; 0x28
 8000b8a:	651a      	str	r2, [r3, #80]	; 0x50
 8000b8c:	9b01      	ldr	r3, [sp, #4]
 8000b8e:	6d1b      	ldr	r3, [r3, #80]	; 0x50
 8000b90:	f003 030f 	and.w	r3, r3, #15
 8000b94:	f043 0370 	orr.w	r3, r3, #112	; 0x70
 8000b98:	9801      	ldr	r0, [sp, #4]
 8000b9a:	4619      	mov	r1, r3
 8000b9c:	f000 fd74 	bl	8001688 <TextLCD_Base::_writeCommand(int)>
 8000ba0:	9b01      	ldr	r3, [sp, #4]
 8000ba2:	6adb      	ldr	r3, [r3, #44]	; 0x2c
 8000ba4:	4a63      	ldr	r2, [pc, #396]	; (8000d34 <TextLCD_Base::_initCtrl(TextLCD_Base::_LCDDatalength)+0x624>)
 8000ba6:	4293      	cmp	r3, r2
 8000ba8:	d103      	bne.n	8000bb2 <TextLCD_Base::_initCtrl(TextLCD_Base::_LCDDatalength)+0x4a2>
 8000baa:	9b01      	ldr	r3, [sp, #4]
 8000bac:	220c      	movs	r2, #12
 8000bae:	64da      	str	r2, [r3, #76]	; 0x4c
 8000bb0:	e002      	b.n	8000bb8 <TextLCD_Base::_initCtrl(TextLCD_Base::_LCDDatalength)+0x4a8>
 8000bb2:	9b01      	ldr	r3, [sp, #4]
 8000bb4:	2208      	movs	r2, #8
 8000bb6:	64da      	str	r2, [r3, #76]	; 0x4c
 8000bb8:	9b01      	ldr	r3, [sp, #4]
 8000bba:	6cdb      	ldr	r3, [r3, #76]	; 0x4c
 8000bbc:	f043 0250 	orr.w	r2, r3, #80	; 0x50
 8000bc0:	9b01      	ldr	r3, [sp, #4]
 8000bc2:	6d1b      	ldr	r3, [r3, #80]	; 0x50
 8000bc4:	111b      	asrs	r3, r3, #4
 8000bc6:	f003 0303 	and.w	r3, r3, #3
 8000bca:	4313      	orrs	r3, r2
 8000bcc:	9801      	ldr	r0, [sp, #4]
 8000bce:	4619      	mov	r1, r3
 8000bd0:	f000 fd5a 	bl	8001688 <TextLCD_Base::_writeCommand(int)>
 8000bd4:	200a      	movs	r0, #10
 8000bd6:	f001 fb7d 	bl	80022d4 <wait_ms>
 8000bda:	9801      	ldr	r0, [sp, #4]
 8000bdc:	216c      	movs	r1, #108	; 0x6c
 8000bde:	f000 fd53 	bl	8001688 <TextLCD_Base::_writeCommand(int)>
 8000be2:	200a      	movs	r0, #10
 8000be4:	f001 fb76 	bl	80022d4 <wait_ms>
 8000be8:	9b01      	ldr	r3, [sp, #4]
 8000bea:	6c1b      	ldr	r3, [r3, #64]	; 0x40
 8000bec:	f043 0320 	orr.w	r3, r3, #32
 8000bf0:	9801      	ldr	r0, [sp, #4]
 8000bf2:	4619      	mov	r1, r3
 8000bf4:	f000 fd48 	bl	8001688 <TextLCD_Base::_writeCommand(int)>
 8000bf8:	f000 bc0f 	b.w	800141a <TextLCD_Base::_initCtrl(TextLCD_Base::_LCDDatalength)+0xd0a>
 8000bfc:	9b01      	ldr	r3, [sp, #4]
 8000bfe:	699b      	ldr	r3, [r3, #24]
 8000c00:	4a47      	ldr	r2, [pc, #284]	; (8000d20 <TextLCD_Base::_initCtrl(TextLCD_Base::_LCDDatalength)+0x610>)
 8000c02:	4293      	cmp	r3, r2
 8000c04:	d01a      	beq.n	8000c3c <TextLCD_Base::_initCtrl(TextLCD_Base::_LCDDatalength)+0x52c>
 8000c06:	4a46      	ldr	r2, [pc, #280]	; (8000d20 <TextLCD_Base::_initCtrl(TextLCD_Base::_LCDDatalength)+0x610>)
 8000c08:	4293      	cmp	r3, r2
 8000c0a:	dc09      	bgt.n	8000c20 <TextLCD_Base::_initCtrl(TextLCD_Base::_LCDDatalength)+0x510>
 8000c0c:	f5b3 7f88 	cmp.w	r3, #272	; 0x110
 8000c10:	d00f      	beq.n	8000c32 <TextLCD_Base::_initCtrl(TextLCD_Base::_LCDDatalength)+0x522>
 8000c12:	f5b3 7f8c 	cmp.w	r3, #280	; 0x118
 8000c16:	d00c      	beq.n	8000c32 <TextLCD_Base::_initCtrl(TextLCD_Base::_LCDDatalength)+0x522>
 8000c18:	f5b3 7f84 	cmp.w	r3, #264	; 0x108
 8000c1c:	d009      	beq.n	8000c32 <TextLCD_Base::_initCtrl(TextLCD_Base::_LCDDatalength)+0x522>
 8000c1e:	e011      	b.n	8000c44 <TextLCD_Base::_initCtrl(TextLCD_Base::_LCDDatalength)+0x534>
 8000c20:	4a40      	ldr	r2, [pc, #256]	; (8000d24 <TextLCD_Base::_initCtrl(TextLCD_Base::_LCDDatalength)+0x614>)
 8000c22:	4293      	cmp	r3, r2
 8000c24:	d00a      	beq.n	8000c3c <TextLCD_Base::_initCtrl(TextLCD_Base::_LCDDatalength)+0x52c>
 8000c26:	4a40      	ldr	r2, [pc, #256]	; (8000d28 <TextLCD_Base::_initCtrl(TextLCD_Base::_LCDDatalength)+0x618>)
 8000c28:	4293      	cmp	r3, r2
 8000c2a:	d007      	beq.n	8000c3c <TextLCD_Base::_initCtrl(TextLCD_Base::_LCDDatalength)+0x52c>
 8000c2c:	4a3f      	ldr	r2, [pc, #252]	; (8000d2c <TextLCD_Base::_initCtrl(TextLCD_Base::_LCDDatalength)+0x61c>)
 8000c2e:	4293      	cmp	r3, r2
 8000c30:	d108      	bne.n	8000c44 <TextLCD_Base::_initCtrl(TextLCD_Base::_LCDDatalength)+0x534>
 8000c32:	f89d 2003 	ldrb.w	r2, [sp, #3]
 8000c36:	9b01      	ldr	r3, [sp, #4]
 8000c38:	641a      	str	r2, [r3, #64]	; 0x40
 8000c3a:	e00c      	b.n	8000c56 <TextLCD_Base::_initCtrl(TextLCD_Base::_LCDDatalength)+0x546>
 8000c3c:	483c      	ldr	r0, [pc, #240]	; (8000d30 <TextLCD_Base::_initCtrl(TextLCD_Base::_LCDDatalength)+0x620>)
 8000c3e:	f001 f99d 	bl	8001f7c <error>
 8000c42:	e008      	b.n	8000c56 <TextLCD_Base::_initCtrl(TextLCD_Base::_LCDDatalength)+0x546>
 8000c44:	f89d 3003 	ldrb.w	r3, [sp, #3]
 8000c48:	f043 0308 	orr.w	r3, r3, #8
 8000c4c:	b2db      	uxtb	r3, r3
 8000c4e:	461a      	mov	r2, r3
 8000c50:	9b01      	ldr	r3, [sp, #4]
 8000c52:	641a      	str	r2, [r3, #64]	; 0x40
 8000c54:	bf00      	nop
 8000c56:	9b01      	ldr	r3, [sp, #4]
 8000c58:	6c1b      	ldr	r3, [r3, #64]	; 0x40
 8000c5a:	f043 0324 	orr.w	r3, r3, #36	; 0x24
 8000c5e:	9801      	ldr	r0, [sp, #4]
 8000c60:	4619      	mov	r1, r3
 8000c62:	f000 fd11 	bl	8001688 <TextLCD_Base::_writeCommand(int)>
 8000c66:	9801      	ldr	r0, [sp, #4]
 8000c68:	2104      	movs	r1, #4
 8000c6a:	f000 fd0d 	bl	8001688 <TextLCD_Base::_writeCommand(int)>
 8000c6e:	9801      	ldr	r0, [sp, #4]
 8000c70:	2140      	movs	r1, #64	; 0x40
 8000c72:	f000 fd09 	bl	8001688 <TextLCD_Base::_writeCommand(int)>
 8000c76:	9b01      	ldr	r3, [sp, #4]
 8000c78:	6c1b      	ldr	r3, [r3, #64]	; 0x40
 8000c7a:	f043 0320 	orr.w	r3, r3, #32
 8000c7e:	9801      	ldr	r0, [sp, #4]
 8000c80:	4619      	mov	r1, r3
 8000c82:	f000 fd01 	bl	8001688 <TextLCD_Base::_writeCommand(int)>
 8000c86:	e3c8      	b.n	800141a <TextLCD_Base::_initCtrl(TextLCD_Base::_LCDDatalength)+0xd0a>
 8000c88:	9b01      	ldr	r3, [sp, #4]
 8000c8a:	699b      	ldr	r3, [r3, #24]
 8000c8c:	4a2a      	ldr	r2, [pc, #168]	; (8000d38 <TextLCD_Base::_initCtrl(TextLCD_Base::_LCDDatalength)+0x628>)
 8000c8e:	4293      	cmp	r3, r2
 8000c90:	d02d      	beq.n	8000cee <TextLCD_Base::_initCtrl(TextLCD_Base::_LCDDatalength)+0x5de>
 8000c92:	4a29      	ldr	r2, [pc, #164]	; (8000d38 <TextLCD_Base::_initCtrl(TextLCD_Base::_LCDDatalength)+0x628>)
 8000c94:	4293      	cmp	r3, r2
 8000c96:	dc10      	bgt.n	8000cba <TextLCD_Base::_initCtrl(TextLCD_Base::_LCDDatalength)+0x5aa>
 8000c98:	f5b3 7f88 	cmp.w	r3, #272	; 0x110
 8000c9c:	d01e      	beq.n	8000cdc <TextLCD_Base::_initCtrl(TextLCD_Base::_LCDDatalength)+0x5cc>
 8000c9e:	f5b3 7f88 	cmp.w	r3, #272	; 0x110
 8000ca2:	dc03      	bgt.n	8000cac <TextLCD_Base::_initCtrl(TextLCD_Base::_LCDDatalength)+0x59c>
 8000ca4:	f5b3 7f84 	cmp.w	r3, #264	; 0x108
 8000ca8:	d018      	beq.n	8000cdc <TextLCD_Base::_initCtrl(TextLCD_Base::_LCDDatalength)+0x5cc>
 8000caa:	e04b      	b.n	8000d44 <TextLCD_Base::_initCtrl(TextLCD_Base::_LCDDatalength)+0x634>
 8000cac:	f5b3 7f8c 	cmp.w	r3, #280	; 0x118
 8000cb0:	d014      	beq.n	8000cdc <TextLCD_Base::_initCtrl(TextLCD_Base::_LCDDatalength)+0x5cc>
 8000cb2:	4a1e      	ldr	r2, [pc, #120]	; (8000d2c <TextLCD_Base::_initCtrl(TextLCD_Base::_LCDDatalength)+0x61c>)
 8000cb4:	4293      	cmp	r3, r2
 8000cb6:	d011      	beq.n	8000cdc <TextLCD_Base::_initCtrl(TextLCD_Base::_LCDDatalength)+0x5cc>
 8000cb8:	e044      	b.n	8000d44 <TextLCD_Base::_initCtrl(TextLCD_Base::_LCDDatalength)+0x634>
 8000cba:	4a20      	ldr	r2, [pc, #128]	; (8000d3c <TextLCD_Base::_initCtrl(TextLCD_Base::_LCDDatalength)+0x62c>)
 8000cbc:	4293      	cmp	r3, r2
 8000cbe:	d01f      	beq.n	8000d00 <TextLCD_Base::_initCtrl(TextLCD_Base::_LCDDatalength)+0x5f0>
 8000cc0:	4a1e      	ldr	r2, [pc, #120]	; (8000d3c <TextLCD_Base::_initCtrl(TextLCD_Base::_LCDDatalength)+0x62c>)
 8000cc2:	4293      	cmp	r3, r2
 8000cc4:	dc03      	bgt.n	8000cce <TextLCD_Base::_initCtrl(TextLCD_Base::_LCDDatalength)+0x5be>
 8000cc6:	4a1e      	ldr	r2, [pc, #120]	; (8000d40 <TextLCD_Base::_initCtrl(TextLCD_Base::_LCDDatalength)+0x630>)
 8000cc8:	4293      	cmp	r3, r2
 8000cca:	d010      	beq.n	8000cee <TextLCD_Base::_initCtrl(TextLCD_Base::_LCDDatalength)+0x5de>
 8000ccc:	e03a      	b.n	8000d44 <TextLCD_Base::_initCtrl(TextLCD_Base::_LCDDatalength)+0x634>
 8000cce:	4a15      	ldr	r2, [pc, #84]	; (8000d24 <TextLCD_Base::_initCtrl(TextLCD_Base::_LCDDatalength)+0x614>)
 8000cd0:	4293      	cmp	r3, r2
 8000cd2:	d01e      	beq.n	8000d12 <TextLCD_Base::_initCtrl(TextLCD_Base::_LCDDatalength)+0x602>
 8000cd4:	4a14      	ldr	r2, [pc, #80]	; (8000d28 <TextLCD_Base::_initCtrl(TextLCD_Base::_LCDDatalength)+0x618>)
 8000cd6:	4293      	cmp	r3, r2
 8000cd8:	d01b      	beq.n	8000d12 <TextLCD_Base::_initCtrl(TextLCD_Base::_LCDDatalength)+0x602>
 8000cda:	e033      	b.n	8000d44 <TextLCD_Base::_initCtrl(TextLCD_Base::_LCDDatalength)+0x634>
 8000cdc:	9b01      	ldr	r3, [sp, #4]
 8000cde:	2200      	movs	r2, #0
 8000ce0:	641a      	str	r2, [r3, #64]	; 0x40
 8000ce2:	9b01      	ldr	r3, [sp, #4]
 8000ce4:	2202      	movs	r2, #2
 8000ce6:	645a      	str	r2, [r3, #68]	; 0x44
 8000ce8:	2300      	movs	r3, #0
 8000cea:	9302      	str	r3, [sp, #8]
 8000cec:	e033      	b.n	8000d56 <TextLCD_Base::_initCtrl(TextLCD_Base::_LCDDatalength)+0x646>
 8000cee:	9b01      	ldr	r3, [sp, #4]
 8000cf0:	2200      	movs	r2, #0
 8000cf2:	641a      	str	r2, [r3, #64]	; 0x40
 8000cf4:	9b01      	ldr	r3, [sp, #4]
 8000cf6:	2202      	movs	r2, #2
 8000cf8:	645a      	str	r2, [r3, #68]	; 0x44
 8000cfa:	2300      	movs	r3, #0
 8000cfc:	9302      	str	r3, [sp, #8]
 8000cfe:	e02a      	b.n	8000d56 <TextLCD_Base::_initCtrl(TextLCD_Base::_LCDDatalength)+0x646>
 8000d00:	9b01      	ldr	r3, [sp, #4]
 8000d02:	2208      	movs	r2, #8
 8000d04:	641a      	str	r2, [r3, #64]	; 0x40
 8000d06:	9b01      	ldr	r3, [sp, #4]
 8000d08:	220a      	movs	r2, #10
 8000d0a:	645a      	str	r2, [r3, #68]	; 0x44
 8000d0c:	2301      	movs	r3, #1
 8000d0e:	9302      	str	r3, [sp, #8]
 8000d10:	e021      	b.n	8000d56 <TextLCD_Base::_initCtrl(TextLCD_Base::_LCDDatalength)+0x646>
 8000d12:	4807      	ldr	r0, [pc, #28]	; (8000d30 <TextLCD_Base::_initCtrl(TextLCD_Base::_LCDDatalength)+0x620>)
 8000d14:	f001 f932 	bl	8001f7c <error>
 8000d18:	e01d      	b.n	8000d56 <TextLCD_Base::_initCtrl(TextLCD_Base::_LCDDatalength)+0x646>
 8000d1a:	bf00      	nop
 8000d1c:	c1030004 	.word	0xc1030004
 8000d20:	0001040c 	.word	0x0001040c
 8000d24:	00030418 	.word	0x00030418
 8000d28:	00070310 	.word	0x00070310
 8000d2c:	00030208 	.word	0x00030208
 8000d30:	0800710c 	.word	0x0800710c
 8000d34:	c1030002 	.word	0xc1030002
 8000d38:	0003030c 	.word	0x0003030c
 8000d3c:	00030414 	.word	0x00030414
 8000d40:	00030310 	.word	0x00030310
 8000d44:	9b01      	ldr	r3, [sp, #4]
 8000d46:	2208      	movs	r2, #8
 8000d48:	641a      	str	r2, [r3, #64]	; 0x40
 8000d4a:	9b01      	ldr	r3, [sp, #4]
 8000d4c:	220a      	movs	r2, #10
 8000d4e:	645a      	str	r2, [r3, #68]	; 0x44
 8000d50:	2300      	movs	r3, #0
 8000d52:	9302      	str	r3, [sp, #8]
 8000d54:	bf00      	nop
 8000d56:	9b01      	ldr	r3, [sp, #4]
 8000d58:	6c5b      	ldr	r3, [r3, #68]	; 0x44
 8000d5a:	f043 0320 	orr.w	r3, r3, #32
 8000d5e:	9801      	ldr	r0, [sp, #4]
 8000d60:	4619      	mov	r1, r3
 8000d62:	f000 fc91 	bl	8001688 <TextLCD_Base::_writeCommand(int)>
 8000d66:	9801      	ldr	r0, [sp, #4]
 8000d68:	2106      	movs	r1, #6
 8000d6a:	f000 fc8d 	bl	8001688 <TextLCD_Base::_writeCommand(int)>
 8000d6e:	2005      	movs	r0, #5
 8000d70:	f001 fab0 	bl	80022d4 <wait_ms>
 8000d74:	9b02      	ldr	r3, [sp, #8]
 8000d76:	f043 0308 	orr.w	r3, r3, #8
 8000d7a:	9801      	ldr	r0, [sp, #4]
 8000d7c:	4619      	mov	r1, r3
 8000d7e:	f000 fc83 	bl	8001688 <TextLCD_Base::_writeCommand(int)>
 8000d82:	9801      	ldr	r0, [sp, #4]
 8000d84:	2110      	movs	r1, #16
 8000d86:	f000 fc7f 	bl	8001688 <TextLCD_Base::_writeCommand(int)>
 8000d8a:	9b01      	ldr	r3, [sp, #4]
 8000d8c:	6c1b      	ldr	r3, [r3, #64]	; 0x40
 8000d8e:	f043 0321 	orr.w	r3, r3, #33	; 0x21
 8000d92:	9801      	ldr	r0, [sp, #4]
 8000d94:	4619      	mov	r1, r3
 8000d96:	f000 fc77 	bl	8001688 <TextLCD_Base::_writeCommand(int)>
 8000d9a:	9b01      	ldr	r3, [sp, #4]
 8000d9c:	2228      	movs	r2, #40	; 0x28
 8000d9e:	651a      	str	r2, [r3, #80]	; 0x50
 8000da0:	9b01      	ldr	r3, [sp, #4]
 8000da2:	6d1b      	ldr	r3, [r3, #80]	; 0x50
 8000da4:	f003 030f 	and.w	r3, r3, #15
 8000da8:	f043 0370 	orr.w	r3, r3, #112	; 0x70
 8000dac:	9801      	ldr	r0, [sp, #4]
 8000dae:	4619      	mov	r1, r3
 8000db0:	f000 fc6a 	bl	8001688 <TextLCD_Base::_writeCommand(int)>
 8000db4:	9b01      	ldr	r3, [sp, #4]
 8000db6:	220c      	movs	r2, #12
 8000db8:	64da      	str	r2, [r3, #76]	; 0x4c
 8000dba:	9b01      	ldr	r3, [sp, #4]
 8000dbc:	6cdb      	ldr	r3, [r3, #76]	; 0x4c
 8000dbe:	f043 0250 	orr.w	r2, r3, #80	; 0x50
 8000dc2:	9b01      	ldr	r3, [sp, #4]
 8000dc4:	6d1b      	ldr	r3, [r3, #80]	; 0x50
 8000dc6:	111b      	asrs	r3, r3, #4
 8000dc8:	f003 0303 	and.w	r3, r3, #3
 8000dcc:	4313      	orrs	r3, r2
 8000dce:	9801      	ldr	r0, [sp, #4]
 8000dd0:	4619      	mov	r1, r3
 8000dd2:	f000 fc59 	bl	8001688 <TextLCD_Base::_writeCommand(int)>
 8000dd6:	200a      	movs	r0, #10
 8000dd8:	f001 fa7c 	bl	80022d4 <wait_ms>
 8000ddc:	9801      	ldr	r0, [sp, #4]
 8000dde:	216e      	movs	r1, #110	; 0x6e
 8000de0:	f000 fc52 	bl	8001688 <TextLCD_Base::_writeCommand(int)>
 8000de4:	200a      	movs	r0, #10
 8000de6:	f001 fa75 	bl	80022d4 <wait_ms>
 8000dea:	9b01      	ldr	r3, [sp, #4]
 8000dec:	6c5b      	ldr	r3, [r3, #68]	; 0x44
 8000dee:	f043 0320 	orr.w	r3, r3, #32
 8000df2:	9801      	ldr	r0, [sp, #4]
 8000df4:	4619      	mov	r1, r3
 8000df6:	f000 fc47 	bl	8001688 <TextLCD_Base::_writeCommand(int)>
 8000dfa:	9801      	ldr	r0, [sp, #4]
 8000dfc:	2110      	movs	r1, #16
 8000dfe:	f000 fc43 	bl	8001688 <TextLCD_Base::_writeCommand(int)>
 8000e02:	9b01      	ldr	r3, [sp, #4]
 8000e04:	6c1b      	ldr	r3, [r3, #64]	; 0x40
 8000e06:	f043 0320 	orr.w	r3, r3, #32
 8000e0a:	9801      	ldr	r0, [sp, #4]
 8000e0c:	4619      	mov	r1, r3
 8000e0e:	f000 fc3b 	bl	8001688 <TextLCD_Base::_writeCommand(int)>
 8000e12:	e302      	b.n	800141a <TextLCD_Base::_initCtrl(TextLCD_Base::_LCDDatalength)+0xd0a>
 8000e14:	9b01      	ldr	r3, [sp, #4]
 8000e16:	699b      	ldr	r3, [r3, #24]
 8000e18:	f5b3 7f8c 	cmp.w	r3, #280	; 0x118
 8000e1c:	d003      	beq.n	8000e26 <TextLCD_Base::_initCtrl(TextLCD_Base::_LCDDatalength)+0x716>
 8000e1e:	f5b3 7f03 	cmp.w	r3, #524	; 0x20c
 8000e22:	d004      	beq.n	8000e2e <TextLCD_Base::_initCtrl(TextLCD_Base::_LCDDatalength)+0x71e>
 8000e24:	e007      	b.n	8000e36 <TextLCD_Base::_initCtrl(TextLCD_Base::_LCDDatalength)+0x726>
 8000e26:	9b01      	ldr	r3, [sp, #4]
 8000e28:	2200      	movs	r2, #0
 8000e2a:	641a      	str	r2, [r3, #64]	; 0x40
 8000e2c:	e007      	b.n	8000e3e <TextLCD_Base::_initCtrl(TextLCD_Base::_LCDDatalength)+0x72e>
 8000e2e:	9b01      	ldr	r3, [sp, #4]
 8000e30:	2204      	movs	r2, #4
 8000e32:	641a      	str	r2, [r3, #64]	; 0x40
 8000e34:	e003      	b.n	8000e3e <TextLCD_Base::_initCtrl(TextLCD_Base::_LCDDatalength)+0x72e>
 8000e36:	48b1      	ldr	r0, [pc, #708]	; (80010fc <TextLCD_Base::_initCtrl(TextLCD_Base::_LCDDatalength)+0x9ec>)
 8000e38:	f001 f8a0 	bl	8001f7c <error>
 8000e3c:	bf00      	nop
 8000e3e:	9b01      	ldr	r3, [sp, #4]
 8000e40:	6c1b      	ldr	r3, [r3, #64]	; 0x40
 8000e42:	f043 0321 	orr.w	r3, r3, #33	; 0x21
 8000e46:	9801      	ldr	r0, [sp, #4]
 8000e48:	4619      	mov	r1, r3
 8000e4a:	f000 fc1d 	bl	8001688 <TextLCD_Base::_writeCommand(int)>
 8000e4e:	200a      	movs	r0, #10
 8000e50:	f001 fa40 	bl	80022d4 <wait_ms>
 8000e54:	9801      	ldr	r0, [sp, #4]
 8000e56:	2105      	movs	r1, #5
 8000e58:	f000 fc16 	bl	8001688 <TextLCD_Base::_writeCommand(int)>
 8000e5c:	9801      	ldr	r0, [sp, #4]
 8000e5e:	2102      	movs	r1, #2
 8000e60:	f000 fc12 	bl	8001688 <TextLCD_Base::_writeCommand(int)>
 8000e64:	9801      	ldr	r0, [sp, #4]
 8000e66:	2108      	movs	r1, #8
 8000e68:	f000 fc0e 	bl	8001688 <TextLCD_Base::_writeCommand(int)>
 8000e6c:	9b01      	ldr	r3, [sp, #4]
 8000e6e:	6c1b      	ldr	r3, [r3, #64]	; 0x40
 8000e70:	f043 0320 	orr.w	r3, r3, #32
 8000e74:	9801      	ldr	r0, [sp, #4]
 8000e76:	4619      	mov	r1, r3
 8000e78:	f000 fc06 	bl	8001688 <TextLCD_Base::_writeCommand(int)>
 8000e7c:	e2cd      	b.n	800141a <TextLCD_Base::_initCtrl(TextLCD_Base::_LCDDatalength)+0xd0a>
 8000e7e:	9b01      	ldr	r3, [sp, #4]
 8000e80:	699b      	ldr	r3, [r3, #24]
 8000e82:	f5b3 7f8c 	cmp.w	r3, #280	; 0x118
 8000e86:	d003      	beq.n	8000e90 <TextLCD_Base::_initCtrl(TextLCD_Base::_LCDDatalength)+0x780>
 8000e88:	f5b3 7f03 	cmp.w	r3, #524	; 0x20c
 8000e8c:	d004      	beq.n	8000e98 <TextLCD_Base::_initCtrl(TextLCD_Base::_LCDDatalength)+0x788>
 8000e8e:	e007      	b.n	8000ea0 <TextLCD_Base::_initCtrl(TextLCD_Base::_LCDDatalength)+0x790>
 8000e90:	9b01      	ldr	r3, [sp, #4]
 8000e92:	2200      	movs	r2, #0
 8000e94:	641a      	str	r2, [r3, #64]	; 0x40
 8000e96:	e007      	b.n	8000ea8 <TextLCD_Base::_initCtrl(TextLCD_Base::_LCDDatalength)+0x798>
 8000e98:	9b01      	ldr	r3, [sp, #4]
 8000e9a:	2204      	movs	r2, #4
 8000e9c:	641a      	str	r2, [r3, #64]	; 0x40
 8000e9e:	e003      	b.n	8000ea8 <TextLCD_Base::_initCtrl(TextLCD_Base::_LCDDatalength)+0x798>
 8000ea0:	4896      	ldr	r0, [pc, #600]	; (80010fc <TextLCD_Base::_initCtrl(TextLCD_Base::_LCDDatalength)+0x9ec>)
 8000ea2:	f001 f86b 	bl	8001f7c <error>
 8000ea6:	bf00      	nop
 8000ea8:	9b01      	ldr	r3, [sp, #4]
 8000eaa:	6c1b      	ldr	r3, [r3, #64]	; 0x40
 8000eac:	f043 0321 	orr.w	r3, r3, #33	; 0x21
 8000eb0:	9801      	ldr	r0, [sp, #4]
 8000eb2:	4619      	mov	r1, r3
 8000eb4:	f000 fbe8 	bl	8001688 <TextLCD_Base::_writeCommand(int)>
 8000eb8:	9801      	ldr	r0, [sp, #4]
 8000eba:	2104      	movs	r1, #4
 8000ebc:	f000 fbe4 	bl	8001688 <TextLCD_Base::_writeCommand(int)>
 8000ec0:	9801      	ldr	r0, [sp, #4]
 8000ec2:	2110      	movs	r1, #16
 8000ec4:	f000 fbe0 	bl	8001688 <TextLCD_Base::_writeCommand(int)>
 8000ec8:	9801      	ldr	r0, [sp, #4]
 8000eca:	2142      	movs	r1, #66	; 0x42
 8000ecc:	f000 fbdc 	bl	8001688 <TextLCD_Base::_writeCommand(int)>
 8000ed0:	9b01      	ldr	r3, [sp, #4]
 8000ed2:	2220      	movs	r2, #32
 8000ed4:	651a      	str	r2, [r3, #80]	; 0x50
 8000ed6:	9b01      	ldr	r3, [sp, #4]
 8000ed8:	6d1b      	ldr	r3, [r3, #80]	; 0x50
 8000eda:	f003 033f 	and.w	r3, r3, #63	; 0x3f
 8000ede:	f043 0380 	orr.w	r3, r3, #128	; 0x80
 8000ee2:	9801      	ldr	r0, [sp, #4]
 8000ee4:	4619      	mov	r1, r3
 8000ee6:	f000 fbcf 	bl	8001688 <TextLCD_Base::_writeCommand(int)>
 8000eea:	9b01      	ldr	r3, [sp, #4]
 8000eec:	6d1b      	ldr	r3, [r3, #80]	; 0x50
 8000eee:	b2db      	uxtb	r3, r3
 8000ef0:	f043 03c0 	orr.w	r3, r3, #192	; 0xc0
 8000ef4:	9801      	ldr	r0, [sp, #4]
 8000ef6:	4619      	mov	r1, r3
 8000ef8:	f000 fbc6 	bl	8001688 <TextLCD_Base::_writeCommand(int)>
 8000efc:	200a      	movs	r0, #10
 8000efe:	f001 f9e9 	bl	80022d4 <wait_ms>
 8000f02:	9801      	ldr	r0, [sp, #4]
 8000f04:	2102      	movs	r1, #2
 8000f06:	f000 fbbf 	bl	8001688 <TextLCD_Base::_writeCommand(int)>
 8000f0a:	9801      	ldr	r0, [sp, #4]
 8000f0c:	2108      	movs	r1, #8
 8000f0e:	f000 fbbb 	bl	8001688 <TextLCD_Base::_writeCommand(int)>
 8000f12:	9b01      	ldr	r3, [sp, #4]
 8000f14:	6c1b      	ldr	r3, [r3, #64]	; 0x40
 8000f16:	f043 0320 	orr.w	r3, r3, #32
 8000f1a:	9801      	ldr	r0, [sp, #4]
 8000f1c:	4619      	mov	r1, r3
 8000f1e:	f000 fbb3 	bl	8001688 <TextLCD_Base::_writeCommand(int)>
 8000f22:	e27a      	b.n	800141a <TextLCD_Base::_initCtrl(TextLCD_Base::_LCDDatalength)+0xd0a>
 8000f24:	9b01      	ldr	r3, [sp, #4]
 8000f26:	699b      	ldr	r3, [r3, #24]
 8000f28:	4a75      	ldr	r2, [pc, #468]	; (8001100 <TextLCD_Base::_initCtrl(TextLCD_Base::_LCDDatalength)+0x9f0>)
 8000f2a:	4293      	cmp	r3, r2
 8000f2c:	d018      	beq.n	8000f60 <TextLCD_Base::_initCtrl(TextLCD_Base::_LCDDatalength)+0x850>
 8000f2e:	4a74      	ldr	r2, [pc, #464]	; (8001100 <TextLCD_Base::_initCtrl(TextLCD_Base::_LCDDatalength)+0x9f0>)
 8000f30:	4293      	cmp	r3, r2
 8000f32:	dc06      	bgt.n	8000f42 <TextLCD_Base::_initCtrl(TextLCD_Base::_LCDDatalength)+0x832>
 8000f34:	f5b3 7f8c 	cmp.w	r3, #280	; 0x118
 8000f38:	d00a      	beq.n	8000f50 <TextLCD_Base::_initCtrl(TextLCD_Base::_LCDDatalength)+0x840>
 8000f3a:	f5b3 7f06 	cmp.w	r3, #536	; 0x218
 8000f3e:	d017      	beq.n	8000f70 <TextLCD_Base::_initCtrl(TextLCD_Base::_LCDDatalength)+0x860>
 8000f40:	e01e      	b.n	8000f80 <TextLCD_Base::_initCtrl(TextLCD_Base::_LCDDatalength)+0x870>
 8000f42:	4a70      	ldr	r2, [pc, #448]	; (8001104 <TextLCD_Base::_initCtrl(TextLCD_Base::_LCDDatalength)+0x9f4>)
 8000f44:	4293      	cmp	r3, r2
 8000f46:	d00b      	beq.n	8000f60 <TextLCD_Base::_initCtrl(TextLCD_Base::_LCDDatalength)+0x850>
 8000f48:	4a6f      	ldr	r2, [pc, #444]	; (8001108 <TextLCD_Base::_initCtrl(TextLCD_Base::_LCDDatalength)+0x9f8>)
 8000f4a:	4293      	cmp	r3, r2
 8000f4c:	d008      	beq.n	8000f60 <TextLCD_Base::_initCtrl(TextLCD_Base::_LCDDatalength)+0x850>
 8000f4e:	e017      	b.n	8000f80 <TextLCD_Base::_initCtrl(TextLCD_Base::_LCDDatalength)+0x870>
 8000f50:	9801      	ldr	r0, [sp, #4]
 8000f52:	2122      	movs	r1, #34	; 0x22
 8000f54:	f000 fb98 	bl	8001688 <TextLCD_Base::_writeCommand(int)>
 8000f58:	200a      	movs	r0, #10
 8000f5a:	f001 f9bb 	bl	80022d4 <wait_ms>
 8000f5e:	e013      	b.n	8000f88 <TextLCD_Base::_initCtrl(TextLCD_Base::_LCDDatalength)+0x878>
 8000f60:	9801      	ldr	r0, [sp, #4]
 8000f62:	212e      	movs	r1, #46	; 0x2e
 8000f64:	f000 fb90 	bl	8001688 <TextLCD_Base::_writeCommand(int)>
 8000f68:	200a      	movs	r0, #10
 8000f6a:	f001 f9b3 	bl	80022d4 <wait_ms>
 8000f6e:	e00b      	b.n	8000f88 <TextLCD_Base::_initCtrl(TextLCD_Base::_LCDDatalength)+0x878>
 8000f70:	9801      	ldr	r0, [sp, #4]
 8000f72:	212a      	movs	r1, #42	; 0x2a
 8000f74:	f000 fb88 	bl	8001688 <TextLCD_Base::_writeCommand(int)>
 8000f78:	200a      	movs	r0, #10
 8000f7a:	f001 f9ab 	bl	80022d4 <wait_ms>
 8000f7e:	e003      	b.n	8000f88 <TextLCD_Base::_initCtrl(TextLCD_Base::_LCDDatalength)+0x878>
 8000f80:	485e      	ldr	r0, [pc, #376]	; (80010fc <TextLCD_Base::_initCtrl(TextLCD_Base::_LCDDatalength)+0x9ec>)
 8000f82:	f000 fffb 	bl	8001f7c <error>
 8000f86:	bf00      	nop
 8000f88:	e247      	b.n	800141a <TextLCD_Base::_initCtrl(TextLCD_Base::_LCDDatalength)+0xd0a>
 8000f8a:	9b01      	ldr	r3, [sp, #4]
 8000f8c:	699b      	ldr	r3, [r3, #24]
 8000f8e:	4a5d      	ldr	r2, [pc, #372]	; (8001104 <TextLCD_Base::_initCtrl(TextLCD_Base::_LCDDatalength)+0x9f4>)
 8000f90:	4293      	cmp	r3, r2
 8000f92:	d005      	beq.n	8000fa0 <TextLCD_Base::_initCtrl(TextLCD_Base::_LCDDatalength)+0x890>
 8000f94:	4a5c      	ldr	r2, [pc, #368]	; (8001108 <TextLCD_Base::_initCtrl(TextLCD_Base::_LCDDatalength)+0x9f8>)
 8000f96:	4293      	cmp	r3, r2
 8000f98:	d002      	beq.n	8000fa0 <TextLCD_Base::_initCtrl(TextLCD_Base::_LCDDatalength)+0x890>
 8000f9a:	4a59      	ldr	r2, [pc, #356]	; (8001100 <TextLCD_Base::_initCtrl(TextLCD_Base::_LCDDatalength)+0x9f0>)
 8000f9c:	4293      	cmp	r3, r2
 8000f9e:	d107      	bne.n	8000fb0 <TextLCD_Base::_initCtrl(TextLCD_Base::_LCDDatalength)+0x8a0>
 8000fa0:	9801      	ldr	r0, [sp, #4]
 8000fa2:	212c      	movs	r1, #44	; 0x2c
 8000fa4:	f000 fb70 	bl	8001688 <TextLCD_Base::_writeCommand(int)>
 8000fa8:	200a      	movs	r0, #10
 8000faa:	f001 f993 	bl	80022d4 <wait_ms>
 8000fae:	e003      	b.n	8000fb8 <TextLCD_Base::_initCtrl(TextLCD_Base::_LCDDatalength)+0x8a8>
 8000fb0:	4852      	ldr	r0, [pc, #328]	; (80010fc <TextLCD_Base::_initCtrl(TextLCD_Base::_LCDDatalength)+0x9ec>)
 8000fb2:	f000 ffe3 	bl	8001f7c <error>
 8000fb6:	bf00      	nop
 8000fb8:	e22f      	b.n	800141a <TextLCD_Base::_initCtrl(TextLCD_Base::_LCDDatalength)+0xd0a>
 8000fba:	200a      	movs	r0, #10
 8000fbc:	f001 f98a 	bl	80022d4 <wait_ms>
 8000fc0:	9b01      	ldr	r3, [sp, #4]
 8000fc2:	699b      	ldr	r3, [r3, #24]
 8000fc4:	f5b3 7f8c 	cmp.w	r3, #280	; 0x118
 8000fc8:	d014      	beq.n	8000ff4 <TextLCD_Base::_initCtrl(TextLCD_Base::_LCDDatalength)+0x8e4>
 8000fca:	f5b3 7f8c 	cmp.w	r3, #280	; 0x118
 8000fce:	dc06      	bgt.n	8000fde <TextLCD_Base::_initCtrl(TextLCD_Base::_LCDDatalength)+0x8ce>
 8000fd0:	f5b3 7f84 	cmp.w	r3, #264	; 0x108
 8000fd4:	d00a      	beq.n	8000fec <TextLCD_Base::_initCtrl(TextLCD_Base::_LCDDatalength)+0x8dc>
 8000fd6:	f5b3 7f88 	cmp.w	r3, #272	; 0x110
 8000fda:	d007      	beq.n	8000fec <TextLCD_Base::_initCtrl(TextLCD_Base::_LCDDatalength)+0x8dc>
 8000fdc:	e012      	b.n	8001004 <TextLCD_Base::_initCtrl(TextLCD_Base::_LCDDatalength)+0x8f4>
 8000fde:	f5b3 7f02 	cmp.w	r3, #520	; 0x208
 8000fe2:	d00b      	beq.n	8000ffc <TextLCD_Base::_initCtrl(TextLCD_Base::_LCDDatalength)+0x8ec>
 8000fe4:	f5b3 7f04 	cmp.w	r3, #528	; 0x210
 8000fe8:	d008      	beq.n	8000ffc <TextLCD_Base::_initCtrl(TextLCD_Base::_LCDDatalength)+0x8ec>
 8000fea:	e00b      	b.n	8001004 <TextLCD_Base::_initCtrl(TextLCD_Base::_LCDDatalength)+0x8f4>
 8000fec:	9b01      	ldr	r3, [sp, #4]
 8000fee:	2202      	movs	r2, #2
 8000ff0:	641a      	str	r2, [r3, #64]	; 0x40
 8000ff2:	e00b      	b.n	800100c <TextLCD_Base::_initCtrl(TextLCD_Base::_LCDDatalength)+0x8fc>
 8000ff4:	9b01      	ldr	r3, [sp, #4]
 8000ff6:	2200      	movs	r2, #0
 8000ff8:	641a      	str	r2, [r3, #64]	; 0x40
 8000ffa:	e007      	b.n	800100c <TextLCD_Base::_initCtrl(TextLCD_Base::_LCDDatalength)+0x8fc>
 8000ffc:	9b01      	ldr	r3, [sp, #4]
 8000ffe:	2204      	movs	r2, #4
 8001000:	641a      	str	r2, [r3, #64]	; 0x40
 8001002:	e003      	b.n	800100c <TextLCD_Base::_initCtrl(TextLCD_Base::_LCDDatalength)+0x8fc>
 8001004:	483d      	ldr	r0, [pc, #244]	; (80010fc <TextLCD_Base::_initCtrl(TextLCD_Base::_LCDDatalength)+0x9ec>)
 8001006:	f000 ffb9 	bl	8001f7c <error>
 800100a:	bf00      	nop
 800100c:	9b01      	ldr	r3, [sp, #4]
 800100e:	6c1b      	ldr	r3, [r3, #64]	; 0x40
 8001010:	f043 0321 	orr.w	r3, r3, #33	; 0x21
 8001014:	9801      	ldr	r0, [sp, #4]
 8001016:	4619      	mov	r1, r3
 8001018:	f000 fb36 	bl	8001688 <TextLCD_Base::_writeCommand(int)>
 800101c:	9801      	ldr	r0, [sp, #4]
 800101e:	2104      	movs	r1, #4
 8001020:	f000 fb32 	bl	8001688 <TextLCD_Base::_writeCommand(int)>
 8001024:	9801      	ldr	r0, [sp, #4]
 8001026:	2110      	movs	r1, #16
 8001028:	f000 fb2e 	bl	8001688 <TextLCD_Base::_writeCommand(int)>
 800102c:	9801      	ldr	r0, [sp, #4]
 800102e:	2142      	movs	r1, #66	; 0x42
 8001030:	f000 fb2a 	bl	8001688 <TextLCD_Base::_writeCommand(int)>
 8001034:	9b01      	ldr	r3, [sp, #4]
 8001036:	2220      	movs	r2, #32
 8001038:	651a      	str	r2, [r3, #80]	; 0x50
 800103a:	9b01      	ldr	r3, [sp, #4]
 800103c:	6d1b      	ldr	r3, [r3, #80]	; 0x50
 800103e:	f003 033f 	and.w	r3, r3, #63	; 0x3f
 8001042:	f043 0380 	orr.w	r3, r3, #128	; 0x80
 8001046:	9801      	ldr	r0, [sp, #4]
 8001048:	4619      	mov	r1, r3
 800104a:	f000 fb1d 	bl	8001688 <TextLCD_Base::_writeCommand(int)>
 800104e:	9b01      	ldr	r3, [sp, #4]
 8001050:	6d1b      	ldr	r3, [r3, #80]	; 0x50
 8001052:	b2db      	uxtb	r3, r3
 8001054:	f043 03c0 	orr.w	r3, r3, #192	; 0xc0
 8001058:	9801      	ldr	r0, [sp, #4]
 800105a:	4619      	mov	r1, r3
 800105c:	f000 fb14 	bl	8001688 <TextLCD_Base::_writeCommand(int)>
 8001060:	200a      	movs	r0, #10
 8001062:	f001 f937 	bl	80022d4 <wait_ms>
 8001066:	9801      	ldr	r0, [sp, #4]
 8001068:	2102      	movs	r1, #2
 800106a:	f000 fb0d 	bl	8001688 <TextLCD_Base::_writeCommand(int)>
 800106e:	9801      	ldr	r0, [sp, #4]
 8001070:	2108      	movs	r1, #8
 8001072:	f000 fb09 	bl	8001688 <TextLCD_Base::_writeCommand(int)>
 8001076:	9b01      	ldr	r3, [sp, #4]
 8001078:	6c1b      	ldr	r3, [r3, #64]	; 0x40
 800107a:	f043 0320 	orr.w	r3, r3, #32
 800107e:	9801      	ldr	r0, [sp, #4]
 8001080:	4619      	mov	r1, r3
 8001082:	f000 fb01 	bl	8001688 <TextLCD_Base::_writeCommand(int)>
 8001086:	e1c8      	b.n	800141a <TextLCD_Base::_initCtrl(TextLCD_Base::_LCDDatalength)+0xd0a>
 8001088:	9801      	ldr	r0, [sp, #4]
 800108a:	2117      	movs	r1, #23
 800108c:	f000 fafc 	bl	8001688 <TextLCD_Base::_writeCommand(int)>
 8001090:	200a      	movs	r0, #10
 8001092:	f001 f91f 	bl	80022d4 <wait_ms>
 8001096:	9b01      	ldr	r3, [sp, #4]
 8001098:	699b      	ldr	r3, [r3, #24]
 800109a:	4a1c      	ldr	r2, [pc, #112]	; (800110c <TextLCD_Base::_initCtrl(TextLCD_Base::_LCDDatalength)+0x9fc>)
 800109c:	4293      	cmp	r3, r2
 800109e:	d024      	beq.n	80010ea <TextLCD_Base::_initCtrl(TextLCD_Base::_LCDDatalength)+0x9da>
 80010a0:	4a1a      	ldr	r2, [pc, #104]	; (800110c <TextLCD_Base::_initCtrl(TextLCD_Base::_LCDDatalength)+0x9fc>)
 80010a2:	4293      	cmp	r3, r2
 80010a4:	dc10      	bgt.n	80010c8 <TextLCD_Base::_initCtrl(TextLCD_Base::_LCDDatalength)+0x9b8>
 80010a6:	f5b3 7f88 	cmp.w	r3, #272	; 0x110
 80010aa:	d01e      	beq.n	80010ea <TextLCD_Base::_initCtrl(TextLCD_Base::_LCDDatalength)+0x9da>
 80010ac:	f5b3 7f88 	cmp.w	r3, #272	; 0x110
 80010b0:	dc03      	bgt.n	80010ba <TextLCD_Base::_initCtrl(TextLCD_Base::_LCDDatalength)+0x9aa>
 80010b2:	f5b3 7f84 	cmp.w	r3, #264	; 0x108
 80010b6:	d018      	beq.n	80010ea <TextLCD_Base::_initCtrl(TextLCD_Base::_LCDDatalength)+0x9da>
 80010b8:	e02e      	b.n	8001118 <TextLCD_Base::_initCtrl(TextLCD_Base::_LCDDatalength)+0xa08>
 80010ba:	f5b3 7f8c 	cmp.w	r3, #280	; 0x118
 80010be:	d014      	beq.n	80010ea <TextLCD_Base::_initCtrl(TextLCD_Base::_LCDDatalength)+0x9da>
 80010c0:	4a0f      	ldr	r2, [pc, #60]	; (8001100 <TextLCD_Base::_initCtrl(TextLCD_Base::_LCDDatalength)+0x9f0>)
 80010c2:	4293      	cmp	r3, r2
 80010c4:	d016      	beq.n	80010f4 <TextLCD_Base::_initCtrl(TextLCD_Base::_LCDDatalength)+0x9e4>
 80010c6:	e027      	b.n	8001118 <TextLCD_Base::_initCtrl(TextLCD_Base::_LCDDatalength)+0xa08>
 80010c8:	4a11      	ldr	r2, [pc, #68]	; (8001110 <TextLCD_Base::_initCtrl(TextLCD_Base::_LCDDatalength)+0xa00>)
 80010ca:	4293      	cmp	r3, r2
 80010cc:	d012      	beq.n	80010f4 <TextLCD_Base::_initCtrl(TextLCD_Base::_LCDDatalength)+0x9e4>
 80010ce:	4a10      	ldr	r2, [pc, #64]	; (8001110 <TextLCD_Base::_initCtrl(TextLCD_Base::_LCDDatalength)+0xa00>)
 80010d0:	4293      	cmp	r3, r2
 80010d2:	dc03      	bgt.n	80010dc <TextLCD_Base::_initCtrl(TextLCD_Base::_LCDDatalength)+0x9cc>
 80010d4:	4a0b      	ldr	r2, [pc, #44]	; (8001104 <TextLCD_Base::_initCtrl(TextLCD_Base::_LCDDatalength)+0x9f4>)
 80010d6:	4293      	cmp	r3, r2
 80010d8:	d00c      	beq.n	80010f4 <TextLCD_Base::_initCtrl(TextLCD_Base::_LCDDatalength)+0x9e4>
 80010da:	e01d      	b.n	8001118 <TextLCD_Base::_initCtrl(TextLCD_Base::_LCDDatalength)+0xa08>
 80010dc:	4a0a      	ldr	r2, [pc, #40]	; (8001108 <TextLCD_Base::_initCtrl(TextLCD_Base::_LCDDatalength)+0x9f8>)
 80010de:	4293      	cmp	r3, r2
 80010e0:	d008      	beq.n	80010f4 <TextLCD_Base::_initCtrl(TextLCD_Base::_LCDDatalength)+0x9e4>
 80010e2:	4a0c      	ldr	r2, [pc, #48]	; (8001114 <TextLCD_Base::_initCtrl(TextLCD_Base::_LCDDatalength)+0xa04>)
 80010e4:	4293      	cmp	r3, r2
 80010e6:	d005      	beq.n	80010f4 <TextLCD_Base::_initCtrl(TextLCD_Base::_LCDDatalength)+0x9e4>
 80010e8:	e016      	b.n	8001118 <TextLCD_Base::_initCtrl(TextLCD_Base::_LCDDatalength)+0xa08>
 80010ea:	9801      	ldr	r0, [sp, #4]
 80010ec:	2120      	movs	r1, #32
 80010ee:	f000 facb 	bl	8001688 <TextLCD_Base::_writeCommand(int)>
 80010f2:	e016      	b.n	8001122 <TextLCD_Base::_initCtrl(TextLCD_Base::_LCDDatalength)+0xa12>
 80010f4:	4801      	ldr	r0, [pc, #4]	; (80010fc <TextLCD_Base::_initCtrl(TextLCD_Base::_LCDDatalength)+0x9ec>)
 80010f6:	f000 ff41 	bl	8001f7c <error>
 80010fa:	e012      	b.n	8001122 <TextLCD_Base::_initCtrl(TextLCD_Base::_LCDDatalength)+0xa12>
 80010fc:	0800710c 	.word	0x0800710c
 8001100:	0001040c 	.word	0x0001040c
 8001104:	0003030c 	.word	0x0003030c
 8001108:	0004030c 	.word	0x0004030c
 800110c:	00030208 	.word	0x00030208
 8001110:	00030418 	.word	0x00030418
 8001114:	00070310 	.word	0x00070310
 8001118:	9801      	ldr	r0, [sp, #4]
 800111a:	2128      	movs	r1, #40	; 0x28
 800111c:	f000 fab4 	bl	8001688 <TextLCD_Base::_writeCommand(int)>
 8001120:	bf00      	nop
 8001122:	e17a      	b.n	800141a <TextLCD_Base::_initCtrl(TextLCD_Base::_LCDDatalength)+0xd0a>
 8001124:	9b01      	ldr	r3, [sp, #4]
 8001126:	699b      	ldr	r3, [r3, #24]
 8001128:	f5b3 7f05 	cmp.w	r3, #532	; 0x214
 800112c:	d030      	beq.n	8001190 <TextLCD_Base::_initCtrl(TextLCD_Base::_LCDDatalength)+0xa80>
 800112e:	f5b3 7f05 	cmp.w	r3, #532	; 0x214
 8001132:	dc10      	bgt.n	8001156 <TextLCD_Base::_initCtrl(TextLCD_Base::_LCDDatalength)+0xa46>
 8001134:	f5b3 7f88 	cmp.w	r3, #272	; 0x110
 8001138:	d021      	beq.n	800117e <TextLCD_Base::_initCtrl(TextLCD_Base::_LCDDatalength)+0xa6e>
 800113a:	f5b3 7f88 	cmp.w	r3, #272	; 0x110
 800113e:	dc03      	bgt.n	8001148 <TextLCD_Base::_initCtrl(TextLCD_Base::_LCDDatalength)+0xa38>
 8001140:	f5b3 7f84 	cmp.w	r3, #264	; 0x108
 8001144:	d01b      	beq.n	800117e <TextLCD_Base::_initCtrl(TextLCD_Base::_LCDDatalength)+0xa6e>
 8001146:	e03e      	b.n	80011c6 <TextLCD_Base::_initCtrl(TextLCD_Base::_LCDDatalength)+0xab6>
 8001148:	f5b3 7f02 	cmp.w	r3, #520	; 0x208
 800114c:	d020      	beq.n	8001190 <TextLCD_Base::_initCtrl(TextLCD_Base::_LCDDatalength)+0xa80>
 800114e:	f5b3 7f04 	cmp.w	r3, #528	; 0x210
 8001152:	d01d      	beq.n	8001190 <TextLCD_Base::_initCtrl(TextLCD_Base::_LCDDatalength)+0xa80>
 8001154:	e037      	b.n	80011c6 <TextLCD_Base::_initCtrl(TextLCD_Base::_LCDDatalength)+0xab6>
 8001156:	4aa1      	ldr	r2, [pc, #644]	; (80013dc <TextLCD_Base::_initCtrl(TextLCD_Base::_LCDDatalength)+0xccc>)
 8001158:	4293      	cmp	r3, r2
 800115a:	d022      	beq.n	80011a2 <TextLCD_Base::_initCtrl(TextLCD_Base::_LCDDatalength)+0xa92>
 800115c:	4a9f      	ldr	r2, [pc, #636]	; (80013dc <TextLCD_Base::_initCtrl(TextLCD_Base::_LCDDatalength)+0xccc>)
 800115e:	4293      	cmp	r3, r2
 8001160:	dc06      	bgt.n	8001170 <TextLCD_Base::_initCtrl(TextLCD_Base::_LCDDatalength)+0xa60>
 8001162:	4a9f      	ldr	r2, [pc, #636]	; (80013e0 <TextLCD_Base::_initCtrl(TextLCD_Base::_LCDDatalength)+0xcd0>)
 8001164:	4293      	cmp	r3, r2
 8001166:	d013      	beq.n	8001190 <TextLCD_Base::_initCtrl(TextLCD_Base::_LCDDatalength)+0xa80>
 8001168:	4a9e      	ldr	r2, [pc, #632]	; (80013e4 <TextLCD_Base::_initCtrl(TextLCD_Base::_LCDDatalength)+0xcd4>)
 800116a:	4293      	cmp	r3, r2
 800116c:	d007      	beq.n	800117e <TextLCD_Base::_initCtrl(TextLCD_Base::_LCDDatalength)+0xa6e>
 800116e:	e02a      	b.n	80011c6 <TextLCD_Base::_initCtrl(TextLCD_Base::_LCDDatalength)+0xab6>
 8001170:	4a9d      	ldr	r2, [pc, #628]	; (80013e8 <TextLCD_Base::_initCtrl(TextLCD_Base::_LCDDatalength)+0xcd8>)
 8001172:	4293      	cmp	r3, r2
 8001174:	d015      	beq.n	80011a2 <TextLCD_Base::_initCtrl(TextLCD_Base::_LCDDatalength)+0xa92>
 8001176:	4a9d      	ldr	r2, [pc, #628]	; (80013ec <TextLCD_Base::_initCtrl(TextLCD_Base::_LCDDatalength)+0xcdc>)
 8001178:	4293      	cmp	r3, r2
 800117a:	d01b      	beq.n	80011b4 <TextLCD_Base::_initCtrl(TextLCD_Base::_LCDDatalength)+0xaa4>
 800117c:	e023      	b.n	80011c6 <TextLCD_Base::_initCtrl(TextLCD_Base::_LCDDatalength)+0xab6>
 800117e:	9b01      	ldr	r3, [sp, #4]
 8001180:	2200      	movs	r2, #0
 8001182:	641a      	str	r2, [r3, #64]	; 0x40
 8001184:	9b01      	ldr	r3, [sp, #4]
 8001186:	2202      	movs	r2, #2
 8001188:	645a      	str	r2, [r3, #68]	; 0x44
 800118a:	2300      	movs	r3, #0
 800118c:	9302      	str	r3, [sp, #8]
 800118e:	e01e      	b.n	80011ce <TextLCD_Base::_initCtrl(TextLCD_Base::_LCDDatalength)+0xabe>
 8001190:	9b01      	ldr	r3, [sp, #4]
 8001192:	2208      	movs	r2, #8
 8001194:	641a      	str	r2, [r3, #64]	; 0x40
 8001196:	9b01      	ldr	r3, [sp, #4]
 8001198:	220a      	movs	r2, #10
 800119a:	645a      	str	r2, [r3, #68]	; 0x44
 800119c:	2300      	movs	r3, #0
 800119e:	9302      	str	r3, [sp, #8]
 80011a0:	e015      	b.n	80011ce <TextLCD_Base::_initCtrl(TextLCD_Base::_LCDDatalength)+0xabe>
 80011a2:	9b01      	ldr	r3, [sp, #4]
 80011a4:	2200      	movs	r2, #0
 80011a6:	641a      	str	r2, [r3, #64]	; 0x40
 80011a8:	9b01      	ldr	r3, [sp, #4]
 80011aa:	2202      	movs	r2, #2
 80011ac:	645a      	str	r2, [r3, #68]	; 0x44
 80011ae:	2300      	movs	r3, #0
 80011b0:	9302      	str	r3, [sp, #8]
 80011b2:	e00c      	b.n	80011ce <TextLCD_Base::_initCtrl(TextLCD_Base::_LCDDatalength)+0xabe>
 80011b4:	9b01      	ldr	r3, [sp, #4]
 80011b6:	2208      	movs	r2, #8
 80011b8:	641a      	str	r2, [r3, #64]	; 0x40
 80011ba:	9b01      	ldr	r3, [sp, #4]
 80011bc:	220a      	movs	r2, #10
 80011be:	645a      	str	r2, [r3, #68]	; 0x44
 80011c0:	2301      	movs	r3, #1
 80011c2:	9302      	str	r3, [sp, #8]
 80011c4:	e003      	b.n	80011ce <TextLCD_Base::_initCtrl(TextLCD_Base::_LCDDatalength)+0xabe>
 80011c6:	488a      	ldr	r0, [pc, #552]	; (80013f0 <TextLCD_Base::_initCtrl(TextLCD_Base::_LCDDatalength)+0xce0>)
 80011c8:	f000 fed8 	bl	8001f7c <error>
 80011cc:	bf00      	nop
 80011ce:	9801      	ldr	r0, [sp, #4]
 80011d0:	2100      	movs	r1, #0
 80011d2:	f000 fa59 	bl	8001688 <TextLCD_Base::_writeCommand(int)>
 80011d6:	9b01      	ldr	r3, [sp, #4]
 80011d8:	6c5b      	ldr	r3, [r3, #68]	; 0x44
 80011da:	f043 0320 	orr.w	r3, r3, #32
 80011de:	9801      	ldr	r0, [sp, #4]
 80011e0:	4619      	mov	r1, r3
 80011e2:	f000 fa51 	bl	8001688 <TextLCD_Base::_writeCommand(int)>
 80011e6:	9801      	ldr	r0, [sp, #4]
 80011e8:	2171      	movs	r1, #113	; 0x71
 80011ea:	f000 fa4d 	bl	8001688 <TextLCD_Base::_writeCommand(int)>
 80011ee:	9801      	ldr	r0, [sp, #4]
 80011f0:	2100      	movs	r1, #0
 80011f2:	f000 fa65 	bl	80016c0 <TextLCD_Base::_writeData(int)>
 80011f6:	9801      	ldr	r0, [sp, #4]
 80011f8:	2179      	movs	r1, #121	; 0x79
 80011fa:	f000 fa45 	bl	8001688 <TextLCD_Base::_writeCommand(int)>
 80011fe:	9801      	ldr	r0, [sp, #4]
 8001200:	21d5      	movs	r1, #213	; 0xd5
 8001202:	f000 fa41 	bl	8001688 <TextLCD_Base::_writeCommand(int)>
 8001206:	9801      	ldr	r0, [sp, #4]
 8001208:	2170      	movs	r1, #112	; 0x70
 800120a:	f000 fa3d 	bl	8001688 <TextLCD_Base::_writeCommand(int)>
 800120e:	9801      	ldr	r0, [sp, #4]
 8001210:	2178      	movs	r1, #120	; 0x78
 8001212:	f000 fa39 	bl	8001688 <TextLCD_Base::_writeCommand(int)>
 8001216:	9801      	ldr	r0, [sp, #4]
 8001218:	2105      	movs	r1, #5
 800121a:	f000 fa35 	bl	8001688 <TextLCD_Base::_writeCommand(int)>
 800121e:	9b02      	ldr	r3, [sp, #8]
 8001220:	f043 0308 	orr.w	r3, r3, #8
 8001224:	9801      	ldr	r0, [sp, #4]
 8001226:	4619      	mov	r1, r3
 8001228:	f000 fa2e 	bl	8001688 <TextLCD_Base::_writeCommand(int)>
 800122c:	9801      	ldr	r0, [sp, #4]
 800122e:	2172      	movs	r1, #114	; 0x72
 8001230:	f000 fa2a 	bl	8001688 <TextLCD_Base::_writeCommand(int)>
 8001234:	9801      	ldr	r0, [sp, #4]
 8001236:	2101      	movs	r1, #1
 8001238:	f000 fa42 	bl	80016c0 <TextLCD_Base::_writeData(int)>
 800123c:	9801      	ldr	r0, [sp, #4]
 800123e:	2179      	movs	r1, #121	; 0x79
 8001240:	f000 fa22 	bl	8001688 <TextLCD_Base::_writeCommand(int)>
 8001244:	9801      	ldr	r0, [sp, #4]
 8001246:	21da      	movs	r1, #218	; 0xda
 8001248:	f000 fa1e 	bl	8001688 <TextLCD_Base::_writeCommand(int)>
 800124c:	9801      	ldr	r0, [sp, #4]
 800124e:	2110      	movs	r1, #16
 8001250:	f000 fa1a 	bl	8001688 <TextLCD_Base::_writeCommand(int)>
 8001254:	9801      	ldr	r0, [sp, #4]
 8001256:	21dc      	movs	r1, #220	; 0xdc
 8001258:	f000 fa16 	bl	8001688 <TextLCD_Base::_writeCommand(int)>
 800125c:	9801      	ldr	r0, [sp, #4]
 800125e:	2180      	movs	r1, #128	; 0x80
 8001260:	f000 fa12 	bl	8001688 <TextLCD_Base::_writeCommand(int)>
 8001264:	9b01      	ldr	r3, [sp, #4]
 8001266:	223f      	movs	r2, #63	; 0x3f
 8001268:	651a      	str	r2, [r3, #80]	; 0x50
 800126a:	9801      	ldr	r0, [sp, #4]
 800126c:	2181      	movs	r1, #129	; 0x81
 800126e:	f000 fa0b 	bl	8001688 <TextLCD_Base::_writeCommand(int)>
 8001272:	9b01      	ldr	r3, [sp, #4]
 8001274:	6d1b      	ldr	r3, [r3, #80]	; 0x50
 8001276:	009b      	lsls	r3, r3, #2
 8001278:	f043 0303 	orr.w	r3, r3, #3
 800127c:	9801      	ldr	r0, [sp, #4]
 800127e:	4619      	mov	r1, r3
 8001280:	f000 fa02 	bl	8001688 <TextLCD_Base::_writeCommand(int)>
 8001284:	9801      	ldr	r0, [sp, #4]
 8001286:	21d9      	movs	r1, #217	; 0xd9
 8001288:	f000 f9fe 	bl	8001688 <TextLCD_Base::_writeCommand(int)>
 800128c:	9801      	ldr	r0, [sp, #4]
 800128e:	21f1      	movs	r1, #241	; 0xf1
 8001290:	f000 f9fa 	bl	8001688 <TextLCD_Base::_writeCommand(int)>
 8001294:	9801      	ldr	r0, [sp, #4]
 8001296:	21db      	movs	r1, #219	; 0xdb
 8001298:	f000 f9f6 	bl	8001688 <TextLCD_Base::_writeCommand(int)>
 800129c:	9801      	ldr	r0, [sp, #4]
 800129e:	2130      	movs	r1, #48	; 0x30
 80012a0:	f000 f9f2 	bl	8001688 <TextLCD_Base::_writeCommand(int)>
 80012a4:	200a      	movs	r0, #10
 80012a6:	f001 f815 	bl	80022d4 <wait_ms>
 80012aa:	9801      	ldr	r0, [sp, #4]
 80012ac:	2178      	movs	r1, #120	; 0x78
 80012ae:	f000 f9eb 	bl	8001688 <TextLCD_Base::_writeCommand(int)>
 80012b2:	9b01      	ldr	r3, [sp, #4]
 80012b4:	6c1b      	ldr	r3, [r3, #64]	; 0x40
 80012b6:	f043 0321 	orr.w	r3, r3, #33	; 0x21
 80012ba:	9801      	ldr	r0, [sp, #4]
 80012bc:	4619      	mov	r1, r3
 80012be:	f000 f9e3 	bl	8001688 <TextLCD_Base::_writeCommand(int)>
 80012c2:	9b01      	ldr	r3, [sp, #4]
 80012c4:	6c5b      	ldr	r3, [r3, #68]	; 0x44
 80012c6:	f043 0320 	orr.w	r3, r3, #32
 80012ca:	9801      	ldr	r0, [sp, #4]
 80012cc:	4619      	mov	r1, r3
 80012ce:	f000 f9db 	bl	8001688 <TextLCD_Base::_writeCommand(int)>
 80012d2:	9801      	ldr	r0, [sp, #4]
 80012d4:	2110      	movs	r1, #16
 80012d6:	f000 f9d7 	bl	8001688 <TextLCD_Base::_writeCommand(int)>
 80012da:	9b01      	ldr	r3, [sp, #4]
 80012dc:	6c1b      	ldr	r3, [r3, #64]	; 0x40
 80012de:	f043 0320 	orr.w	r3, r3, #32
 80012e2:	9801      	ldr	r0, [sp, #4]
 80012e4:	4619      	mov	r1, r3
 80012e6:	f000 f9cf 	bl	8001688 <TextLCD_Base::_writeCommand(int)>
 80012ea:	e096      	b.n	800141a <TextLCD_Base::_initCtrl(TextLCD_Base::_LCDDatalength)+0xd0a>
 80012ec:	9b01      	ldr	r3, [sp, #4]
 80012ee:	699b      	ldr	r3, [r3, #24]
 80012f0:	f5b3 7f02 	cmp.w	r3, #520	; 0x208
 80012f4:	d027      	beq.n	8001346 <TextLCD_Base::_initCtrl(TextLCD_Base::_LCDDatalength)+0xc36>
 80012f6:	f5b3 7f02 	cmp.w	r3, #520	; 0x208
 80012fa:	dc10      	bgt.n	800131e <TextLCD_Base::_initCtrl(TextLCD_Base::_LCDDatalength)+0xc0e>
 80012fc:	f5b3 7f88 	cmp.w	r3, #272	; 0x110
 8001300:	d01d      	beq.n	800133e <TextLCD_Base::_initCtrl(TextLCD_Base::_LCDDatalength)+0xc2e>
 8001302:	f5b3 7f88 	cmp.w	r3, #272	; 0x110
 8001306:	dc03      	bgt.n	8001310 <TextLCD_Base::_initCtrl(TextLCD_Base::_LCDDatalength)+0xc00>
 8001308:	f5b3 7f84 	cmp.w	r3, #264	; 0x108
 800130c:	d017      	beq.n	800133e <TextLCD_Base::_initCtrl(TextLCD_Base::_LCDDatalength)+0xc2e>
 800130e:	e01e      	b.n	800134e <TextLCD_Base::_initCtrl(TextLCD_Base::_LCDDatalength)+0xc3e>
 8001310:	f5b3 7f8a 	cmp.w	r3, #276	; 0x114
 8001314:	d013      	beq.n	800133e <TextLCD_Base::_initCtrl(TextLCD_Base::_LCDDatalength)+0xc2e>
 8001316:	f5b3 7f8c 	cmp.w	r3, #280	; 0x118
 800131a:	d010      	beq.n	800133e <TextLCD_Base::_initCtrl(TextLCD_Base::_LCDDatalength)+0xc2e>
 800131c:	e017      	b.n	800134e <TextLCD_Base::_initCtrl(TextLCD_Base::_LCDDatalength)+0xc3e>
 800131e:	f5b3 7f05 	cmp.w	r3, #532	; 0x214
 8001322:	d010      	beq.n	8001346 <TextLCD_Base::_initCtrl(TextLCD_Base::_LCDDatalength)+0xc36>
 8001324:	f5b3 7f05 	cmp.w	r3, #532	; 0x214
 8001328:	dc03      	bgt.n	8001332 <TextLCD_Base::_initCtrl(TextLCD_Base::_LCDDatalength)+0xc22>
 800132a:	f5b3 7f04 	cmp.w	r3, #528	; 0x210
 800132e:	d00a      	beq.n	8001346 <TextLCD_Base::_initCtrl(TextLCD_Base::_LCDDatalength)+0xc36>
 8001330:	e00d      	b.n	800134e <TextLCD_Base::_initCtrl(TextLCD_Base::_LCDDatalength)+0xc3e>
 8001332:	f5b3 7f06 	cmp.w	r3, #536	; 0x218
 8001336:	d006      	beq.n	8001346 <TextLCD_Base::_initCtrl(TextLCD_Base::_LCDDatalength)+0xc36>
 8001338:	4a2a      	ldr	r2, [pc, #168]	; (80013e4 <TextLCD_Base::_initCtrl(TextLCD_Base::_LCDDatalength)+0xcd4>)
 800133a:	4293      	cmp	r3, r2
 800133c:	d107      	bne.n	800134e <TextLCD_Base::_initCtrl(TextLCD_Base::_LCDDatalength)+0xc3e>
 800133e:	9b01      	ldr	r3, [sp, #4]
 8001340:	2200      	movs	r2, #0
 8001342:	641a      	str	r2, [r3, #64]	; 0x40
 8001344:	e007      	b.n	8001356 <TextLCD_Base::_initCtrl(TextLCD_Base::_LCDDatalength)+0xc46>
 8001346:	9b01      	ldr	r3, [sp, #4]
 8001348:	2208      	movs	r2, #8
 800134a:	641a      	str	r2, [r3, #64]	; 0x40
 800134c:	e003      	b.n	8001356 <TextLCD_Base::_initCtrl(TextLCD_Base::_LCDDatalength)+0xc46>
 800134e:	4828      	ldr	r0, [pc, #160]	; (80013f0 <TextLCD_Base::_initCtrl(TextLCD_Base::_LCDDatalength)+0xce0>)
 8001350:	f000 fe14 	bl	8001f7c <error>
 8001354:	bf00      	nop
 8001356:	9b01      	ldr	r3, [sp, #4]
 8001358:	223f      	movs	r2, #63	; 0x3f
 800135a:	651a      	str	r2, [r3, #80]	; 0x50
 800135c:	9b01      	ldr	r3, [sp, #4]
 800135e:	6c1b      	ldr	r3, [r3, #64]	; 0x40
 8001360:	f043 0220 	orr.w	r2, r3, #32
 8001364:	9b01      	ldr	r3, [sp, #4]
 8001366:	6d1b      	ldr	r3, [r3, #80]	; 0x50
 8001368:	43db      	mvns	r3, r3
 800136a:	111b      	asrs	r3, r3, #4
 800136c:	4313      	orrs	r3, r2
 800136e:	9801      	ldr	r0, [sp, #4]
 8001370:	4619      	mov	r1, r3
 8001372:	f000 f989 	bl	8001688 <TextLCD_Base::_writeCommand(int)>
 8001376:	e050      	b.n	800141a <TextLCD_Base::_initCtrl(TextLCD_Base::_LCDDatalength)+0xd0a>
 8001378:	9b01      	ldr	r3, [sp, #4]
 800137a:	699b      	ldr	r3, [r3, #24]
 800137c:	4a19      	ldr	r2, [pc, #100]	; (80013e4 <TextLCD_Base::_initCtrl(TextLCD_Base::_LCDDatalength)+0xcd4>)
 800137e:	4293      	cmp	r3, r2
 8001380:	d024      	beq.n	80013cc <TextLCD_Base::_initCtrl(TextLCD_Base::_LCDDatalength)+0xcbc>
 8001382:	4a18      	ldr	r2, [pc, #96]	; (80013e4 <TextLCD_Base::_initCtrl(TextLCD_Base::_LCDDatalength)+0xcd4>)
 8001384:	4293      	cmp	r3, r2
 8001386:	dc10      	bgt.n	80013aa <TextLCD_Base::_initCtrl(TextLCD_Base::_LCDDatalength)+0xc9a>
 8001388:	f5b3 7f88 	cmp.w	r3, #272	; 0x110
 800138c:	d01e      	beq.n	80013cc <TextLCD_Base::_initCtrl(TextLCD_Base::_LCDDatalength)+0xcbc>
 800138e:	f5b3 7f88 	cmp.w	r3, #272	; 0x110
 8001392:	dc03      	bgt.n	800139c <TextLCD_Base::_initCtrl(TextLCD_Base::_LCDDatalength)+0xc8c>
 8001394:	f5b3 7f84 	cmp.w	r3, #264	; 0x108
 8001398:	d018      	beq.n	80013cc <TextLCD_Base::_initCtrl(TextLCD_Base::_LCDDatalength)+0xcbc>
 800139a:	e031      	b.n	8001400 <TextLCD_Base::_initCtrl(TextLCD_Base::_LCDDatalength)+0xcf0>
 800139c:	f5b3 7f8c 	cmp.w	r3, #280	; 0x118
 80013a0:	d014      	beq.n	80013cc <TextLCD_Base::_initCtrl(TextLCD_Base::_LCDDatalength)+0xcbc>
 80013a2:	4a14      	ldr	r2, [pc, #80]	; (80013f4 <TextLCD_Base::_initCtrl(TextLCD_Base::_LCDDatalength)+0xce4>)
 80013a4:	4293      	cmp	r3, r2
 80013a6:	d015      	beq.n	80013d4 <TextLCD_Base::_initCtrl(TextLCD_Base::_LCDDatalength)+0xcc4>
 80013a8:	e02a      	b.n	8001400 <TextLCD_Base::_initCtrl(TextLCD_Base::_LCDDatalength)+0xcf0>
 80013aa:	4a0f      	ldr	r2, [pc, #60]	; (80013e8 <TextLCD_Base::_initCtrl(TextLCD_Base::_LCDDatalength)+0xcd8>)
 80013ac:	4293      	cmp	r3, r2
 80013ae:	d011      	beq.n	80013d4 <TextLCD_Base::_initCtrl(TextLCD_Base::_LCDDatalength)+0xcc4>
 80013b0:	4a0d      	ldr	r2, [pc, #52]	; (80013e8 <TextLCD_Base::_initCtrl(TextLCD_Base::_LCDDatalength)+0xcd8>)
 80013b2:	4293      	cmp	r3, r2
 80013b4:	dc03      	bgt.n	80013be <TextLCD_Base::_initCtrl(TextLCD_Base::_LCDDatalength)+0xcae>
 80013b6:	4a09      	ldr	r2, [pc, #36]	; (80013dc <TextLCD_Base::_initCtrl(TextLCD_Base::_LCDDatalength)+0xccc>)
 80013b8:	4293      	cmp	r3, r2
 80013ba:	d00b      	beq.n	80013d4 <TextLCD_Base::_initCtrl(TextLCD_Base::_LCDDatalength)+0xcc4>
 80013bc:	e020      	b.n	8001400 <TextLCD_Base::_initCtrl(TextLCD_Base::_LCDDatalength)+0xcf0>
 80013be:	4a0e      	ldr	r2, [pc, #56]	; (80013f8 <TextLCD_Base::_initCtrl(TextLCD_Base::_LCDDatalength)+0xce8>)
 80013c0:	4293      	cmp	r3, r2
 80013c2:	d007      	beq.n	80013d4 <TextLCD_Base::_initCtrl(TextLCD_Base::_LCDDatalength)+0xcc4>
 80013c4:	4a0d      	ldr	r2, [pc, #52]	; (80013fc <TextLCD_Base::_initCtrl(TextLCD_Base::_LCDDatalength)+0xcec>)
 80013c6:	4293      	cmp	r3, r2
 80013c8:	d004      	beq.n	80013d4 <TextLCD_Base::_initCtrl(TextLCD_Base::_LCDDatalength)+0xcc4>
 80013ca:	e019      	b.n	8001400 <TextLCD_Base::_initCtrl(TextLCD_Base::_LCDDatalength)+0xcf0>
 80013cc:	9b01      	ldr	r3, [sp, #4]
 80013ce:	2200      	movs	r2, #0
 80013d0:	641a      	str	r2, [r3, #64]	; 0x40
 80013d2:	e019      	b.n	8001408 <TextLCD_Base::_initCtrl(TextLCD_Base::_LCDDatalength)+0xcf8>
 80013d4:	4806      	ldr	r0, [pc, #24]	; (80013f0 <TextLCD_Base::_initCtrl(TextLCD_Base::_LCDDatalength)+0xce0>)
 80013d6:	f000 fdd1 	bl	8001f7c <error>
 80013da:	e015      	b.n	8001408 <TextLCD_Base::_initCtrl(TextLCD_Base::_LCDDatalength)+0xcf8>
 80013dc:	0003030c 	.word	0x0003030c
 80013e0:	00020110 	.word	0x00020110
 80013e4:	00030208 	.word	0x00030208
 80013e8:	00030310 	.word	0x00030310
 80013ec:	00030414 	.word	0x00030414
 80013f0:	0800710c 	.word	0x0800710c
 80013f4:	0001040c 	.word	0x0001040c
 80013f8:	00030418 	.word	0x00030418
 80013fc:	0004030c 	.word	0x0004030c
 8001400:	9b01      	ldr	r3, [sp, #4]
 8001402:	2208      	movs	r2, #8
 8001404:	641a      	str	r2, [r3, #64]	; 0x40
 8001406:	bf00      	nop
 8001408:	9b01      	ldr	r3, [sp, #4]
 800140a:	6c1b      	ldr	r3, [r3, #64]	; 0x40
 800140c:	f043 0320 	orr.w	r3, r3, #32
 8001410:	9801      	ldr	r0, [sp, #4]
 8001412:	4619      	mov	r1, r3
 8001414:	f000 f938 	bl	8001688 <TextLCD_Base::_writeCommand(int)>
 8001418:	bf00      	nop
 800141a:	9801      	ldr	r0, [sp, #4]
 800141c:	2102      	movs	r1, #2
 800141e:	f000 f933 	bl	8001688 <TextLCD_Base::_writeCommand(int)>
 8001422:	9801      	ldr	r0, [sp, #4]
 8001424:	2106      	movs	r1, #6
 8001426:	f000 f92f 	bl	8001688 <TextLCD_Base::_writeCommand(int)>
 800142a:	9801      	ldr	r0, [sp, #4]
 800142c:	2114      	movs	r1, #20
 800142e:	f000 f92b 	bl	8001688 <TextLCD_Base::_writeCommand(int)>
 8001432:	9801      	ldr	r0, [sp, #4]
 8001434:	2100      	movs	r1, #0
 8001436:	f000 fac3 	bl	80019c0 <TextLCD_Base::setCursor(TextLCD_Base::LCDCursor)>
 800143a:	9801      	ldr	r0, [sp, #4]
 800143c:	2104      	movs	r1, #4
 800143e:	f000 fad9 	bl	80019f4 <TextLCD_Base::setMode(TextLCD_Base::LCDMode)>
 8001442:	b005      	add	sp, #20
 8001444:	f85d fb04 	ldr.w	pc, [sp], #4

08001448 <TextLCD_Base::cls()>:
 8001448:	b500      	push	{lr}
 800144a:	b083      	sub	sp, #12
 800144c:	9001      	str	r0, [sp, #4]
 800144e:	9b01      	ldr	r3, [sp, #4]
 8001450:	699b      	ldr	r3, [r3, #24]
 8001452:	4a1c      	ldr	r2, [pc, #112]	; (80014c4 <TextLCD_Base::cls()+0x7c>)
 8001454:	4293      	cmp	r3, r2
 8001456:	d116      	bne.n	8001486 <TextLCD_Base::cls()+0x3e>
 8001458:	9b01      	ldr	r3, [sp, #4]
 800145a:	2201      	movs	r2, #1
 800145c:	f883 2030 	strb.w	r2, [r3, #48]	; 0x30
 8001460:	9b01      	ldr	r3, [sp, #4]
 8001462:	f893 3028 	ldrb.w	r3, [r3, #40]	; 0x28
 8001466:	9801      	ldr	r0, [sp, #4]
 8001468:	4619      	mov	r1, r3
 800146a:	2200      	movs	r2, #0
 800146c:	f000 fb20 	bl	8001ab0 <TextLCD_Base::_setCursorAndDisplayMode(TextLCD_Base::LCDMode, TextLCD_Base::LCDCursor)>
 8001470:	9801      	ldr	r0, [sp, #4]
 8001472:	2101      	movs	r1, #1
 8001474:	f000 f908 	bl	8001688 <TextLCD_Base::_writeCommand(int)>
 8001478:	200a      	movs	r0, #10
 800147a:	f000 ff2b 	bl	80022d4 <wait_ms>
 800147e:	9b01      	ldr	r3, [sp, #4]
 8001480:	2200      	movs	r2, #0
 8001482:	f883 2030 	strb.w	r2, [r3, #48]	; 0x30
 8001486:	9801      	ldr	r0, [sp, #4]
 8001488:	2101      	movs	r1, #1
 800148a:	f000 f8fd 	bl	8001688 <TextLCD_Base::_writeCommand(int)>
 800148e:	200a      	movs	r0, #10
 8001490:	f000 ff20 	bl	80022d4 <wait_ms>
 8001494:	9b01      	ldr	r3, [sp, #4]
 8001496:	699b      	ldr	r3, [r3, #24]
 8001498:	4a0a      	ldr	r2, [pc, #40]	; (80014c4 <TextLCD_Base::cls()+0x7c>)
 800149a:	4293      	cmp	r3, r2
 800149c:	d10a      	bne.n	80014b4 <TextLCD_Base::cls()+0x6c>
 800149e:	9b01      	ldr	r3, [sp, #4]
 80014a0:	f893 2028 	ldrb.w	r2, [r3, #40]	; 0x28
 80014a4:	9b01      	ldr	r3, [sp, #4]
 80014a6:	f893 303c 	ldrb.w	r3, [r3, #60]	; 0x3c
 80014aa:	9801      	ldr	r0, [sp, #4]
 80014ac:	4611      	mov	r1, r2
 80014ae:	461a      	mov	r2, r3
 80014b0:	f000 fafe 	bl	8001ab0 <TextLCD_Base::_setCursorAndDisplayMode(TextLCD_Base::LCDMode, TextLCD_Base::LCDCursor)>
 80014b4:	9801      	ldr	r0, [sp, #4]
 80014b6:	2100      	movs	r1, #0
 80014b8:	2200      	movs	r2, #0
 80014ba:	f000 fa2d 	bl	8001918 <TextLCD_Base::setAddress(int, int)>
 80014be:	b003      	add	sp, #12
 80014c0:	f85d fb04 	ldr.w	pc, [sp], #4
 80014c4:	00050428 	.word	0x00050428

080014c8 <TextLCD_Base::locate(int, int)>:
 80014c8:	b500      	push	{lr}
 80014ca:	b085      	sub	sp, #20
 80014cc:	9003      	str	r0, [sp, #12]
 80014ce:	9102      	str	r1, [sp, #8]
 80014d0:	9201      	str	r2, [sp, #4]
 80014d2:	9803      	ldr	r0, [sp, #12]
 80014d4:	9902      	ldr	r1, [sp, #8]
 80014d6:	9a01      	ldr	r2, [sp, #4]
 80014d8:	f000 fa1e 	bl	8001918 <TextLCD_Base::setAddress(int, int)>
 80014dc:	b005      	add	sp, #20
 80014de:	f85d fb04 	ldr.w	pc, [sp], #4
 80014e2:	bf00      	nop

080014e4 <TextLCD_Base::_putc(int)>:
 80014e4:	b510      	push	{r4, lr}
 80014e6:	b084      	sub	sp, #16
 80014e8:	9001      	str	r0, [sp, #4]
 80014ea:	9100      	str	r1, [sp, #0]
 80014ec:	9b00      	ldr	r3, [sp, #0]
 80014ee:	2b0a      	cmp	r3, #10
 80014f0:	d118      	bne.n	8001524 <TextLCD_Base::_putc(int)+0x40>
 80014f2:	9b01      	ldr	r3, [sp, #4]
 80014f4:	2200      	movs	r2, #0
 80014f6:	635a      	str	r2, [r3, #52]	; 0x34
 80014f8:	9b01      	ldr	r3, [sp, #4]
 80014fa:	6b9b      	ldr	r3, [r3, #56]	; 0x38
 80014fc:	1c5a      	adds	r2, r3, #1
 80014fe:	9b01      	ldr	r3, [sp, #4]
 8001500:	639a      	str	r2, [r3, #56]	; 0x38
 8001502:	9b01      	ldr	r3, [sp, #4]
 8001504:	6b9c      	ldr	r4, [r3, #56]	; 0x38
 8001506:	9801      	ldr	r0, [sp, #4]
 8001508:	f000 fa52 	bl	80019b0 <TextLCD_Base::rows()>
 800150c:	4603      	mov	r3, r0
 800150e:	429c      	cmp	r4, r3
 8001510:	bfac      	ite	ge
 8001512:	2301      	movge	r3, #1
 8001514:	2300      	movlt	r3, #0
 8001516:	b2db      	uxtb	r3, r3
 8001518:	2b00      	cmp	r3, #0
 800151a:	d031      	beq.n	8001580 <TextLCD_Base::_putc(int)+0x9c>
 800151c:	9b01      	ldr	r3, [sp, #4]
 800151e:	2200      	movs	r2, #0
 8001520:	639a      	str	r2, [r3, #56]	; 0x38
 8001522:	e02d      	b.n	8001580 <TextLCD_Base::_putc(int)+0x9c>
 8001524:	9801      	ldr	r0, [sp, #4]
 8001526:	9900      	ldr	r1, [sp, #0]
 8001528:	f000 f8ca 	bl	80016c0 <TextLCD_Base::_writeData(int)>
 800152c:	9b01      	ldr	r3, [sp, #4]
 800152e:	6b5b      	ldr	r3, [r3, #52]	; 0x34
 8001530:	1c5a      	adds	r2, r3, #1
 8001532:	9b01      	ldr	r3, [sp, #4]
 8001534:	635a      	str	r2, [r3, #52]	; 0x34
 8001536:	9b01      	ldr	r3, [sp, #4]
 8001538:	6b5c      	ldr	r4, [r3, #52]	; 0x34
 800153a:	9801      	ldr	r0, [sp, #4]
 800153c:	f000 fa30 	bl	80019a0 <TextLCD_Base::columns()>
 8001540:	4603      	mov	r3, r0
 8001542:	429c      	cmp	r4, r3
 8001544:	bfac      	ite	ge
 8001546:	2301      	movge	r3, #1
 8001548:	2300      	movlt	r3, #0
 800154a:	b2db      	uxtb	r3, r3
 800154c:	2b00      	cmp	r3, #0
 800154e:	d017      	beq.n	8001580 <TextLCD_Base::_putc(int)+0x9c>
 8001550:	9b01      	ldr	r3, [sp, #4]
 8001552:	2200      	movs	r2, #0
 8001554:	635a      	str	r2, [r3, #52]	; 0x34
 8001556:	9b01      	ldr	r3, [sp, #4]
 8001558:	6b9b      	ldr	r3, [r3, #56]	; 0x38
 800155a:	1c5a      	adds	r2, r3, #1
 800155c:	9b01      	ldr	r3, [sp, #4]
 800155e:	639a      	str	r2, [r3, #56]	; 0x38
 8001560:	9b01      	ldr	r3, [sp, #4]
 8001562:	6b9c      	ldr	r4, [r3, #56]	; 0x38
 8001564:	9801      	ldr	r0, [sp, #4]
 8001566:	f000 fa23 	bl	80019b0 <TextLCD_Base::rows()>
 800156a:	4603      	mov	r3, r0
 800156c:	429c      	cmp	r4, r3
 800156e:	bfac      	ite	ge
 8001570:	2301      	movge	r3, #1
 8001572:	2300      	movlt	r3, #0
 8001574:	b2db      	uxtb	r3, r3
 8001576:	2b00      	cmp	r3, #0
 8001578:	d002      	beq.n	8001580 <TextLCD_Base::_putc(int)+0x9c>
 800157a:	9b01      	ldr	r3, [sp, #4]
 800157c:	2200      	movs	r2, #0
 800157e:	639a      	str	r2, [r3, #56]	; 0x38
 8001580:	9b01      	ldr	r3, [sp, #4]
 8001582:	6b5a      	ldr	r2, [r3, #52]	; 0x34
 8001584:	9b01      	ldr	r3, [sp, #4]
 8001586:	6b9b      	ldr	r3, [r3, #56]	; 0x38
 8001588:	9801      	ldr	r0, [sp, #4]
 800158a:	4611      	mov	r1, r2
 800158c:	461a      	mov	r2, r3
 800158e:	f000 f8b3 	bl	80016f8 <TextLCD_Base::getAddress(int, int)>
 8001592:	9003      	str	r0, [sp, #12]
 8001594:	9b03      	ldr	r3, [sp, #12]
 8001596:	f043 0380 	orr.w	r3, r3, #128	; 0x80
 800159a:	9801      	ldr	r0, [sp, #4]
 800159c:	4619      	mov	r1, r3
 800159e:	f000 f873 	bl	8001688 <TextLCD_Base::_writeCommand(int)>
 80015a2:	9b00      	ldr	r3, [sp, #0]
 80015a4:	4618      	mov	r0, r3
 80015a6:	b004      	add	sp, #16
 80015a8:	bd10      	pop	{r4, pc}
 80015aa:	bf00      	nop

080015ac <TextLCD_Base::_getc()>:
 80015ac:	b082      	sub	sp, #8
 80015ae:	9001      	str	r0, [sp, #4]
 80015b0:	f04f 33ff 	mov.w	r3, #4294967295
 80015b4:	4618      	mov	r0, r3
 80015b6:	b002      	add	sp, #8
 80015b8:	4770      	bx	lr
 80015ba:	bf00      	nop

080015bc <TextLCD_Base::_writeNibble(int)>:
 80015bc:	b500      	push	{lr}
 80015be:	b083      	sub	sp, #12
 80015c0:	9001      	str	r0, [sp, #4]
 80015c2:	9100      	str	r1, [sp, #0]
 80015c4:	9b01      	ldr	r3, [sp, #4]
 80015c6:	681b      	ldr	r3, [r3, #0]
 80015c8:	332c      	adds	r3, #44	; 0x2c
 80015ca:	681b      	ldr	r3, [r3, #0]
 80015cc:	9801      	ldr	r0, [sp, #4]
 80015ce:	2101      	movs	r1, #1
 80015d0:	4798      	blx	r3
 80015d2:	9b01      	ldr	r3, [sp, #4]
 80015d4:	681b      	ldr	r3, [r3, #0]
 80015d6:	3338      	adds	r3, #56	; 0x38
 80015d8:	681b      	ldr	r3, [r3, #0]
 80015da:	9a00      	ldr	r2, [sp, #0]
 80015dc:	f002 020f 	and.w	r2, r2, #15
 80015e0:	9801      	ldr	r0, [sp, #4]
 80015e2:	4611      	mov	r1, r2
 80015e4:	4798      	blx	r3
 80015e6:	2001      	movs	r0, #1
 80015e8:	f000 fe82 	bl	80022f0 <wait_us>
 80015ec:	9b01      	ldr	r3, [sp, #4]
 80015ee:	681b      	ldr	r3, [r3, #0]
 80015f0:	332c      	adds	r3, #44	; 0x2c
 80015f2:	681b      	ldr	r3, [r3, #0]
 80015f4:	9801      	ldr	r0, [sp, #4]
 80015f6:	2100      	movs	r1, #0
 80015f8:	4798      	blx	r3
 80015fa:	2001      	movs	r0, #1
 80015fc:	f000 fe78 	bl	80022f0 <wait_us>
 8001600:	b003      	add	sp, #12
 8001602:	f85d fb04 	ldr.w	pc, [sp], #4
 8001606:	bf00      	nop

08001608 <TextLCD_Base::_writeByte(int)>:
 8001608:	b500      	push	{lr}
 800160a:	b083      	sub	sp, #12
 800160c:	9001      	str	r0, [sp, #4]
 800160e:	9100      	str	r1, [sp, #0]
 8001610:	9b01      	ldr	r3, [sp, #4]
 8001612:	681b      	ldr	r3, [r3, #0]
 8001614:	332c      	adds	r3, #44	; 0x2c
 8001616:	681b      	ldr	r3, [r3, #0]
 8001618:	9801      	ldr	r0, [sp, #4]
 800161a:	2101      	movs	r1, #1
 800161c:	4798      	blx	r3
 800161e:	9b01      	ldr	r3, [sp, #4]
 8001620:	681b      	ldr	r3, [r3, #0]
 8001622:	3338      	adds	r3, #56	; 0x38
 8001624:	681b      	ldr	r3, [r3, #0]
 8001626:	9a00      	ldr	r2, [sp, #0]
 8001628:	1112      	asrs	r2, r2, #4
 800162a:	9801      	ldr	r0, [sp, #4]
 800162c:	4611      	mov	r1, r2
 800162e:	4798      	blx	r3
 8001630:	2001      	movs	r0, #1
 8001632:	f000 fe5d 	bl	80022f0 <wait_us>
 8001636:	9b01      	ldr	r3, [sp, #4]
 8001638:	681b      	ldr	r3, [r3, #0]
 800163a:	332c      	adds	r3, #44	; 0x2c
 800163c:	681b      	ldr	r3, [r3, #0]
 800163e:	9801      	ldr	r0, [sp, #4]
 8001640:	2100      	movs	r1, #0
 8001642:	4798      	blx	r3
 8001644:	2001      	movs	r0, #1
 8001646:	f000 fe53 	bl	80022f0 <wait_us>
 800164a:	9b01      	ldr	r3, [sp, #4]
 800164c:	681b      	ldr	r3, [r3, #0]
 800164e:	332c      	adds	r3, #44	; 0x2c
 8001650:	681b      	ldr	r3, [r3, #0]
 8001652:	9801      	ldr	r0, [sp, #4]
 8001654:	2101      	movs	r1, #1
 8001656:	4798      	blx	r3
 8001658:	9b01      	ldr	r3, [sp, #4]
 800165a:	681b      	ldr	r3, [r3, #0]
 800165c:	3338      	adds	r3, #56	; 0x38
 800165e:	681b      	ldr	r3, [r3, #0]
 8001660:	9801      	ldr	r0, [sp, #4]
 8001662:	9900      	ldr	r1, [sp, #0]
 8001664:	4798      	blx	r3
 8001666:	2001      	movs	r0, #1
 8001668:	f000 fe42 	bl	80022f0 <wait_us>
 800166c:	9b01      	ldr	r3, [sp, #4]
 800166e:	681b      	ldr	r3, [r3, #0]
 8001670:	332c      	adds	r3, #44	; 0x2c
 8001672:	681b      	ldr	r3, [r3, #0]
 8001674:	9801      	ldr	r0, [sp, #4]
 8001676:	2100      	movs	r1, #0
 8001678:	4798      	blx	r3
 800167a:	2001      	movs	r0, #1
 800167c:	f000 fe38 	bl	80022f0 <wait_us>
 8001680:	b003      	add	sp, #12
 8001682:	f85d fb04 	ldr.w	pc, [sp], #4
 8001686:	bf00      	nop

08001688 <TextLCD_Base::_writeCommand(int)>:
 8001688:	b500      	push	{lr}
 800168a:	b083      	sub	sp, #12
 800168c:	9001      	str	r0, [sp, #4]
 800168e:	9100      	str	r1, [sp, #0]
 8001690:	9b01      	ldr	r3, [sp, #4]
 8001692:	681b      	ldr	r3, [r3, #0]
 8001694:	3330      	adds	r3, #48	; 0x30
 8001696:	681b      	ldr	r3, [r3, #0]
 8001698:	9801      	ldr	r0, [sp, #4]
 800169a:	2100      	movs	r1, #0
 800169c:	4798      	blx	r3
 800169e:	2001      	movs	r0, #1
 80016a0:	f000 fe26 	bl	80022f0 <wait_us>
 80016a4:	9b01      	ldr	r3, [sp, #4]
 80016a6:	681b      	ldr	r3, [r3, #0]
 80016a8:	333c      	adds	r3, #60	; 0x3c
 80016aa:	681b      	ldr	r3, [r3, #0]
 80016ac:	9801      	ldr	r0, [sp, #4]
 80016ae:	9900      	ldr	r1, [sp, #0]
 80016b0:	4798      	blx	r3
 80016b2:	2028      	movs	r0, #40	; 0x28
 80016b4:	f000 fe1c 	bl	80022f0 <wait_us>
 80016b8:	b003      	add	sp, #12
 80016ba:	f85d fb04 	ldr.w	pc, [sp], #4
 80016be:	bf00      	nop

080016c0 <TextLCD_Base::_writeData(int)>:
 80016c0:	b500      	push	{lr}
 80016c2:	b083      	sub	sp, #12
 80016c4:	9001      	str	r0, [sp, #4]
 80016c6:	9100      	str	r1, [sp, #0]
 80016c8:	9b01      	ldr	r3, [sp, #4]
 80016ca:	681b      	ldr	r3, [r3, #0]
 80016cc:	3330      	adds	r3, #48	; 0x30
 80016ce:	681b      	ldr	r3, [r3, #0]
 80016d0:	9801      	ldr	r0, [sp, #4]
 80016d2:	2101      	movs	r1, #1
 80016d4:	4798      	blx	r3
 80016d6:	2001      	movs	r0, #1
 80016d8:	f000 fe0a 	bl	80022f0 <wait_us>
 80016dc:	9b01      	ldr	r3, [sp, #4]
 80016de:	681b      	ldr	r3, [r3, #0]
 80016e0:	333c      	adds	r3, #60	; 0x3c
 80016e2:	681b      	ldr	r3, [r3, #0]
 80016e4:	9801      	ldr	r0, [sp, #4]
 80016e6:	9900      	ldr	r1, [sp, #0]
 80016e8:	4798      	blx	r3
 80016ea:	2028      	movs	r0, #40	; 0x28
 80016ec:	f000 fe00 	bl	80022f0 <wait_us>
 80016f0:	b003      	add	sp, #12
 80016f2:	f85d fb04 	ldr.w	pc, [sp], #4
 80016f6:	bf00      	nop

080016f8 <TextLCD_Base::getAddress(int, int)>:
 80016f8:	b500      	push	{lr}
 80016fa:	b085      	sub	sp, #20
 80016fc:	9003      	str	r0, [sp, #12]
 80016fe:	9102      	str	r1, [sp, #8]
 8001700:	9201      	str	r2, [sp, #4]
 8001702:	9b03      	ldr	r3, [sp, #12]
 8001704:	6a5b      	ldr	r3, [r3, #36]	; 0x24
 8001706:	f5b3 3f40 	cmp.w	r3, #196608	; 0x30000
 800170a:	d057      	beq.n	80017bc <TextLCD_Base::getAddress(int, int)+0xc4>
 800170c:	f5b3 3f40 	cmp.w	r3, #196608	; 0x30000
 8001710:	dc08      	bgt.n	8001724 <TextLCD_Base::getAddress(int, int)+0x2c>
 8001712:	f5b3 3f80 	cmp.w	r3, #65536	; 0x10000
 8001716:	d03a      	beq.n	800178e <TextLCD_Base::getAddress(int, int)+0x96>
 8001718:	f5b3 3f00 	cmp.w	r3, #131072	; 0x20000
 800171c:	d03f      	beq.n	800179e <TextLCD_Base::getAddress(int, int)+0xa6>
 800171e:	2b00      	cmp	r3, #0
 8001720:	d013      	beq.n	800174a <TextLCD_Base::getAddress(int, int)+0x52>
 8001722:	e0f3      	b.n	800190c <TextLCD_Base::getAddress(int, int)+0x214>
 8001724:	f5b3 2fa0 	cmp.w	r3, #327680	; 0x50000
 8001728:	d075      	beq.n	8001816 <TextLCD_Base::getAddress(int, int)+0x11e>
 800172a:	f5b3 2fa0 	cmp.w	r3, #327680	; 0x50000
 800172e:	dc03      	bgt.n	8001738 <TextLCD_Base::getAddress(int, int)+0x40>
 8001730:	f5b3 2f80 	cmp.w	r3, #262144	; 0x40000
 8001734:	d05d      	beq.n	80017f2 <TextLCD_Base::getAddress(int, int)+0xfa>
 8001736:	e0e9      	b.n	800190c <TextLCD_Base::getAddress(int, int)+0x214>
 8001738:	f5b3 2fc0 	cmp.w	r3, #393216	; 0x60000
 800173c:	f000 80b1 	beq.w	80018a2 <TextLCD_Base::getAddress(int, int)+0x1aa>
 8001740:	f5b3 2fe0 	cmp.w	r3, #458752	; 0x70000
 8001744:	f000 80d1 	beq.w	80018ea <TextLCD_Base::getAddress(int, int)+0x1f2>
 8001748:	e0e0      	b.n	800190c <TextLCD_Base::getAddress(int, int)+0x214>
 800174a:	9b01      	ldr	r3, [sp, #4]
 800174c:	2b03      	cmp	r3, #3
 800174e:	d81c      	bhi.n	800178a <TextLCD_Base::getAddress(int, int)+0x92>
 8001750:	a201      	add	r2, pc, #4	; (adr r2, 8001758 <TextLCD_Base::getAddress(int, int)+0x60>)
 8001752:	f852 f023 	ldr.w	pc, [r2, r3, lsl #2]
 8001756:	bf00      	nop
 8001758:	08001769 	.word	0x08001769
 800175c:	0800176d 	.word	0x0800176d
 8001760:	08001773 	.word	0x08001773
 8001764:	0800177d 	.word	0x0800177d
 8001768:	9b02      	ldr	r3, [sp, #8]
 800176a:	e0d0      	b.n	800190e <TextLCD_Base::getAddress(int, int)+0x216>
 800176c:	9b02      	ldr	r3, [sp, #8]
 800176e:	3340      	adds	r3, #64	; 0x40
 8001770:	e0cd      	b.n	800190e <TextLCD_Base::getAddress(int, int)+0x216>
 8001772:	9b03      	ldr	r3, [sp, #12]
 8001774:	69da      	ldr	r2, [r3, #28]
 8001776:	9b02      	ldr	r3, [sp, #8]
 8001778:	4413      	add	r3, r2
 800177a:	e0c8      	b.n	800190e <TextLCD_Base::getAddress(int, int)+0x216>
 800177c:	9b03      	ldr	r3, [sp, #12]
 800177e:	69db      	ldr	r3, [r3, #28]
 8001780:	f103 0240 	add.w	r2, r3, #64	; 0x40
 8001784:	9b02      	ldr	r3, [sp, #8]
 8001786:	4413      	add	r3, r2
 8001788:	e0c1      	b.n	800190e <TextLCD_Base::getAddress(int, int)+0x216>
 800178a:	2300      	movs	r3, #0
 800178c:	e0bf      	b.n	800190e <TextLCD_Base::getAddress(int, int)+0x216>
 800178e:	9b01      	ldr	r3, [sp, #4]
 8001790:	2b00      	cmp	r3, #0
 8001792:	d101      	bne.n	8001798 <TextLCD_Base::getAddress(int, int)+0xa0>
 8001794:	9b02      	ldr	r3, [sp, #8]
 8001796:	e0ba      	b.n	800190e <TextLCD_Base::getAddress(int, int)+0x216>
 8001798:	9b02      	ldr	r3, [sp, #8]
 800179a:	3308      	adds	r3, #8
 800179c:	e0b7      	b.n	800190e <TextLCD_Base::getAddress(int, int)+0x216>
 800179e:	9b03      	ldr	r3, [sp, #12]
 80017a0:	69db      	ldr	r3, [r3, #28]
 80017a2:	105a      	asrs	r2, r3, #1
 80017a4:	9b02      	ldr	r3, [sp, #8]
 80017a6:	429a      	cmp	r2, r3
 80017a8:	dd01      	ble.n	80017ae <TextLCD_Base::getAddress(int, int)+0xb6>
 80017aa:	9b02      	ldr	r3, [sp, #8]
 80017ac:	e0af      	b.n	800190e <TextLCD_Base::getAddress(int, int)+0x216>
 80017ae:	9b03      	ldr	r3, [sp, #12]
 80017b0:	69db      	ldr	r3, [r3, #28]
 80017b2:	105b      	asrs	r3, r3, #1
 80017b4:	9a02      	ldr	r2, [sp, #8]
 80017b6:	1ad3      	subs	r3, r2, r3
 80017b8:	3340      	adds	r3, #64	; 0x40
 80017ba:	e0a8      	b.n	800190e <TextLCD_Base::getAddress(int, int)+0x216>
 80017bc:	9b01      	ldr	r3, [sp, #4]
 80017be:	2b03      	cmp	r3, #3
 80017c0:	d815      	bhi.n	80017ee <TextLCD_Base::getAddress(int, int)+0xf6>
 80017c2:	a201      	add	r2, pc, #4	; (adr r2, 80017c8 <TextLCD_Base::getAddress(int, int)+0xd0>)
 80017c4:	f852 f023 	ldr.w	pc, [r2, r3, lsl #2]
 80017c8:	080017d9 	.word	0x080017d9
 80017cc:	080017dd 	.word	0x080017dd
 80017d0:	080017e3 	.word	0x080017e3
 80017d4:	080017e9 	.word	0x080017e9
 80017d8:	9b02      	ldr	r3, [sp, #8]
 80017da:	e098      	b.n	800190e <TextLCD_Base::getAddress(int, int)+0x216>
 80017dc:	9b02      	ldr	r3, [sp, #8]
 80017de:	3320      	adds	r3, #32
 80017e0:	e095      	b.n	800190e <TextLCD_Base::getAddress(int, int)+0x216>
 80017e2:	9b02      	ldr	r3, [sp, #8]
 80017e4:	3340      	adds	r3, #64	; 0x40
 80017e6:	e092      	b.n	800190e <TextLCD_Base::getAddress(int, int)+0x216>
 80017e8:	9b02      	ldr	r3, [sp, #8]
 80017ea:	3360      	adds	r3, #96	; 0x60
 80017ec:	e08f      	b.n	800190e <TextLCD_Base::getAddress(int, int)+0x216>
 80017ee:	2300      	movs	r3, #0
 80017f0:	e08d      	b.n	800190e <TextLCD_Base::getAddress(int, int)+0x216>
 80017f2:	9b01      	ldr	r3, [sp, #4]
 80017f4:	2b01      	cmp	r3, #1
 80017f6:	d006      	beq.n	8001806 <TextLCD_Base::getAddress(int, int)+0x10e>
 80017f8:	2b02      	cmp	r3, #2
 80017fa:	d007      	beq.n	800180c <TextLCD_Base::getAddress(int, int)+0x114>
 80017fc:	2b00      	cmp	r3, #0
 80017fe:	d108      	bne.n	8001812 <TextLCD_Base::getAddress(int, int)+0x11a>
 8001800:	9b02      	ldr	r3, [sp, #8]
 8001802:	3320      	adds	r3, #32
 8001804:	e083      	b.n	800190e <TextLCD_Base::getAddress(int, int)+0x216>
 8001806:	9b02      	ldr	r3, [sp, #8]
 8001808:	3340      	adds	r3, #64	; 0x40
 800180a:	e080      	b.n	800190e <TextLCD_Base::getAddress(int, int)+0x216>
 800180c:	9b02      	ldr	r3, [sp, #8]
 800180e:	3360      	adds	r3, #96	; 0x60
 8001810:	e07d      	b.n	800190e <TextLCD_Base::getAddress(int, int)+0x216>
 8001812:	2300      	movs	r3, #0
 8001814:	e07b      	b.n	800190e <TextLCD_Base::getAddress(int, int)+0x216>
 8001816:	9b01      	ldr	r3, [sp, #4]
 8001818:	2b01      	cmp	r3, #1
 800181a:	dc20      	bgt.n	800185e <TextLCD_Base::getAddress(int, int)+0x166>
 800181c:	9b03      	ldr	r3, [sp, #12]
 800181e:	f893 3030 	ldrb.w	r3, [r3, #48]	; 0x30
 8001822:	2b00      	cmp	r3, #0
 8001824:	d016      	beq.n	8001854 <TextLCD_Base::getAddress(int, int)+0x15c>
 8001826:	9b03      	ldr	r3, [sp, #12]
 8001828:	f893 3028 	ldrb.w	r3, [r3, #40]	; 0x28
 800182c:	9803      	ldr	r0, [sp, #12]
 800182e:	4619      	mov	r1, r3
 8001830:	2200      	movs	r2, #0
 8001832:	f000 f93d 	bl	8001ab0 <TextLCD_Base::_setCursorAndDisplayMode(TextLCD_Base::LCDMode, TextLCD_Base::LCDCursor)>
 8001836:	9b03      	ldr	r3, [sp, #12]
 8001838:	2200      	movs	r2, #0
 800183a:	f883 2030 	strb.w	r2, [r3, #48]	; 0x30
 800183e:	9b03      	ldr	r3, [sp, #12]
 8001840:	f893 2028 	ldrb.w	r2, [r3, #40]	; 0x28
 8001844:	9b03      	ldr	r3, [sp, #12]
 8001846:	f893 303c 	ldrb.w	r3, [r3, #60]	; 0x3c
 800184a:	9803      	ldr	r0, [sp, #12]
 800184c:	4611      	mov	r1, r2
 800184e:	461a      	mov	r2, r3
 8001850:	f000 f92e 	bl	8001ab0 <TextLCD_Base::_setCursorAndDisplayMode(TextLCD_Base::LCDMode, TextLCD_Base::LCDCursor)>
 8001854:	9b01      	ldr	r3, [sp, #4]
 8001856:	019a      	lsls	r2, r3, #6
 8001858:	9b02      	ldr	r3, [sp, #8]
 800185a:	4413      	add	r3, r2
 800185c:	e057      	b.n	800190e <TextLCD_Base::getAddress(int, int)+0x216>
 800185e:	9b03      	ldr	r3, [sp, #12]
 8001860:	f893 3030 	ldrb.w	r3, [r3, #48]	; 0x30
 8001864:	2b01      	cmp	r3, #1
 8001866:	d016      	beq.n	8001896 <TextLCD_Base::getAddress(int, int)+0x19e>
 8001868:	9b03      	ldr	r3, [sp, #12]
 800186a:	f893 3028 	ldrb.w	r3, [r3, #40]	; 0x28
 800186e:	9803      	ldr	r0, [sp, #12]
 8001870:	4619      	mov	r1, r3
 8001872:	2200      	movs	r2, #0
 8001874:	f000 f91c 	bl	8001ab0 <TextLCD_Base::_setCursorAndDisplayMode(TextLCD_Base::LCDMode, TextLCD_Base::LCDCursor)>
 8001878:	9b03      	ldr	r3, [sp, #12]
 800187a:	2201      	movs	r2, #1
 800187c:	f883 2030 	strb.w	r2, [r3, #48]	; 0x30
 8001880:	9b03      	ldr	r3, [sp, #12]
 8001882:	f893 2028 	ldrb.w	r2, [r3, #40]	; 0x28
 8001886:	9b03      	ldr	r3, [sp, #12]
 8001888:	f893 303c 	ldrb.w	r3, [r3, #60]	; 0x3c
 800188c:	9803      	ldr	r0, [sp, #12]
 800188e:	4611      	mov	r1, r2
 8001890:	461a      	mov	r2, r3
 8001892:	f000 f90d 	bl	8001ab0 <TextLCD_Base::_setCursorAndDisplayMode(TextLCD_Base::LCDMode, TextLCD_Base::LCDCursor)>
 8001896:	9b01      	ldr	r3, [sp, #4]
 8001898:	3b02      	subs	r3, #2
 800189a:	019a      	lsls	r2, r3, #6
 800189c:	9b02      	ldr	r3, [sp, #8]
 800189e:	4413      	add	r3, r2
 80018a0:	e035      	b.n	800190e <TextLCD_Base::getAddress(int, int)+0x216>
 80018a2:	9b01      	ldr	r3, [sp, #4]
 80018a4:	2b01      	cmp	r3, #1
 80018a6:	d005      	beq.n	80018b4 <TextLCD_Base::getAddress(int, int)+0x1bc>
 80018a8:	2b02      	cmp	r3, #2
 80018aa:	d006      	beq.n	80018ba <TextLCD_Base::getAddress(int, int)+0x1c2>
 80018ac:	2b00      	cmp	r3, #0
 80018ae:	d11a      	bne.n	80018e6 <TextLCD_Base::getAddress(int, int)+0x1ee>
 80018b0:	9b02      	ldr	r3, [sp, #8]
 80018b2:	e02c      	b.n	800190e <TextLCD_Base::getAddress(int, int)+0x216>
 80018b4:	9b02      	ldr	r3, [sp, #8]
 80018b6:	3340      	adds	r3, #64	; 0x40
 80018b8:	e029      	b.n	800190e <TextLCD_Base::getAddress(int, int)+0x216>
 80018ba:	9b03      	ldr	r3, [sp, #12]
 80018bc:	69db      	ldr	r3, [r3, #28]
 80018be:	105a      	asrs	r2, r3, #1
 80018c0:	9b02      	ldr	r3, [sp, #8]
 80018c2:	429a      	cmp	r2, r3
 80018c4:	dd04      	ble.n	80018d0 <TextLCD_Base::getAddress(int, int)+0x1d8>
 80018c6:	9b03      	ldr	r3, [sp, #12]
 80018c8:	69da      	ldr	r2, [r3, #28]
 80018ca:	9b02      	ldr	r3, [sp, #8]
 80018cc:	4413      	add	r3, r2
 80018ce:	e01e      	b.n	800190e <TextLCD_Base::getAddress(int, int)+0x216>
 80018d0:	9b03      	ldr	r3, [sp, #12]
 80018d2:	69db      	ldr	r3, [r3, #28]
 80018d4:	f103 0240 	add.w	r2, r3, #64	; 0x40
 80018d8:	9b03      	ldr	r3, [sp, #12]
 80018da:	69db      	ldr	r3, [r3, #28]
 80018dc:	105b      	asrs	r3, r3, #1
 80018de:	9902      	ldr	r1, [sp, #8]
 80018e0:	1acb      	subs	r3, r1, r3
 80018e2:	4413      	add	r3, r2
 80018e4:	e013      	b.n	800190e <TextLCD_Base::getAddress(int, int)+0x216>
 80018e6:	2300      	movs	r3, #0
 80018e8:	e011      	b.n	800190e <TextLCD_Base::getAddress(int, int)+0x216>
 80018ea:	9b01      	ldr	r3, [sp, #4]
 80018ec:	2b01      	cmp	r3, #1
 80018ee:	d005      	beq.n	80018fc <TextLCD_Base::getAddress(int, int)+0x204>
 80018f0:	2b02      	cmp	r3, #2
 80018f2:	d006      	beq.n	8001902 <TextLCD_Base::getAddress(int, int)+0x20a>
 80018f4:	2b00      	cmp	r3, #0
 80018f6:	d107      	bne.n	8001908 <TextLCD_Base::getAddress(int, int)+0x210>
 80018f8:	9b02      	ldr	r3, [sp, #8]
 80018fa:	e008      	b.n	800190e <TextLCD_Base::getAddress(int, int)+0x216>
 80018fc:	9b02      	ldr	r3, [sp, #8]
 80018fe:	3310      	adds	r3, #16
 8001900:	e005      	b.n	800190e <TextLCD_Base::getAddress(int, int)+0x216>
 8001902:	9b02      	ldr	r3, [sp, #8]
 8001904:	3320      	adds	r3, #32
 8001906:	e002      	b.n	800190e <TextLCD_Base::getAddress(int, int)+0x216>
 8001908:	2300      	movs	r3, #0
 800190a:	e000      	b.n	800190e <TextLCD_Base::getAddress(int, int)+0x216>
 800190c:	2300      	movs	r3, #0
 800190e:	4618      	mov	r0, r3
 8001910:	b005      	add	sp, #20
 8001912:	f85d fb04 	ldr.w	pc, [sp], #4
 8001916:	bf00      	nop

08001918 <TextLCD_Base::setAddress(int, int)>:
 8001918:	b500      	push	{lr}
 800191a:	b087      	sub	sp, #28
 800191c:	9003      	str	r0, [sp, #12]
 800191e:	9102      	str	r1, [sp, #8]
 8001920:	9201      	str	r2, [sp, #4]
 8001922:	9b02      	ldr	r3, [sp, #8]
 8001924:	2b00      	cmp	r3, #0
 8001926:	da03      	bge.n	8001930 <TextLCD_Base::setAddress(int, int)+0x18>
 8001928:	9b03      	ldr	r3, [sp, #12]
 800192a:	2200      	movs	r2, #0
 800192c:	635a      	str	r2, [r3, #52]	; 0x34
 800192e:	e00d      	b.n	800194c <TextLCD_Base::setAddress(int, int)+0x34>
 8001930:	9b03      	ldr	r3, [sp, #12]
 8001932:	69da      	ldr	r2, [r3, #28]
 8001934:	9b02      	ldr	r3, [sp, #8]
 8001936:	429a      	cmp	r2, r3
 8001938:	dc05      	bgt.n	8001946 <TextLCD_Base::setAddress(int, int)+0x2e>
 800193a:	9b03      	ldr	r3, [sp, #12]
 800193c:	69db      	ldr	r3, [r3, #28]
 800193e:	1e5a      	subs	r2, r3, #1
 8001940:	9b03      	ldr	r3, [sp, #12]
 8001942:	635a      	str	r2, [r3, #52]	; 0x34
 8001944:	e002      	b.n	800194c <TextLCD_Base::setAddress(int, int)+0x34>
 8001946:	9b03      	ldr	r3, [sp, #12]
 8001948:	9a02      	ldr	r2, [sp, #8]
 800194a:	635a      	str	r2, [r3, #52]	; 0x34
 800194c:	9b01      	ldr	r3, [sp, #4]
 800194e:	2b00      	cmp	r3, #0
 8001950:	da03      	bge.n	800195a <TextLCD_Base::setAddress(int, int)+0x42>
 8001952:	9b03      	ldr	r3, [sp, #12]
 8001954:	2200      	movs	r2, #0
 8001956:	639a      	str	r2, [r3, #56]	; 0x38
 8001958:	e00d      	b.n	8001976 <TextLCD_Base::setAddress(int, int)+0x5e>
 800195a:	9b03      	ldr	r3, [sp, #12]
 800195c:	6a1a      	ldr	r2, [r3, #32]
 800195e:	9b01      	ldr	r3, [sp, #4]
 8001960:	429a      	cmp	r2, r3
 8001962:	dc05      	bgt.n	8001970 <TextLCD_Base::setAddress(int, int)+0x58>
 8001964:	9b03      	ldr	r3, [sp, #12]
 8001966:	6a1b      	ldr	r3, [r3, #32]
 8001968:	1e5a      	subs	r2, r3, #1
 800196a:	9b03      	ldr	r3, [sp, #12]
 800196c:	639a      	str	r2, [r3, #56]	; 0x38
 800196e:	e002      	b.n	8001976 <TextLCD_Base::setAddress(int, int)+0x5e>
 8001970:	9b03      	ldr	r3, [sp, #12]
 8001972:	9a01      	ldr	r2, [sp, #4]
 8001974:	639a      	str	r2, [r3, #56]	; 0x38
 8001976:	9b03      	ldr	r3, [sp, #12]
 8001978:	6b5a      	ldr	r2, [r3, #52]	; 0x34
 800197a:	9b03      	ldr	r3, [sp, #12]
 800197c:	6b9b      	ldr	r3, [r3, #56]	; 0x38
 800197e:	9803      	ldr	r0, [sp, #12]
 8001980:	4611      	mov	r1, r2
 8001982:	461a      	mov	r2, r3
 8001984:	f7ff feb8 	bl	80016f8 <TextLCD_Base::getAddress(int, int)>
 8001988:	9005      	str	r0, [sp, #20]
 800198a:	9b05      	ldr	r3, [sp, #20]
 800198c:	f043 0380 	orr.w	r3, r3, #128	; 0x80
 8001990:	9803      	ldr	r0, [sp, #12]
 8001992:	4619      	mov	r1, r3
 8001994:	f7ff fe78 	bl	8001688 <TextLCD_Base::_writeCommand(int)>
 8001998:	b007      	add	sp, #28
 800199a:	f85d fb04 	ldr.w	pc, [sp], #4
 800199e:	bf00      	nop

080019a0 <TextLCD_Base::columns()>:
 80019a0:	b082      	sub	sp, #8
 80019a2:	9001      	str	r0, [sp, #4]
 80019a4:	9b01      	ldr	r3, [sp, #4]
 80019a6:	69db      	ldr	r3, [r3, #28]
 80019a8:	4618      	mov	r0, r3
 80019aa:	b002      	add	sp, #8
 80019ac:	4770      	bx	lr
 80019ae:	bf00      	nop

080019b0 <TextLCD_Base::rows()>:
 80019b0:	b082      	sub	sp, #8
 80019b2:	9001      	str	r0, [sp, #4]
 80019b4:	9b01      	ldr	r3, [sp, #4]
 80019b6:	6a1b      	ldr	r3, [r3, #32]
 80019b8:	4618      	mov	r0, r3
 80019ba:	b002      	add	sp, #8
 80019bc:	4770      	bx	lr
 80019be:	bf00      	nop

080019c0 <TextLCD_Base::setCursor(TextLCD_Base::LCDCursor)>:
 80019c0:	b500      	push	{lr}
 80019c2:	b083      	sub	sp, #12
 80019c4:	9001      	str	r0, [sp, #4]
 80019c6:	460b      	mov	r3, r1
 80019c8:	f88d 3003 	strb.w	r3, [sp, #3]
 80019cc:	9b01      	ldr	r3, [sp, #4]
 80019ce:	f89d 2003 	ldrb.w	r2, [sp, #3]
 80019d2:	f883 203c 	strb.w	r2, [r3, #60]	; 0x3c
 80019d6:	9b01      	ldr	r3, [sp, #4]
 80019d8:	f893 2028 	ldrb.w	r2, [r3, #40]	; 0x28
 80019dc:	9b01      	ldr	r3, [sp, #4]
 80019de:	f893 303c 	ldrb.w	r3, [r3, #60]	; 0x3c
 80019e2:	9801      	ldr	r0, [sp, #4]
 80019e4:	4611      	mov	r1, r2
 80019e6:	461a      	mov	r2, r3
 80019e8:	f000 f862 	bl	8001ab0 <TextLCD_Base::_setCursorAndDisplayMode(TextLCD_Base::LCDMode, TextLCD_Base::LCDCursor)>
 80019ec:	b003      	add	sp, #12
 80019ee:	f85d fb04 	ldr.w	pc, [sp], #4
 80019f2:	bf00      	nop

080019f4 <TextLCD_Base::setMode(TextLCD_Base::LCDMode)>:
 80019f4:	b500      	push	{lr}
 80019f6:	b083      	sub	sp, #12
 80019f8:	9001      	str	r0, [sp, #4]
 80019fa:	460b      	mov	r3, r1
 80019fc:	f88d 3003 	strb.w	r3, [sp, #3]
 8001a00:	9b01      	ldr	r3, [sp, #4]
 8001a02:	f89d 2003 	ldrb.w	r2, [sp, #3]
 8001a06:	f883 2028 	strb.w	r2, [r3, #40]	; 0x28
 8001a0a:	9b01      	ldr	r3, [sp, #4]
 8001a0c:	699b      	ldr	r3, [r3, #24]
 8001a0e:	4a27      	ldr	r2, [pc, #156]	; (8001aac <TextLCD_Base::setMode(TextLCD_Base::LCDMode)+0xb8>)
 8001a10:	4293      	cmp	r3, r2
 8001a12:	d13c      	bne.n	8001a8e <TextLCD_Base::setMode(TextLCD_Base::LCDMode)+0x9a>
 8001a14:	9b01      	ldr	r3, [sp, #4]
 8001a16:	f893 3030 	ldrb.w	r3, [r3, #48]	; 0x30
 8001a1a:	2b00      	cmp	r3, #0
 8001a1c:	d11b      	bne.n	8001a56 <TextLCD_Base::setMode(TextLCD_Base::LCDMode)+0x62>
 8001a1e:	9b01      	ldr	r3, [sp, #4]
 8001a20:	f893 2028 	ldrb.w	r2, [r3, #40]	; 0x28
 8001a24:	9b01      	ldr	r3, [sp, #4]
 8001a26:	f893 303c 	ldrb.w	r3, [r3, #60]	; 0x3c
 8001a2a:	9801      	ldr	r0, [sp, #4]
 8001a2c:	4611      	mov	r1, r2
 8001a2e:	461a      	mov	r2, r3
 8001a30:	f000 f83e 	bl	8001ab0 <TextLCD_Base::_setCursorAndDisplayMode(TextLCD_Base::LCDMode, TextLCD_Base::LCDCursor)>
 8001a34:	9b01      	ldr	r3, [sp, #4]
 8001a36:	2201      	movs	r2, #1
 8001a38:	f883 2030 	strb.w	r2, [r3, #48]	; 0x30
 8001a3c:	9b01      	ldr	r3, [sp, #4]
 8001a3e:	f893 3028 	ldrb.w	r3, [r3, #40]	; 0x28
 8001a42:	9801      	ldr	r0, [sp, #4]
 8001a44:	4619      	mov	r1, r3
 8001a46:	2200      	movs	r2, #0
 8001a48:	f000 f832 	bl	8001ab0 <TextLCD_Base::_setCursorAndDisplayMode(TextLCD_Base::LCDMode, TextLCD_Base::LCDCursor)>
 8001a4c:	9b01      	ldr	r3, [sp, #4]
 8001a4e:	2200      	movs	r2, #0
 8001a50:	f883 2030 	strb.w	r2, [r3, #48]	; 0x30
 8001a54:	e026      	b.n	8001aa4 <TextLCD_Base::setMode(TextLCD_Base::LCDMode)+0xb0>
 8001a56:	9b01      	ldr	r3, [sp, #4]
 8001a58:	2200      	movs	r2, #0
 8001a5a:	f883 2030 	strb.w	r2, [r3, #48]	; 0x30
 8001a5e:	9b01      	ldr	r3, [sp, #4]
 8001a60:	f893 3028 	ldrb.w	r3, [r3, #40]	; 0x28
 8001a64:	9801      	ldr	r0, [sp, #4]
 8001a66:	4619      	mov	r1, r3
 8001a68:	2200      	movs	r2, #0
 8001a6a:	f000 f821 	bl	8001ab0 <TextLCD_Base::_setCursorAndDisplayMode(TextLCD_Base::LCDMode, TextLCD_Base::LCDCursor)>
 8001a6e:	9b01      	ldr	r3, [sp, #4]
 8001a70:	2201      	movs	r2, #1
 8001a72:	f883 2030 	strb.w	r2, [r3, #48]	; 0x30
 8001a76:	9b01      	ldr	r3, [sp, #4]
 8001a78:	f893 2028 	ldrb.w	r2, [r3, #40]	; 0x28
 8001a7c:	9b01      	ldr	r3, [sp, #4]
 8001a7e:	f893 303c 	ldrb.w	r3, [r3, #60]	; 0x3c
 8001a82:	9801      	ldr	r0, [sp, #4]
 8001a84:	4611      	mov	r1, r2
 8001a86:	461a      	mov	r2, r3
 8001a88:	f000 f812 	bl	8001ab0 <TextLCD_Base::_setCursorAndDisplayMode(TextLCD_Base::LCDMode, TextLCD_Base::LCDCursor)>
 8001a8c:	e00a      	b.n	8001aa4 <TextLCD_Base::setMode(TextLCD_Base::LCDMode)+0xb0>
 8001a8e:	9b01      	ldr	r3, [sp, #4]
 8001a90:	f893 2028 	ldrb.w	r2, [r3, #40]	; 0x28
 8001a94:	9b01      	ldr	r3, [sp, #4]
 8001a96:	f893 303c 	ldrb.w	r3, [r3, #60]	; 0x3c
 8001a9a:	9801      	ldr	r0, [sp, #4]
 8001a9c:	4611      	mov	r1, r2
 8001a9e:	461a      	mov	r2, r3
 8001aa0:	f000 f806 	bl	8001ab0 <TextLCD_Base::_setCursorAndDisplayMode(TextLCD_Base::LCDMode, TextLCD_Base::LCDCursor)>
 8001aa4:	b003      	add	sp, #12
 8001aa6:	f85d fb04 	ldr.w	pc, [sp], #4
 8001aaa:	bf00      	nop
 8001aac:	00050428 	.word	0x00050428

08001ab0 <TextLCD_Base::_setCursorAndDisplayMode(TextLCD_Base::LCDMode, TextLCD_Base::LCDCursor)>:
 8001ab0:	b500      	push	{lr}
 8001ab2:	b083      	sub	sp, #12
 8001ab4:	9001      	str	r0, [sp, #4]
 8001ab6:	460b      	mov	r3, r1
 8001ab8:	f88d 3003 	strb.w	r3, [sp, #3]
 8001abc:	4613      	mov	r3, r2
 8001abe:	f88d 3002 	strb.w	r3, [sp, #2]
 8001ac2:	9b01      	ldr	r3, [sp, #4]
 8001ac4:	6adb      	ldr	r3, [r3, #44]	; 0x2c
 8001ac6:	4a12      	ldr	r2, [pc, #72]	; (8001b10 <TextLCD_Base::_setCursorAndDisplayMode(TextLCD_Base::LCDMode, TextLCD_Base::LCDCursor)+0x60>)
 8001ac8:	4293      	cmp	r3, r2
 8001aca:	d10f      	bne.n	8001aec <TextLCD_Base::_setCursorAndDisplayMode(TextLCD_Base::LCDMode, TextLCD_Base::LCDCursor)+0x3c>
 8001acc:	f89d 3003 	ldrb.w	r3, [sp, #3]
 8001ad0:	f043 0308 	orr.w	r3, r3, #8
 8001ad4:	b2db      	uxtb	r3, r3
 8001ad6:	461a      	mov	r2, r3
 8001ad8:	f89d 3002 	ldrb.w	r3, [sp, #2]
 8001adc:	f003 0302 	and.w	r3, r3, #2
 8001ae0:	4313      	orrs	r3, r2
 8001ae2:	9801      	ldr	r0, [sp, #4]
 8001ae4:	4619      	mov	r1, r3
 8001ae6:	f7ff fdcf 	bl	8001688 <TextLCD_Base::_writeCommand(int)>
 8001aea:	e00d      	b.n	8001b08 <TextLCD_Base::_setCursorAndDisplayMode(TextLCD_Base::LCDMode, TextLCD_Base::LCDCursor)+0x58>
 8001aec:	f89d 2003 	ldrb.w	r2, [sp, #3]
 8001af0:	f89d 3002 	ldrb.w	r3, [sp, #2]
 8001af4:	4313      	orrs	r3, r2
 8001af6:	b2db      	uxtb	r3, r3
 8001af8:	f043 0308 	orr.w	r3, r3, #8
 8001afc:	b2db      	uxtb	r3, r3
 8001afe:	9801      	ldr	r0, [sp, #4]
 8001b00:	4619      	mov	r1, r3
 8001b02:	f7ff fdc1 	bl	8001688 <TextLCD_Base::_writeCommand(int)>
 8001b06:	bf00      	nop
 8001b08:	b003      	add	sp, #12
 8001b0a:	f85d fb04 	ldr.w	pc, [sp], #4
 8001b0e:	bf00      	nop
 8001b10:	43000014 	.word	0x43000014

08001b14 <TextLCD_Base::~TextLCD_Base()>:
 8001b14:	b500      	push	{lr}
 8001b16:	b083      	sub	sp, #12
 8001b18:	9001      	str	r0, [sp, #4]
 8001b1a:	9b01      	ldr	r3, [sp, #4]
 8001b1c:	4a09      	ldr	r2, [pc, #36]	; (8001b44 <TextLCD_Base::~TextLCD_Base()+0x30>)
 8001b1e:	601a      	str	r2, [r3, #0]
 8001b20:	9b01      	ldr	r3, [sp, #4]
 8001b22:	4a09      	ldr	r2, [pc, #36]	; (8001b48 <TextLCD_Base::~TextLCD_Base()+0x34>)
 8001b24:	605a      	str	r2, [r3, #4]
 8001b26:	9b01      	ldr	r3, [sp, #4]
 8001b28:	4618      	mov	r0, r3
 8001b2a:	f003 f961 	bl	8004df0 <mbed::Stream::~Stream()>
 8001b2e:	2300      	movs	r3, #0
 8001b30:	2b00      	cmp	r3, #0
 8001b32:	d002      	beq.n	8001b3a <TextLCD_Base::~TextLCD_Base()+0x26>
 8001b34:	9801      	ldr	r0, [sp, #4]
 8001b36:	f003 fa45 	bl	8004fc4 <operator delete(void*)>
 8001b3a:	9b01      	ldr	r3, [sp, #4]
 8001b3c:	4618      	mov	r0, r3
 8001b3e:	b003      	add	sp, #12
 8001b40:	f85d fb04 	ldr.w	pc, [sp], #4
 8001b44:	080073b0 	.word	0x080073b0
 8001b48:	080073f8 	.word	0x080073f8

08001b4c <non-virtual thunk to TextLCD_Base::~TextLCD_Base()>:
 8001b4c:	f1a0 0004 	sub.w	r0, r0, #4
 8001b50:	f7ff bfe0 	b.w	8001b14 <TextLCD_Base::~TextLCD_Base()>

08001b54 <TextLCD_Base::~TextLCD_Base()>:
 8001b54:	b500      	push	{lr}
 8001b56:	b083      	sub	sp, #12
 8001b58:	9001      	str	r0, [sp, #4]
 8001b5a:	9801      	ldr	r0, [sp, #4]
 8001b5c:	f7ff ffda 	bl	8001b14 <TextLCD_Base::~TextLCD_Base()>
 8001b60:	9801      	ldr	r0, [sp, #4]
 8001b62:	f003 fa2f 	bl	8004fc4 <operator delete(void*)>
 8001b66:	9b01      	ldr	r3, [sp, #4]
 8001b68:	4618      	mov	r0, r3
 8001b6a:	b003      	add	sp, #12
 8001b6c:	f85d fb04 	ldr.w	pc, [sp], #4

08001b70 <non-virtual thunk to TextLCD_Base::~TextLCD_Base()>:
 8001b70:	f1a0 0004 	sub.w	r0, r0, #4
 8001b74:	e7ee      	b.n	8001b54 <TextLCD_Base::~TextLCD_Base()>
 8001b76:	bf00      	nop

08001b78 <TextLCD::TextLCD(PinName, PinName, PinName, PinName, PinName, PinName, TextLCD_Base::LCDType, PinName, PinName, TextLCD_Base::LCDCtrl)>:
 8001b78:	b510      	push	{r4, lr}
 8001b7a:	b090      	sub	sp, #64	; 0x40
 8001b7c:	900f      	str	r0, [sp, #60]	; 0x3c
 8001b7e:	4608      	mov	r0, r1
 8001b80:	4611      	mov	r1, r2
 8001b82:	461a      	mov	r2, r3
 8001b84:	4603      	mov	r3, r0
 8001b86:	f88d 303b 	strb.w	r3, [sp, #59]	; 0x3b
 8001b8a:	460b      	mov	r3, r1
 8001b8c:	f88d 303a 	strb.w	r3, [sp, #58]	; 0x3a
 8001b90:	4613      	mov	r3, r2
 8001b92:	f88d 3039 	strb.w	r3, [sp, #57]	; 0x39
 8001b96:	9b0f      	ldr	r3, [sp, #60]	; 0x3c
 8001b98:	4618      	mov	r0, r3
 8001b9a:	9915      	ldr	r1, [sp, #84]	; 0x54
 8001b9c:	9a18      	ldr	r2, [sp, #96]	; 0x60
 8001b9e:	f7fe fd5f 	bl	8000660 <TextLCD_Base::TextLCD_Base(TextLCD_Base::LCDType, TextLCD_Base::LCDCtrl)>
 8001ba2:	9b0f      	ldr	r3, [sp, #60]	; 0x3c
 8001ba4:	4a47      	ldr	r2, [pc, #284]	; (8001cc4 <TextLCD::TextLCD(PinName, PinName, PinName, PinName, PinName, PinName, TextLCD_Base::LCDType, PinName, PinName, TextLCD_Base::LCDCtrl)+0x14c>)
 8001ba6:	601a      	str	r2, [r3, #0]
 8001ba8:	9b0f      	ldr	r3, [sp, #60]	; 0x3c
 8001baa:	4a47      	ldr	r2, [pc, #284]	; (8001cc8 <TextLCD::TextLCD(PinName, PinName, PinName, PinName, PinName, PinName, TextLCD_Base::LCDType, PinName, PinName, TextLCD_Base::LCDCtrl)+0x150>)
 8001bac:	605a      	str	r2, [r3, #4]
 8001bae:	9b0f      	ldr	r3, [sp, #60]	; 0x3c
 8001bb0:	f103 0254 	add.w	r2, r3, #84	; 0x54
 8001bb4:	f99d 303b 	ldrsb.w	r3, [sp, #59]	; 0x3b
 8001bb8:	4610      	mov	r0, r2
 8001bba:	4619      	mov	r1, r3
 8001bbc:	f7fe fb74 	bl	80002a8 <mbed::DigitalOut::DigitalOut(PinName)>
 8001bc0:	9b0f      	ldr	r3, [sp, #60]	; 0x3c
 8001bc2:	f103 0268 	add.w	r2, r3, #104	; 0x68
 8001bc6:	f99d 303a 	ldrsb.w	r3, [sp, #58]	; 0x3a
 8001bca:	4610      	mov	r0, r2
 8001bcc:	4619      	mov	r1, r3
 8001bce:	f7fe fb6b 	bl	80002a8 <mbed::DigitalOut::DigitalOut(PinName)>
 8001bd2:	9b0f      	ldr	r3, [sp, #60]	; 0x3c
 8001bd4:	f103 007c 	add.w	r0, r3, #124	; 0x7c
 8001bd8:	f99d 1039 	ldrsb.w	r1, [sp, #57]	; 0x39
 8001bdc:	f99d 2048 	ldrsb.w	r2, [sp, #72]	; 0x48
 8001be0:	f99d 404c 	ldrsb.w	r4, [sp, #76]	; 0x4c
 8001be4:	f99d 3050 	ldrsb.w	r3, [sp, #80]	; 0x50
 8001be8:	9300      	str	r3, [sp, #0]
 8001bea:	f04f 33ff 	mov.w	r3, #4294967295
 8001bee:	9301      	str	r3, [sp, #4]
 8001bf0:	f04f 33ff 	mov.w	r3, #4294967295
 8001bf4:	9302      	str	r3, [sp, #8]
 8001bf6:	f04f 33ff 	mov.w	r3, #4294967295
 8001bfa:	9303      	str	r3, [sp, #12]
 8001bfc:	f04f 33ff 	mov.w	r3, #4294967295
 8001c00:	9304      	str	r3, [sp, #16]
 8001c02:	f04f 33ff 	mov.w	r3, #4294967295
 8001c06:	9305      	str	r3, [sp, #20]
 8001c08:	f04f 33ff 	mov.w	r3, #4294967295
 8001c0c:	9306      	str	r3, [sp, #24]
 8001c0e:	f04f 33ff 	mov.w	r3, #4294967295
 8001c12:	9307      	str	r3, [sp, #28]
 8001c14:	f04f 33ff 	mov.w	r3, #4294967295
 8001c18:	9308      	str	r3, [sp, #32]
 8001c1a:	f04f 33ff 	mov.w	r3, #4294967295
 8001c1e:	9309      	str	r3, [sp, #36]	; 0x24
 8001c20:	f04f 33ff 	mov.w	r3, #4294967295
 8001c24:	930a      	str	r3, [sp, #40]	; 0x28
 8001c26:	f04f 33ff 	mov.w	r3, #4294967295
 8001c2a:	930b      	str	r3, [sp, #44]	; 0x2c
 8001c2c:	f04f 33ff 	mov.w	r3, #4294967295
 8001c30:	930c      	str	r3, [sp, #48]	; 0x30
 8001c32:	4623      	mov	r3, r4
 8001c34:	f002 fa6e 	bl	8004114 <mbed::BusOut::BusOut(PinName, PinName, PinName, PinName, PinName, PinName, PinName, PinName, PinName, PinName, PinName, PinName, PinName, PinName, PinName, PinName)>
 8001c38:	f99d 3058 	ldrsb.w	r3, [sp, #88]	; 0x58
 8001c3c:	f1b3 3fff 	cmp.w	r3, #4294967295
 8001c40:	d014      	beq.n	8001c6c <TextLCD::TextLCD(PinName, PinName, PinName, PinName, PinName, PinName, TextLCD_Base::LCDType, PinName, PinName, TextLCD_Base::LCDCtrl)+0xf4>
 8001c42:	2014      	movs	r0, #20
 8001c44:	f003 f9ad 	bl	8004fa2 <operator new(unsigned int)>
 8001c48:	4604      	mov	r4, r0
 8001c4a:	f99d 3058 	ldrsb.w	r3, [sp, #88]	; 0x58
 8001c4e:	4620      	mov	r0, r4
 8001c50:	4619      	mov	r1, r3
 8001c52:	f7fe fb29 	bl	80002a8 <mbed::DigitalOut::DigitalOut(PinName)>
 8001c56:	9b0f      	ldr	r3, [sp, #60]	; 0x3c
 8001c58:	f8c3 40c4 	str.w	r4, [r3, #196]	; 0xc4
 8001c5c:	9b0f      	ldr	r3, [sp, #60]	; 0x3c
 8001c5e:	f8d3 30c4 	ldr.w	r3, [r3, #196]	; 0xc4
 8001c62:	4618      	mov	r0, r3
 8001c64:	2100      	movs	r1, #0
 8001c66:	f7fe fce1 	bl	800062c <mbed::DigitalOut::write(int)>
 8001c6a:	e003      	b.n	8001c74 <TextLCD::TextLCD(PinName, PinName, PinName, PinName, PinName, PinName, TextLCD_Base::LCDType, PinName, PinName, TextLCD_Base::LCDCtrl)+0xfc>
 8001c6c:	9b0f      	ldr	r3, [sp, #60]	; 0x3c
 8001c6e:	2200      	movs	r2, #0
 8001c70:	f8c3 20c4 	str.w	r2, [r3, #196]	; 0xc4
 8001c74:	f99d 305c 	ldrsb.w	r3, [sp, #92]	; 0x5c
 8001c78:	f1b3 3fff 	cmp.w	r3, #4294967295
 8001c7c:	d014      	beq.n	8001ca8 <TextLCD::TextLCD(PinName, PinName, PinName, PinName, PinName, PinName, TextLCD_Base::LCDType, PinName, PinName, TextLCD_Base::LCDCtrl)+0x130>
 8001c7e:	2014      	movs	r0, #20
 8001c80:	f003 f98f 	bl	8004fa2 <operator new(unsigned int)>
 8001c84:	4604      	mov	r4, r0
 8001c86:	f99d 305c 	ldrsb.w	r3, [sp, #92]	; 0x5c
 8001c8a:	4620      	mov	r0, r4
 8001c8c:	4619      	mov	r1, r3
 8001c8e:	f7fe fb0b 	bl	80002a8 <mbed::DigitalOut::DigitalOut(PinName)>
 8001c92:	9b0f      	ldr	r3, [sp, #60]	; 0x3c
 8001c94:	f8c3 40c8 	str.w	r4, [r3, #200]	; 0xc8
 8001c98:	9b0f      	ldr	r3, [sp, #60]	; 0x3c
 8001c9a:	f8d3 30c8 	ldr.w	r3, [r3, #200]	; 0xc8
 8001c9e:	4618      	mov	r0, r3
 8001ca0:	2100      	movs	r1, #0
 8001ca2:	f7fe fcc3 	bl	800062c <mbed::DigitalOut::write(int)>
 8001ca6:	e003      	b.n	8001cb0 <TextLCD::TextLCD(PinName, PinName, PinName, PinName, PinName, PinName, TextLCD_Base::LCDType, PinName, PinName, TextLCD_Base::LCDCtrl)+0x138>
 8001ca8:	9b0f      	ldr	r3, [sp, #60]	; 0x3c
 8001caa:	2200      	movs	r2, #0
 8001cac:	f8c3 20c8 	str.w	r2, [r3, #200]	; 0xc8
 8001cb0:	9b0f      	ldr	r3, [sp, #60]	; 0x3c
 8001cb2:	4618      	mov	r0, r3
 8001cb4:	2100      	movs	r1, #0
 8001cb6:	f7fe fd03 	bl	80006c0 <TextLCD_Base::_init(TextLCD_Base::_LCDDatalength)>
 8001cba:	9b0f      	ldr	r3, [sp, #60]	; 0x3c
 8001cbc:	4618      	mov	r0, r3
 8001cbe:	b010      	add	sp, #64	; 0x40
 8001cc0:	bd10      	pop	{r4, pc}
 8001cc2:	bf00      	nop
 8001cc4:	08007358 	.word	0x08007358
 8001cc8:	080073a0 	.word	0x080073a0

08001ccc <TextLCD::~TextLCD()>:
 8001ccc:	b500      	push	{lr}
 8001cce:	b083      	sub	sp, #12
 8001cd0:	9001      	str	r0, [sp, #4]
 8001cd2:	9b01      	ldr	r3, [sp, #4]
 8001cd4:	4a17      	ldr	r2, [pc, #92]	; (8001d34 <TextLCD::~TextLCD()+0x68>)
 8001cd6:	601a      	str	r2, [r3, #0]
 8001cd8:	9b01      	ldr	r3, [sp, #4]
 8001cda:	4a17      	ldr	r2, [pc, #92]	; (8001d38 <TextLCD::~TextLCD()+0x6c>)
 8001cdc:	605a      	str	r2, [r3, #4]
 8001cde:	9b01      	ldr	r3, [sp, #4]
 8001ce0:	f8d3 30c4 	ldr.w	r3, [r3, #196]	; 0xc4
 8001ce4:	2b00      	cmp	r3, #0
 8001ce6:	d005      	beq.n	8001cf4 <TextLCD::~TextLCD()+0x28>
 8001ce8:	9b01      	ldr	r3, [sp, #4]
 8001cea:	f8d3 30c4 	ldr.w	r3, [r3, #196]	; 0xc4
 8001cee:	4618      	mov	r0, r3
 8001cf0:	f003 f968 	bl	8004fc4 <operator delete(void*)>
 8001cf4:	9b01      	ldr	r3, [sp, #4]
 8001cf6:	f8d3 30c8 	ldr.w	r3, [r3, #200]	; 0xc8
 8001cfa:	2b00      	cmp	r3, #0
 8001cfc:	d005      	beq.n	8001d0a <TextLCD::~TextLCD()+0x3e>
 8001cfe:	9b01      	ldr	r3, [sp, #4]
 8001d00:	f8d3 30c8 	ldr.w	r3, [r3, #200]	; 0xc8
 8001d04:	4618      	mov	r0, r3
 8001d06:	f003 f95d 	bl	8004fc4 <operator delete(void*)>
 8001d0a:	9b01      	ldr	r3, [sp, #4]
 8001d0c:	337c      	adds	r3, #124	; 0x7c
 8001d0e:	4618      	mov	r0, r3
 8001d10:	f002 fa92 	bl	8004238 <mbed::BusOut::~BusOut()>
 8001d14:	9b01      	ldr	r3, [sp, #4]
 8001d16:	4618      	mov	r0, r3
 8001d18:	f7ff fefc 	bl	8001b14 <TextLCD_Base::~TextLCD_Base()>
 8001d1c:	2300      	movs	r3, #0
 8001d1e:	2b00      	cmp	r3, #0
 8001d20:	d002      	beq.n	8001d28 <TextLCD::~TextLCD()+0x5c>
 8001d22:	9801      	ldr	r0, [sp, #4]
 8001d24:	f003 f94e 	bl	8004fc4 <operator delete(void*)>
 8001d28:	9b01      	ldr	r3, [sp, #4]
 8001d2a:	4618      	mov	r0, r3
 8001d2c:	b003      	add	sp, #12
 8001d2e:	f85d fb04 	ldr.w	pc, [sp], #4
 8001d32:	bf00      	nop
 8001d34:	08007358 	.word	0x08007358
 8001d38:	080073a0 	.word	0x080073a0

08001d3c <non-virtual thunk to TextLCD::~TextLCD()>:
 8001d3c:	f1a0 0004 	sub.w	r0, r0, #4
 8001d40:	f7ff bfc4 	b.w	8001ccc <TextLCD::~TextLCD()>

08001d44 <TextLCD::~TextLCD()>:
 8001d44:	b500      	push	{lr}
 8001d46:	b083      	sub	sp, #12
 8001d48:	9001      	str	r0, [sp, #4]
 8001d4a:	9801      	ldr	r0, [sp, #4]
 8001d4c:	f7ff ffbe 	bl	8001ccc <TextLCD::~TextLCD()>
 8001d50:	9801      	ldr	r0, [sp, #4]
 8001d52:	f003 f937 	bl	8004fc4 <operator delete(void*)>
 8001d56:	9b01      	ldr	r3, [sp, #4]
 8001d58:	4618      	mov	r0, r3
 8001d5a:	b003      	add	sp, #12
 8001d5c:	f85d fb04 	ldr.w	pc, [sp], #4

08001d60 <non-virtual thunk to TextLCD::~TextLCD()>:
 8001d60:	f1a0 0004 	sub.w	r0, r0, #4
 8001d64:	f7ff bfee 	b.w	8001d44 <TextLCD::~TextLCD()>

08001d68 <TextLCD::_setEnable(bool)>:
 8001d68:	b500      	push	{lr}
 8001d6a:	b083      	sub	sp, #12
 8001d6c:	9001      	str	r0, [sp, #4]
 8001d6e:	460b      	mov	r3, r1
 8001d70:	f88d 3003 	strb.w	r3, [sp, #3]
 8001d74:	9b01      	ldr	r3, [sp, #4]
 8001d76:	f893 3030 	ldrb.w	r3, [r3, #48]	; 0x30
 8001d7a:	2b00      	cmp	r3, #0
 8001d7c:	d111      	bne.n	8001da2 <TextLCD::_setEnable(bool)+0x3a>
 8001d7e:	f89d 3003 	ldrb.w	r3, [sp, #3]
 8001d82:	2b00      	cmp	r3, #0
 8001d84:	d006      	beq.n	8001d94 <TextLCD::_setEnable(bool)+0x2c>
 8001d86:	9b01      	ldr	r3, [sp, #4]
 8001d88:	3368      	adds	r3, #104	; 0x68
 8001d8a:	4618      	mov	r0, r3
 8001d8c:	2101      	movs	r1, #1
 8001d8e:	f7fe fc59 	bl	8000644 <mbed::DigitalOut::operator=(int)>
 8001d92:	e023      	b.n	8001ddc <TextLCD::_setEnable(bool)+0x74>
 8001d94:	9b01      	ldr	r3, [sp, #4]
 8001d96:	3368      	adds	r3, #104	; 0x68
 8001d98:	4618      	mov	r0, r3
 8001d9a:	2100      	movs	r1, #0
 8001d9c:	f7fe fc52 	bl	8000644 <mbed::DigitalOut::operator=(int)>
 8001da0:	e01c      	b.n	8001ddc <TextLCD::_setEnable(bool)+0x74>
 8001da2:	f89d 3003 	ldrb.w	r3, [sp, #3]
 8001da6:	2b00      	cmp	r3, #0
 8001da8:	d00c      	beq.n	8001dc4 <TextLCD::_setEnable(bool)+0x5c>
 8001daa:	9b01      	ldr	r3, [sp, #4]
 8001dac:	f8d3 30c8 	ldr.w	r3, [r3, #200]	; 0xc8
 8001db0:	2b00      	cmp	r3, #0
 8001db2:	d013      	beq.n	8001ddc <TextLCD::_setEnable(bool)+0x74>
 8001db4:	9b01      	ldr	r3, [sp, #4]
 8001db6:	f8d3 30c8 	ldr.w	r3, [r3, #200]	; 0xc8
 8001dba:	4618      	mov	r0, r3
 8001dbc:	2101      	movs	r1, #1
 8001dbe:	f7fe fc35 	bl	800062c <mbed::DigitalOut::write(int)>
 8001dc2:	e00b      	b.n	8001ddc <TextLCD::_setEnable(bool)+0x74>
 8001dc4:	9b01      	ldr	r3, [sp, #4]
 8001dc6:	f8d3 30c8 	ldr.w	r3, [r3, #200]	; 0xc8
 8001dca:	2b00      	cmp	r3, #0
 8001dcc:	d006      	beq.n	8001ddc <TextLCD::_setEnable(bool)+0x74>
 8001dce:	9b01      	ldr	r3, [sp, #4]
 8001dd0:	f8d3 30c8 	ldr.w	r3, [r3, #200]	; 0xc8
 8001dd4:	4618      	mov	r0, r3
 8001dd6:	2100      	movs	r1, #0
 8001dd8:	f7fe fc28 	bl	800062c <mbed::DigitalOut::write(int)>
 8001ddc:	b003      	add	sp, #12
 8001dde:	f85d fb04 	ldr.w	pc, [sp], #4
 8001de2:	bf00      	nop

08001de4 <TextLCD::_setRS(bool)>:
 8001de4:	b500      	push	{lr}
 8001de6:	b083      	sub	sp, #12
 8001de8:	9001      	str	r0, [sp, #4]
 8001dea:	460b      	mov	r3, r1
 8001dec:	f88d 3003 	strb.w	r3, [sp, #3]
 8001df0:	f89d 3003 	ldrb.w	r3, [sp, #3]
 8001df4:	2b00      	cmp	r3, #0
 8001df6:	d006      	beq.n	8001e06 <TextLCD::_setRS(bool)+0x22>
 8001df8:	9b01      	ldr	r3, [sp, #4]
 8001dfa:	3354      	adds	r3, #84	; 0x54
 8001dfc:	4618      	mov	r0, r3
 8001dfe:	2101      	movs	r1, #1
 8001e00:	f7fe fc20 	bl	8000644 <mbed::DigitalOut::operator=(int)>
 8001e04:	e005      	b.n	8001e12 <TextLCD::_setRS(bool)+0x2e>
 8001e06:	9b01      	ldr	r3, [sp, #4]
 8001e08:	3354      	adds	r3, #84	; 0x54
 8001e0a:	4618      	mov	r0, r3
 8001e0c:	2100      	movs	r1, #0
 8001e0e:	f7fe fc19 	bl	8000644 <mbed::DigitalOut::operator=(int)>
 8001e12:	b003      	add	sp, #12
 8001e14:	f85d fb04 	ldr.w	pc, [sp], #4

08001e18 <TextLCD::_setBL(bool)>:
 8001e18:	b500      	push	{lr}
 8001e1a:	b083      	sub	sp, #12
 8001e1c:	9001      	str	r0, [sp, #4]
 8001e1e:	460b      	mov	r3, r1
 8001e20:	f88d 3003 	strb.w	r3, [sp, #3]
 8001e24:	f89d 3003 	ldrb.w	r3, [sp, #3]
 8001e28:	2b00      	cmp	r3, #0
 8001e2a:	d00c      	beq.n	8001e46 <TextLCD::_setBL(bool)+0x2e>
 8001e2c:	9b01      	ldr	r3, [sp, #4]
 8001e2e:	f8d3 30c4 	ldr.w	r3, [r3, #196]	; 0xc4
 8001e32:	2b00      	cmp	r3, #0
 8001e34:	d013      	beq.n	8001e5e <TextLCD::_setBL(bool)+0x46>
 8001e36:	9b01      	ldr	r3, [sp, #4]
 8001e38:	f8d3 30c4 	ldr.w	r3, [r3, #196]	; 0xc4
 8001e3c:	4618      	mov	r0, r3
 8001e3e:	2101      	movs	r1, #1
 8001e40:	f7fe fbf4 	bl	800062c <mbed::DigitalOut::write(int)>
 8001e44:	e00b      	b.n	8001e5e <TextLCD::_setBL(bool)+0x46>
 8001e46:	9b01      	ldr	r3, [sp, #4]
 8001e48:	f8d3 30c4 	ldr.w	r3, [r3, #196]	; 0xc4
 8001e4c:	2b00      	cmp	r3, #0
 8001e4e:	d006      	beq.n	8001e5e <TextLCD::_setBL(bool)+0x46>
 8001e50:	9b01      	ldr	r3, [sp, #4]
 8001e52:	f8d3 30c4 	ldr.w	r3, [r3, #196]	; 0xc4
 8001e56:	4618      	mov	r0, r3
 8001e58:	2100      	movs	r1, #0
 8001e5a:	f7fe fbe7 	bl	800062c <mbed::DigitalOut::write(int)>
 8001e5e:	b003      	add	sp, #12
 8001e60:	f85d fb04 	ldr.w	pc, [sp], #4

08001e64 <TextLCD::_setData(int)>:
 8001e64:	b500      	push	{lr}
 8001e66:	b083      	sub	sp, #12
 8001e68:	9001      	str	r0, [sp, #4]
 8001e6a:	9100      	str	r1, [sp, #0]
 8001e6c:	9b01      	ldr	r3, [sp, #4]
 8001e6e:	f103 027c 	add.w	r2, r3, #124	; 0x7c
 8001e72:	9b00      	ldr	r3, [sp, #0]
 8001e74:	f003 030f 	and.w	r3, r3, #15
 8001e78:	4610      	mov	r0, r2
 8001e7a:	4619      	mov	r1, r3
 8001e7c:	f002 fa3c 	bl	80042f8 <mbed::BusOut::operator=(int)>
 8001e80:	b003      	add	sp, #12
 8001e82:	f85d fb04 	ldr.w	pc, [sp], #4
 8001e86:	bf00      	nop

08001e88 <_start>:
 8001e88:	b500      	push	{lr}
 8001e8a:	b083      	sub	sp, #12
 8001e8c:	4a09      	ldr	r2, [pc, #36]	; (8001eb4 <_start+0x2c>)
 8001e8e:	4b0a      	ldr	r3, [pc, #40]	; (8001eb8 <_start+0x30>)
 8001e90:	1ad3      	subs	r3, r2, r3
 8001e92:	9301      	str	r3, [sp, #4]
 8001e94:	9b01      	ldr	r3, [sp, #4]
 8001e96:	4808      	ldr	r0, [pc, #32]	; (8001eb8 <_start+0x30>)
 8001e98:	2100      	movs	r1, #0
 8001e9a:	461a      	mov	r2, r3
 8001e9c:	f003 fc51 	bl	8005742 <memset>
 8001ea0:	f3af 8000 	nop.w
 8001ea4:	f003 fb94 	bl	80055d0 <__libc_init_array>
 8001ea8:	f002 fe30 	bl	8004b0c <__wrap_main>
 8001eac:	9000      	str	r0, [sp, #0]
 8001eae:	9800      	ldr	r0, [sp, #0]
 8001eb0:	f003 f8ac 	bl	800500c <exit>
 8001eb4:	20000664 	.word	0x20000664
 8001eb8:	20000218 	.word	0x20000218

08001ebc <__wrap__isatty>:
 8001ebc:	b500      	push	{lr}
 8001ebe:	b083      	sub	sp, #12
 8001ec0:	9001      	str	r0, [sp, #4]
 8001ec2:	9b01      	ldr	r3, [sp, #4]
 8001ec4:	2b02      	cmp	r3, #2
 8001ec6:	dc01      	bgt.n	8001ecc <__wrap__isatty+0x10>
 8001ec8:	2301      	movs	r3, #1
 8001eca:	e003      	b.n	8001ed4 <__wrap__isatty+0x18>
 8001ecc:	9801      	ldr	r0, [sp, #4]
 8001ece:	f002 fdb5 	bl	8004a3c <_isatty>
 8001ed2:	4603      	mov	r3, r0
 8001ed4:	4618      	mov	r0, r3
 8001ed6:	b003      	add	sp, #12
 8001ed8:	f85d fb04 	ldr.w	pc, [sp], #4

08001edc <breakOnHeapOpFromInterruptHandler>:
 8001edc:	b082      	sub	sp, #8
 8001ede:	f3ef 8305 	mrs	r3, IPSR
 8001ee2:	9301      	str	r3, [sp, #4]
 8001ee4:	9b01      	ldr	r3, [sp, #4]
 8001ee6:	2b00      	cmp	r3, #0
 8001ee8:	d000      	beq.n	8001eec <breakOnHeapOpFromInterruptHandler+0x10>
 8001eea:	be00      	bkpt	0x0000
 8001eec:	b002      	add	sp, #8
 8001eee:	4770      	bx	lr

08001ef0 <__wrap_malloc>:
 8001ef0:	b500      	push	{lr}
 8001ef2:	b083      	sub	sp, #12
 8001ef4:	9001      	str	r0, [sp, #4]
 8001ef6:	f7ff fff1 	bl	8001edc <breakOnHeapOpFromInterruptHandler>
 8001efa:	9801      	ldr	r0, [sp, #4]
 8001efc:	f003 fbdc 	bl	80056b8 <malloc>
 8001f00:	4603      	mov	r3, r0
 8001f02:	4618      	mov	r0, r3
 8001f04:	b003      	add	sp, #12
 8001f06:	f85d fb04 	ldr.w	pc, [sp], #4
 8001f0a:	bf00      	nop

08001f0c <__wrap_free>:
 8001f0c:	b500      	push	{lr}
 8001f0e:	b083      	sub	sp, #12
 8001f10:	9001      	str	r0, [sp, #4]
 8001f12:	f7ff ffe3 	bl	8001edc <breakOnHeapOpFromInterruptHandler>
 8001f16:	9801      	ldr	r0, [sp, #4]
 8001f18:	f003 fbd6 	bl	80056c8 <free>
 8001f1c:	b003      	add	sp, #12
 8001f1e:	f85d fb04 	ldr.w	pc, [sp], #4
 8001f22:	bf00      	nop

08001f24 <abort>:
 8001f24:	b508      	push	{r3, lr}
 8001f26:	2001      	movs	r0, #1
 8001f28:	f003 f870 	bl	800500c <exit>

08001f2c <__cxa_pure_virtual>:
 8001f2c:	b508      	push	{r3, lr}
 8001f2e:	f7ff fff9 	bl	8001f24 <abort>
 8001f32:	bf00      	nop

08001f34 <mbed_assert_internal>:
 8001f34:	b500      	push	{lr}
 8001f36:	b087      	sub	sp, #28
 8001f38:	9005      	str	r0, [sp, #20]
 8001f3a:	9104      	str	r1, [sp, #16]
 8001f3c:	9203      	str	r2, [sp, #12]
 8001f3e:	4b08      	ldr	r3, [pc, #32]	; (8001f60 <mbed_assert_internal+0x2c>)
 8001f40:	681b      	ldr	r3, [r3, #0]
 8001f42:	68da      	ldr	r2, [r3, #12]
 8001f44:	9b03      	ldr	r3, [sp, #12]
 8001f46:	9300      	str	r3, [sp, #0]
 8001f48:	4610      	mov	r0, r2
 8001f4a:	4906      	ldr	r1, [pc, #24]	; (8001f64 <mbed_assert_internal+0x30>)
 8001f4c:	9a05      	ldr	r2, [sp, #20]
 8001f4e:	9b04      	ldr	r3, [sp, #16]
 8001f50:	f003 fa80 	bl	8005454 <fiprintf>
 8001f54:	f000 f808 	bl	8001f68 <mbed_die>
 8001f58:	b007      	add	sp, #28
 8001f5a:	f85d fb04 	ldr.w	pc, [sp], #4
 8001f5e:	bf00      	nop
 8001f60:	20000200 	.word	0x20000200
 8001f64:	08007400 	.word	0x08007400

08001f68 <mbed_die>:
 8001f68:	b508      	push	{r3, lr}
 8001f6a:	b672      	cpsid	i
 8001f6c:	2096      	movs	r0, #150	; 0x96
 8001f6e:	f000 f9b1 	bl	80022d4 <wait_ms>
 8001f72:	2096      	movs	r0, #150	; 0x96
 8001f74:	f000 f9ae 	bl	80022d4 <wait_ms>
 8001f78:	e7f8      	b.n	8001f6c <mbed_die+0x4>
 8001f7a:	bf00      	nop

08001f7c <error>:
 8001f7c:	b40f      	push	{r0, r1, r2, r3}
 8001f7e:	b500      	push	{lr}
 8001f80:	b083      	sub	sp, #12
 8001f82:	ab05      	add	r3, sp, #20
 8001f84:	9301      	str	r3, [sp, #4]
 8001f86:	4b05      	ldr	r3, [pc, #20]	; (8001f9c <error+0x20>)
 8001f88:	681b      	ldr	r3, [r3, #0]
 8001f8a:	68db      	ldr	r3, [r3, #12]
 8001f8c:	4618      	mov	r0, r3
 8001f8e:	9904      	ldr	r1, [sp, #16]
 8001f90:	9a01      	ldr	r2, [sp, #4]
 8001f92:	f003 fda9 	bl	8005ae8 <vfiprintf>
 8001f96:	2001      	movs	r0, #1
 8001f98:	f003 f838 	bl	800500c <exit>
 8001f9c:	20000200 	.word	0x20000200

08001fa0 <gpio_write>:
 8001fa0:	b500      	push	{lr}
 8001fa2:	b083      	sub	sp, #12
 8001fa4:	9001      	str	r0, [sp, #4]
 8001fa6:	9100      	str	r1, [sp, #0]
 8001fa8:	9b01      	ldr	r3, [sp, #4]
 8001faa:	781b      	ldrb	r3, [r3, #0]
 8001fac:	b25b      	sxtb	r3, r3
 8001fae:	f1b3 3fff 	cmp.w	r3, #4294967295
 8001fb2:	d104      	bne.n	8001fbe <gpio_write+0x1e>
 8001fb4:	480b      	ldr	r0, [pc, #44]	; (8001fe4 <gpio_write+0x44>)
 8001fb6:	490c      	ldr	r1, [pc, #48]	; (8001fe8 <gpio_write+0x48>)
 8001fb8:	2235      	movs	r2, #53	; 0x35
 8001fba:	f7ff ffbb 	bl	8001f34 <mbed_assert_internal>
 8001fbe:	9b00      	ldr	r3, [sp, #0]
 8001fc0:	2b00      	cmp	r3, #0
 8001fc2:	d006      	beq.n	8001fd2 <gpio_write+0x32>
 8001fc4:	9b01      	ldr	r3, [sp, #4]
 8001fc6:	68db      	ldr	r3, [r3, #12]
 8001fc8:	9a01      	ldr	r2, [sp, #4]
 8001fca:	6852      	ldr	r2, [r2, #4]
 8001fcc:	b292      	uxth	r2, r2
 8001fce:	801a      	strh	r2, [r3, #0]
 8001fd0:	e005      	b.n	8001fde <gpio_write+0x3e>
 8001fd2:	9b01      	ldr	r3, [sp, #4]
 8001fd4:	691b      	ldr	r3, [r3, #16]
 8001fd6:	9a01      	ldr	r2, [sp, #4]
 8001fd8:	6852      	ldr	r2, [r2, #4]
 8001fda:	b292      	uxth	r2, r2
 8001fdc:	801a      	strh	r2, [r3, #0]
 8001fde:	b003      	add	sp, #12
 8001fe0:	f85d fb04 	ldr.w	pc, [sp], #4
 8001fe4:	08007434 	.word	0x08007434
 8001fe8:	0800744c 	.word	0x0800744c

08001fec <_gpio_init_in>:
 8001fec:	b500      	push	{lr}
 8001fee:	b083      	sub	sp, #12
 8001ff0:	9001      	str	r0, [sp, #4]
 8001ff2:	460b      	mov	r3, r1
 8001ff4:	f88d 3003 	strb.w	r3, [sp, #3]
 8001ff8:	4613      	mov	r3, r2
 8001ffa:	f88d 3002 	strb.w	r3, [sp, #2]
 8001ffe:	f99d 3003 	ldrsb.w	r3, [sp, #3]
 8002002:	9801      	ldr	r0, [sp, #4]
 8002004:	4619      	mov	r1, r3
 8002006:	f001 fd55 	bl	8003ab4 <gpio_init>
 800200a:	f99d 3003 	ldrsb.w	r3, [sp, #3]
 800200e:	f1b3 3fff 	cmp.w	r3, #4294967295
 8002012:	d009      	beq.n	8002028 <_gpio_init_in+0x3c>
 8002014:	9801      	ldr	r0, [sp, #4]
 8002016:	2100      	movs	r1, #0
 8002018:	f001 fd94 	bl	8003b44 <gpio_dir>
 800201c:	f89d 3002 	ldrb.w	r3, [sp, #2]
 8002020:	9801      	ldr	r0, [sp, #4]
 8002022:	4619      	mov	r1, r3
 8002024:	f001 fd7c 	bl	8003b20 <gpio_mode>
 8002028:	b003      	add	sp, #12
 800202a:	f85d fb04 	ldr.w	pc, [sp], #4
 800202e:	bf00      	nop

08002030 <_gpio_init_out>:
 8002030:	b500      	push	{lr}
 8002032:	b085      	sub	sp, #20
 8002034:	9003      	str	r0, [sp, #12]
 8002036:	9301      	str	r3, [sp, #4]
 8002038:	460b      	mov	r3, r1
 800203a:	f88d 300b 	strb.w	r3, [sp, #11]
 800203e:	4613      	mov	r3, r2
 8002040:	f88d 300a 	strb.w	r3, [sp, #10]
 8002044:	f99d 300b 	ldrsb.w	r3, [sp, #11]
 8002048:	9803      	ldr	r0, [sp, #12]
 800204a:	4619      	mov	r1, r3
 800204c:	f001 fd32 	bl	8003ab4 <gpio_init>
 8002050:	f99d 300b 	ldrsb.w	r3, [sp, #11]
 8002054:	f1b3 3fff 	cmp.w	r3, #4294967295
 8002058:	d00d      	beq.n	8002076 <_gpio_init_out+0x46>
 800205a:	9803      	ldr	r0, [sp, #12]
 800205c:	9901      	ldr	r1, [sp, #4]
 800205e:	f7ff ff9f 	bl	8001fa0 <gpio_write>
 8002062:	9803      	ldr	r0, [sp, #12]
 8002064:	2101      	movs	r1, #1
 8002066:	f001 fd6d 	bl	8003b44 <gpio_dir>
 800206a:	f89d 300a 	ldrb.w	r3, [sp, #10]
 800206e:	9803      	ldr	r0, [sp, #12]
 8002070:	4619      	mov	r1, r3
 8002072:	f001 fd55 	bl	8003b20 <gpio_mode>
 8002076:	b005      	add	sp, #20
 8002078:	f85d fb04 	ldr.w	pc, [sp], #4

0800207c <gpio_init_in>:
 800207c:	b500      	push	{lr}
 800207e:	b083      	sub	sp, #12
 8002080:	9001      	str	r0, [sp, #4]
 8002082:	460b      	mov	r3, r1
 8002084:	f88d 3003 	strb.w	r3, [sp, #3]
 8002088:	f99d 3003 	ldrsb.w	r3, [sp, #3]
 800208c:	9801      	ldr	r0, [sp, #4]
 800208e:	4619      	mov	r1, r3
 8002090:	2200      	movs	r2, #0
 8002092:	f000 f803 	bl	800209c <gpio_init_in_ex>
 8002096:	b003      	add	sp, #12
 8002098:	f85d fb04 	ldr.w	pc, [sp], #4

0800209c <gpio_init_in_ex>:
 800209c:	b500      	push	{lr}
 800209e:	b083      	sub	sp, #12
 80020a0:	9001      	str	r0, [sp, #4]
 80020a2:	460b      	mov	r3, r1
 80020a4:	f88d 3003 	strb.w	r3, [sp, #3]
 80020a8:	4613      	mov	r3, r2
 80020aa:	f88d 3002 	strb.w	r3, [sp, #2]
 80020ae:	f99d 2003 	ldrsb.w	r2, [sp, #3]
 80020b2:	f89d 3002 	ldrb.w	r3, [sp, #2]
 80020b6:	9801      	ldr	r0, [sp, #4]
 80020b8:	4611      	mov	r1, r2
 80020ba:	461a      	mov	r2, r3
 80020bc:	f7ff ff96 	bl	8001fec <_gpio_init_in>
 80020c0:	b003      	add	sp, #12
 80020c2:	f85d fb04 	ldr.w	pc, [sp], #4
 80020c6:	bf00      	nop

080020c8 <gpio_init_out>:
 80020c8:	b500      	push	{lr}
 80020ca:	b083      	sub	sp, #12
 80020cc:	9001      	str	r0, [sp, #4]
 80020ce:	460b      	mov	r3, r1
 80020d0:	f88d 3003 	strb.w	r3, [sp, #3]
 80020d4:	f99d 3003 	ldrsb.w	r3, [sp, #3]
 80020d8:	9801      	ldr	r0, [sp, #4]
 80020da:	4619      	mov	r1, r3
 80020dc:	2200      	movs	r2, #0
 80020de:	f000 f803 	bl	80020e8 <gpio_init_out_ex>
 80020e2:	b003      	add	sp, #12
 80020e4:	f85d fb04 	ldr.w	pc, [sp], #4

080020e8 <gpio_init_out_ex>:
 80020e8:	b500      	push	{lr}
 80020ea:	b085      	sub	sp, #20
 80020ec:	9003      	str	r0, [sp, #12]
 80020ee:	460b      	mov	r3, r1
 80020f0:	9201      	str	r2, [sp, #4]
 80020f2:	f88d 300b 	strb.w	r3, [sp, #11]
 80020f6:	f99d 300b 	ldrsb.w	r3, [sp, #11]
 80020fa:	9803      	ldr	r0, [sp, #12]
 80020fc:	4619      	mov	r1, r3
 80020fe:	2200      	movs	r2, #0
 8002100:	9b01      	ldr	r3, [sp, #4]
 8002102:	f7ff ff95 	bl	8002030 <_gpio_init_out>
 8002106:	b005      	add	sp, #20
 8002108:	f85d fb04 	ldr.w	pc, [sp], #4

0800210c <pinmap_pinout>:
 800210c:	b500      	push	{lr}
 800210e:	b083      	sub	sp, #12
 8002110:	4603      	mov	r3, r0
 8002112:	9100      	str	r1, [sp, #0]
 8002114:	f88d 3007 	strb.w	r3, [sp, #7]
 8002118:	f99d 3007 	ldrsb.w	r3, [sp, #7]
 800211c:	f1b3 3fff 	cmp.w	r3, #4294967295
 8002120:	d100      	bne.n	8002124 <pinmap_pinout+0x18>
 8002122:	e022      	b.n	800216a <pinmap_pinout+0x5e>
 8002124:	e018      	b.n	8002158 <pinmap_pinout+0x4c>
 8002126:	9b00      	ldr	r3, [sp, #0]
 8002128:	781b      	ldrb	r3, [r3, #0]
 800212a:	f99d 2007 	ldrsb.w	r2, [sp, #7]
 800212e:	b25b      	sxtb	r3, r3
 8002130:	429a      	cmp	r2, r3
 8002132:	d10e      	bne.n	8002152 <pinmap_pinout+0x46>
 8002134:	9b00      	ldr	r3, [sp, #0]
 8002136:	689b      	ldr	r3, [r3, #8]
 8002138:	f99d 2007 	ldrsb.w	r2, [sp, #7]
 800213c:	4610      	mov	r0, r2
 800213e:	4619      	mov	r1, r3
 8002140:	f001 fd9e 	bl	8003c80 <pin_function>
 8002144:	f99d 3007 	ldrsb.w	r3, [sp, #7]
 8002148:	4618      	mov	r0, r3
 800214a:	2100      	movs	r1, #0
 800214c:	f001 fde6 	bl	8003d1c <pin_mode>
 8002150:	e00b      	b.n	800216a <pinmap_pinout+0x5e>
 8002152:	9b00      	ldr	r3, [sp, #0]
 8002154:	330c      	adds	r3, #12
 8002156:	9300      	str	r3, [sp, #0]
 8002158:	9b00      	ldr	r3, [sp, #0]
 800215a:	781b      	ldrb	r3, [r3, #0]
 800215c:	b25b      	sxtb	r3, r3
 800215e:	f1b3 3fff 	cmp.w	r3, #4294967295
 8002162:	d1e0      	bne.n	8002126 <pinmap_pinout+0x1a>
 8002164:	4802      	ldr	r0, [pc, #8]	; (8002170 <pinmap_pinout+0x64>)
 8002166:	f7ff ff09 	bl	8001f7c <error>
 800216a:	b003      	add	sp, #12
 800216c:	f85d fb04 	ldr.w	pc, [sp], #4
 8002170:	080074a4 	.word	0x080074a4

08002174 <pinmap_merge>:
 8002174:	b500      	push	{lr}
 8002176:	b083      	sub	sp, #12
 8002178:	9001      	str	r0, [sp, #4]
 800217a:	9100      	str	r1, [sp, #0]
 800217c:	9a01      	ldr	r2, [sp, #4]
 800217e:	9b00      	ldr	r3, [sp, #0]
 8002180:	429a      	cmp	r2, r3
 8002182:	d101      	bne.n	8002188 <pinmap_merge+0x14>
 8002184:	9b01      	ldr	r3, [sp, #4]
 8002186:	e010      	b.n	80021aa <pinmap_merge+0x36>
 8002188:	9b01      	ldr	r3, [sp, #4]
 800218a:	f1b3 3fff 	cmp.w	r3, #4294967295
 800218e:	d101      	bne.n	8002194 <pinmap_merge+0x20>
 8002190:	9b00      	ldr	r3, [sp, #0]
 8002192:	e00a      	b.n	80021aa <pinmap_merge+0x36>
 8002194:	9b00      	ldr	r3, [sp, #0]
 8002196:	f1b3 3fff 	cmp.w	r3, #4294967295
 800219a:	d101      	bne.n	80021a0 <pinmap_merge+0x2c>
 800219c:	9b01      	ldr	r3, [sp, #4]
 800219e:	e004      	b.n	80021aa <pinmap_merge+0x36>
 80021a0:	4804      	ldr	r0, [pc, #16]	; (80021b4 <pinmap_merge+0x40>)
 80021a2:	f7ff feeb 	bl	8001f7c <error>
 80021a6:	f04f 33ff 	mov.w	r3, #4294967295
 80021aa:	4618      	mov	r0, r3
 80021ac:	b003      	add	sp, #12
 80021ae:	f85d fb04 	ldr.w	pc, [sp], #4
 80021b2:	bf00      	nop
 80021b4:	080074b8 	.word	0x080074b8

080021b8 <pinmap_find_peripheral>:
 80021b8:	b082      	sub	sp, #8
 80021ba:	4603      	mov	r3, r0
 80021bc:	9100      	str	r1, [sp, #0]
 80021be:	f88d 3007 	strb.w	r3, [sp, #7]
 80021c2:	e00c      	b.n	80021de <pinmap_find_peripheral+0x26>
 80021c4:	9b00      	ldr	r3, [sp, #0]
 80021c6:	781b      	ldrb	r3, [r3, #0]
 80021c8:	f99d 2007 	ldrsb.w	r2, [sp, #7]
 80021cc:	b25b      	sxtb	r3, r3
 80021ce:	429a      	cmp	r2, r3
 80021d0:	d102      	bne.n	80021d8 <pinmap_find_peripheral+0x20>
 80021d2:	9b00      	ldr	r3, [sp, #0]
 80021d4:	685b      	ldr	r3, [r3, #4]
 80021d6:	e00a      	b.n	80021ee <pinmap_find_peripheral+0x36>
 80021d8:	9b00      	ldr	r3, [sp, #0]
 80021da:	330c      	adds	r3, #12
 80021dc:	9300      	str	r3, [sp, #0]
 80021de:	9b00      	ldr	r3, [sp, #0]
 80021e0:	781b      	ldrb	r3, [r3, #0]
 80021e2:	b25b      	sxtb	r3, r3
 80021e4:	f1b3 3fff 	cmp.w	r3, #4294967295
 80021e8:	d1ec      	bne.n	80021c4 <pinmap_find_peripheral+0xc>
 80021ea:	f04f 33ff 	mov.w	r3, #4294967295
 80021ee:	4618      	mov	r0, r3
 80021f0:	b002      	add	sp, #8
 80021f2:	4770      	bx	lr

080021f4 <pinmap_peripheral>:
 80021f4:	b500      	push	{lr}
 80021f6:	b085      	sub	sp, #20
 80021f8:	4603      	mov	r3, r0
 80021fa:	9100      	str	r1, [sp, #0]
 80021fc:	f88d 3007 	strb.w	r3, [sp, #7]
 8002200:	f04f 33ff 	mov.w	r3, #4294967295
 8002204:	9303      	str	r3, [sp, #12]
 8002206:	f99d 3007 	ldrsb.w	r3, [sp, #7]
 800220a:	f1b3 3fff 	cmp.w	r3, #4294967295
 800220e:	d102      	bne.n	8002216 <pinmap_peripheral+0x22>
 8002210:	f04f 33ff 	mov.w	r3, #4294967295
 8002214:	e00e      	b.n	8002234 <pinmap_peripheral+0x40>
 8002216:	f99d 3007 	ldrsb.w	r3, [sp, #7]
 800221a:	4618      	mov	r0, r3
 800221c:	9900      	ldr	r1, [sp, #0]
 800221e:	f7ff ffcb 	bl	80021b8 <pinmap_find_peripheral>
 8002222:	9003      	str	r0, [sp, #12]
 8002224:	9b03      	ldr	r3, [sp, #12]
 8002226:	f1b3 3fff 	cmp.w	r3, #4294967295
 800222a:	d102      	bne.n	8002232 <pinmap_peripheral+0x3e>
 800222c:	4803      	ldr	r0, [pc, #12]	; (800223c <pinmap_peripheral+0x48>)
 800222e:	f7ff fea5 	bl	8001f7c <error>
 8002232:	9b03      	ldr	r3, [sp, #12]
 8002234:	4618      	mov	r0, r3
 8002236:	b005      	add	sp, #20
 8002238:	f85d fb04 	ldr.w	pc, [sp], #4
 800223c:	080074cc 	.word	0x080074cc

08002240 <us_ticker_irq_handler>:
 8002240:	b510      	push	{r4, lr}
 8002242:	b082      	sub	sp, #8
 8002244:	f001 ff5e 	bl	8004104 <us_ticker_clear_interrupt>
 8002248:	4b16      	ldr	r3, [pc, #88]	; (80022a4 <us_ticker_irq_handler+0x64>)
 800224a:	681b      	ldr	r3, [r3, #0]
 800224c:	2b00      	cmp	r3, #0
 800224e:	d102      	bne.n	8002256 <us_ticker_irq_handler+0x16>
 8002250:	f001 ff4c 	bl	80040ec <us_ticker_disable_interrupt>
 8002254:	e024      	b.n	80022a0 <us_ticker_irq_handler+0x60>
 8002256:	4b13      	ldr	r3, [pc, #76]	; (80022a4 <us_ticker_irq_handler+0x64>)
 8002258:	681b      	ldr	r3, [r3, #0]
 800225a:	681c      	ldr	r4, [r3, #0]
 800225c:	f001 ff24 	bl	80040a8 <us_ticker_read>
 8002260:	4603      	mov	r3, r0
 8002262:	1ae3      	subs	r3, r4, r3
 8002264:	2b00      	cmp	r3, #0
 8002266:	dc13      	bgt.n	8002290 <us_ticker_irq_handler+0x50>
 8002268:	4b0e      	ldr	r3, [pc, #56]	; (80022a4 <us_ticker_irq_handler+0x64>)
 800226a:	681b      	ldr	r3, [r3, #0]
 800226c:	9301      	str	r3, [sp, #4]
 800226e:	4b0d      	ldr	r3, [pc, #52]	; (80022a4 <us_ticker_irq_handler+0x64>)
 8002270:	681b      	ldr	r3, [r3, #0]
 8002272:	689b      	ldr	r3, [r3, #8]
 8002274:	4a0b      	ldr	r2, [pc, #44]	; (80022a4 <us_ticker_irq_handler+0x64>)
 8002276:	6013      	str	r3, [r2, #0]
 8002278:	4b0b      	ldr	r3, [pc, #44]	; (80022a8 <us_ticker_irq_handler+0x68>)
 800227a:	681b      	ldr	r3, [r3, #0]
 800227c:	2b00      	cmp	r3, #0
 800227e:	d006      	beq.n	800228e <us_ticker_irq_handler+0x4e>
 8002280:	4b09      	ldr	r3, [pc, #36]	; (80022a8 <us_ticker_irq_handler+0x68>)
 8002282:	681b      	ldr	r3, [r3, #0]
 8002284:	9a01      	ldr	r2, [sp, #4]
 8002286:	6852      	ldr	r2, [r2, #4]
 8002288:	4610      	mov	r0, r2
 800228a:	4798      	blx	r3
 800228c:	e007      	b.n	800229e <us_ticker_irq_handler+0x5e>
 800228e:	e006      	b.n	800229e <us_ticker_irq_handler+0x5e>
 8002290:	4b04      	ldr	r3, [pc, #16]	; (80022a4 <us_ticker_irq_handler+0x64>)
 8002292:	681b      	ldr	r3, [r3, #0]
 8002294:	681b      	ldr	r3, [r3, #0]
 8002296:	4618      	mov	r0, r3
 8002298:	f001 ff16 	bl	80040c8 <us_ticker_set_interrupt>
 800229c:	e000      	b.n	80022a0 <us_ticker_irq_handler+0x60>
 800229e:	e7d3      	b.n	8002248 <us_ticker_irq_handler+0x8>
 80022a0:	b002      	add	sp, #8
 80022a2:	bd10      	pop	{r4, pc}
 80022a4:	20000450 	.word	0x20000450
 80022a8:	2000044c 	.word	0x2000044c

080022ac <wait>:
 80022ac:	b500      	push	{lr}
 80022ae:	b083      	sub	sp, #12
 80022b0:	9001      	str	r0, [sp, #4]
 80022b2:	eddd 7a01 	vldr	s15, [sp, #4]
 80022b6:	ed9f 7a06 	vldr	s14, [pc, #24]	; 80022d0 <wait+0x24>
 80022ba:	ee67 7a87 	vmul.f32	s15, s15, s14
 80022be:	eefd 7ae7 	vcvt.s32.f32	s15, s15
 80022c2:	ee17 0a90 	vmov	r0, s15
 80022c6:	f000 f813 	bl	80022f0 <wait_us>
 80022ca:	b003      	add	sp, #12
 80022cc:	f85d fb04 	ldr.w	pc, [sp], #4
 80022d0:	49742400 	.word	0x49742400

080022d4 <wait_ms>:
 80022d4:	b500      	push	{lr}
 80022d6:	b083      	sub	sp, #12
 80022d8:	9001      	str	r0, [sp, #4]
 80022da:	9b01      	ldr	r3, [sp, #4]
 80022dc:	f44f 727a 	mov.w	r2, #1000	; 0x3e8
 80022e0:	fb02 f303 	mul.w	r3, r2, r3
 80022e4:	4618      	mov	r0, r3
 80022e6:	f000 f803 	bl	80022f0 <wait_us>
 80022ea:	b003      	add	sp, #12
 80022ec:	f85d fb04 	ldr.w	pc, [sp], #4

080022f0 <wait_us>:
 80022f0:	b500      	push	{lr}
 80022f2:	b085      	sub	sp, #20
 80022f4:	9001      	str	r0, [sp, #4]
 80022f6:	f001 fed7 	bl	80040a8 <us_ticker_read>
 80022fa:	9003      	str	r0, [sp, #12]
 80022fc:	bf00      	nop
 80022fe:	f001 fed3 	bl	80040a8 <us_ticker_read>
 8002302:	4602      	mov	r2, r0
 8002304:	9b03      	ldr	r3, [sp, #12]
 8002306:	1ad2      	subs	r2, r2, r3
 8002308:	9b01      	ldr	r3, [sp, #4]
 800230a:	429a      	cmp	r2, r3
 800230c:	d3f7      	bcc.n	80022fe <wait_us+0xe>
 800230e:	b005      	add	sp, #20
 8002310:	f85d fb04 	ldr.w	pc, [sp], #4

08002314 <HAL_Init>:
 8002314:	b508      	push	{r3, lr}
 8002316:	4a0e      	ldr	r2, [pc, #56]	; (8002350 <HAL_Init+0x3c>)
 8002318:	4b0d      	ldr	r3, [pc, #52]	; (8002350 <HAL_Init+0x3c>)
 800231a:	681b      	ldr	r3, [r3, #0]
 800231c:	f443 7300 	orr.w	r3, r3, #512	; 0x200
 8002320:	6013      	str	r3, [r2, #0]
 8002322:	4a0b      	ldr	r2, [pc, #44]	; (8002350 <HAL_Init+0x3c>)
 8002324:	4b0a      	ldr	r3, [pc, #40]	; (8002350 <HAL_Init+0x3c>)
 8002326:	681b      	ldr	r3, [r3, #0]
 8002328:	f443 6380 	orr.w	r3, r3, #1024	; 0x400
 800232c:	6013      	str	r3, [r2, #0]
 800232e:	4a08      	ldr	r2, [pc, #32]	; (8002350 <HAL_Init+0x3c>)
 8002330:	4b07      	ldr	r3, [pc, #28]	; (8002350 <HAL_Init+0x3c>)
 8002332:	681b      	ldr	r3, [r3, #0]
 8002334:	f443 7380 	orr.w	r3, r3, #256	; 0x100
 8002338:	6013      	str	r3, [r2, #0]
 800233a:	2003      	movs	r0, #3
 800233c:	f000 f838 	bl	80023b0 <HAL_NVIC_SetPriorityGrouping>
 8002340:	200f      	movs	r0, #15
 8002342:	f001 f9b5 	bl	80036b0 <HAL_InitTick>
 8002346:	f000 f805 	bl	8002354 <HAL_MspInit>
 800234a:	2300      	movs	r3, #0
 800234c:	4618      	mov	r0, r3
 800234e:	bd08      	pop	{r3, pc}
 8002350:	40023c00 	.word	0x40023c00

08002354 <HAL_MspInit>:
 8002354:	4770      	bx	lr
 8002356:	bf00      	nop

08002358 <HAL_IncTick>:
 8002358:	4b02      	ldr	r3, [pc, #8]	; (8002364 <HAL_IncTick+0xc>)
 800235a:	681b      	ldr	r3, [r3, #0]
 800235c:	3301      	adds	r3, #1
 800235e:	4a01      	ldr	r2, [pc, #4]	; (8002364 <HAL_IncTick+0xc>)
 8002360:	6013      	str	r3, [r2, #0]
 8002362:	4770      	bx	lr
 8002364:	20000454 	.word	0x20000454

08002368 <HAL_GetTick>:
 8002368:	4b01      	ldr	r3, [pc, #4]	; (8002370 <HAL_GetTick+0x8>)
 800236a:	681b      	ldr	r3, [r3, #0]
 800236c:	4618      	mov	r0, r3
 800236e:	4770      	bx	lr
 8002370:	20000454 	.word	0x20000454

08002374 <NVIC_SetPriorityGrouping>:
 8002374:	b084      	sub	sp, #16
 8002376:	9001      	str	r0, [sp, #4]
 8002378:	9b01      	ldr	r3, [sp, #4]
 800237a:	f003 0307 	and.w	r3, r3, #7
 800237e:	9303      	str	r3, [sp, #12]
 8002380:	4b0a      	ldr	r3, [pc, #40]	; (80023ac <NVIC_SetPriorityGrouping+0x38>)
 8002382:	68db      	ldr	r3, [r3, #12]
 8002384:	9302      	str	r3, [sp, #8]
 8002386:	9a02      	ldr	r2, [sp, #8]
 8002388:	f64f 03ff 	movw	r3, #63743	; 0xf8ff
 800238c:	4013      	ands	r3, r2
 800238e:	9302      	str	r3, [sp, #8]
 8002390:	9b03      	ldr	r3, [sp, #12]
 8002392:	021a      	lsls	r2, r3, #8
 8002394:	9b02      	ldr	r3, [sp, #8]
 8002396:	4313      	orrs	r3, r2
 8002398:	f043 63bf 	orr.w	r3, r3, #100139008	; 0x5f80000
 800239c:	f443 3300 	orr.w	r3, r3, #131072	; 0x20000
 80023a0:	9302      	str	r3, [sp, #8]
 80023a2:	4a02      	ldr	r2, [pc, #8]	; (80023ac <NVIC_SetPriorityGrouping+0x38>)
 80023a4:	9b02      	ldr	r3, [sp, #8]
 80023a6:	60d3      	str	r3, [r2, #12]
 80023a8:	b004      	add	sp, #16
 80023aa:	4770      	bx	lr
 80023ac:	e000ed00 	.word	0xe000ed00

080023b0 <HAL_NVIC_SetPriorityGrouping>:
 80023b0:	b500      	push	{lr}
 80023b2:	b083      	sub	sp, #12
 80023b4:	9001      	str	r0, [sp, #4]
 80023b6:	9801      	ldr	r0, [sp, #4]
 80023b8:	f7ff ffdc 	bl	8002374 <NVIC_SetPriorityGrouping>
 80023bc:	b003      	add	sp, #12
 80023be:	f85d fb04 	ldr.w	pc, [sp], #4
 80023c2:	bf00      	nop

080023c4 <HAL_GPIO_Init>:
 80023c4:	b086      	sub	sp, #24
 80023c6:	9001      	str	r0, [sp, #4]
 80023c8:	9100      	str	r1, [sp, #0]
 80023ca:	2300      	movs	r3, #0
 80023cc:	9303      	str	r3, [sp, #12]
 80023ce:	2300      	movs	r3, #0
 80023d0:	9302      	str	r3, [sp, #8]
 80023d2:	2300      	movs	r3, #0
 80023d4:	9304      	str	r3, [sp, #16]
 80023d6:	2300      	movs	r3, #0
 80023d8:	9305      	str	r3, [sp, #20]
 80023da:	e16b      	b.n	80026b4 <HAL_GPIO_Init+0x2f0>
 80023dc:	9b05      	ldr	r3, [sp, #20]
 80023de:	2201      	movs	r2, #1
 80023e0:	fa02 f303 	lsl.w	r3, r2, r3
 80023e4:	9303      	str	r3, [sp, #12]
 80023e6:	9b00      	ldr	r3, [sp, #0]
 80023e8:	681a      	ldr	r2, [r3, #0]
 80023ea:	9b03      	ldr	r3, [sp, #12]
 80023ec:	4013      	ands	r3, r2
 80023ee:	9302      	str	r3, [sp, #8]
 80023f0:	9a02      	ldr	r2, [sp, #8]
 80023f2:	9b03      	ldr	r3, [sp, #12]
 80023f4:	429a      	cmp	r2, r3
 80023f6:	f040 815a 	bne.w	80026ae <HAL_GPIO_Init+0x2ea>
 80023fa:	9b00      	ldr	r3, [sp, #0]
 80023fc:	685b      	ldr	r3, [r3, #4]
 80023fe:	2b02      	cmp	r3, #2
 8002400:	d003      	beq.n	800240a <HAL_GPIO_Init+0x46>
 8002402:	9b00      	ldr	r3, [sp, #0]
 8002404:	685b      	ldr	r3, [r3, #4]
 8002406:	2b12      	cmp	r3, #18
 8002408:	d122      	bne.n	8002450 <HAL_GPIO_Init+0x8c>
 800240a:	9b05      	ldr	r3, [sp, #20]
 800240c:	08da      	lsrs	r2, r3, #3
 800240e:	9b01      	ldr	r3, [sp, #4]
 8002410:	3208      	adds	r2, #8
 8002412:	f853 3022 	ldr.w	r3, [r3, r2, lsl #2]
 8002416:	9304      	str	r3, [sp, #16]
 8002418:	9b05      	ldr	r3, [sp, #20]
 800241a:	f003 0307 	and.w	r3, r3, #7
 800241e:	009b      	lsls	r3, r3, #2
 8002420:	461a      	mov	r2, r3
 8002422:	230f      	movs	r3, #15
 8002424:	4093      	lsls	r3, r2
 8002426:	43db      	mvns	r3, r3
 8002428:	9a04      	ldr	r2, [sp, #16]
 800242a:	4013      	ands	r3, r2
 800242c:	9304      	str	r3, [sp, #16]
 800242e:	9b00      	ldr	r3, [sp, #0]
 8002430:	691b      	ldr	r3, [r3, #16]
 8002432:	9a05      	ldr	r2, [sp, #20]
 8002434:	f002 0207 	and.w	r2, r2, #7
 8002438:	0092      	lsls	r2, r2, #2
 800243a:	4093      	lsls	r3, r2
 800243c:	9a04      	ldr	r2, [sp, #16]
 800243e:	4313      	orrs	r3, r2
 8002440:	9304      	str	r3, [sp, #16]
 8002442:	9b05      	ldr	r3, [sp, #20]
 8002444:	08da      	lsrs	r2, r3, #3
 8002446:	9b01      	ldr	r3, [sp, #4]
 8002448:	3208      	adds	r2, #8
 800244a:	9904      	ldr	r1, [sp, #16]
 800244c:	f843 1022 	str.w	r1, [r3, r2, lsl #2]
 8002450:	9b01      	ldr	r3, [sp, #4]
 8002452:	681b      	ldr	r3, [r3, #0]
 8002454:	9304      	str	r3, [sp, #16]
 8002456:	9b05      	ldr	r3, [sp, #20]
 8002458:	005b      	lsls	r3, r3, #1
 800245a:	461a      	mov	r2, r3
 800245c:	2303      	movs	r3, #3
 800245e:	4093      	lsls	r3, r2
 8002460:	43db      	mvns	r3, r3
 8002462:	9a04      	ldr	r2, [sp, #16]
 8002464:	4013      	ands	r3, r2
 8002466:	9304      	str	r3, [sp, #16]
 8002468:	9b00      	ldr	r3, [sp, #0]
 800246a:	685b      	ldr	r3, [r3, #4]
 800246c:	f003 0303 	and.w	r3, r3, #3
 8002470:	9a05      	ldr	r2, [sp, #20]
 8002472:	0052      	lsls	r2, r2, #1
 8002474:	4093      	lsls	r3, r2
 8002476:	9a04      	ldr	r2, [sp, #16]
 8002478:	4313      	orrs	r3, r2
 800247a:	9304      	str	r3, [sp, #16]
 800247c:	9b01      	ldr	r3, [sp, #4]
 800247e:	9a04      	ldr	r2, [sp, #16]
 8002480:	601a      	str	r2, [r3, #0]
 8002482:	9b00      	ldr	r3, [sp, #0]
 8002484:	685b      	ldr	r3, [r3, #4]
 8002486:	2b01      	cmp	r3, #1
 8002488:	d00b      	beq.n	80024a2 <HAL_GPIO_Init+0xde>
 800248a:	9b00      	ldr	r3, [sp, #0]
 800248c:	685b      	ldr	r3, [r3, #4]
 800248e:	2b02      	cmp	r3, #2
 8002490:	d007      	beq.n	80024a2 <HAL_GPIO_Init+0xde>
 8002492:	9b00      	ldr	r3, [sp, #0]
 8002494:	685b      	ldr	r3, [r3, #4]
 8002496:	2b11      	cmp	r3, #17
 8002498:	d003      	beq.n	80024a2 <HAL_GPIO_Init+0xde>
 800249a:	9b00      	ldr	r3, [sp, #0]
 800249c:	685b      	ldr	r3, [r3, #4]
 800249e:	2b12      	cmp	r3, #18
 80024a0:	d12f      	bne.n	8002502 <HAL_GPIO_Init+0x13e>
 80024a2:	9b01      	ldr	r3, [sp, #4]
 80024a4:	689b      	ldr	r3, [r3, #8]
 80024a6:	9304      	str	r3, [sp, #16]
 80024a8:	9b05      	ldr	r3, [sp, #20]
 80024aa:	005b      	lsls	r3, r3, #1
 80024ac:	461a      	mov	r2, r3
 80024ae:	2303      	movs	r3, #3
 80024b0:	4093      	lsls	r3, r2
 80024b2:	43db      	mvns	r3, r3
 80024b4:	9a04      	ldr	r2, [sp, #16]
 80024b6:	4013      	ands	r3, r2
 80024b8:	9304      	str	r3, [sp, #16]
 80024ba:	9b00      	ldr	r3, [sp, #0]
 80024bc:	68db      	ldr	r3, [r3, #12]
 80024be:	9a05      	ldr	r2, [sp, #20]
 80024c0:	0052      	lsls	r2, r2, #1
 80024c2:	4093      	lsls	r3, r2
 80024c4:	9a04      	ldr	r2, [sp, #16]
 80024c6:	4313      	orrs	r3, r2
 80024c8:	9304      	str	r3, [sp, #16]
 80024ca:	9b01      	ldr	r3, [sp, #4]
 80024cc:	9a04      	ldr	r2, [sp, #16]
 80024ce:	609a      	str	r2, [r3, #8]
 80024d0:	9b01      	ldr	r3, [sp, #4]
 80024d2:	685b      	ldr	r3, [r3, #4]
 80024d4:	9304      	str	r3, [sp, #16]
 80024d6:	9b05      	ldr	r3, [sp, #20]
 80024d8:	2201      	movs	r2, #1
 80024da:	fa02 f303 	lsl.w	r3, r2, r3
 80024de:	43db      	mvns	r3, r3
 80024e0:	9a04      	ldr	r2, [sp, #16]
 80024e2:	4013      	ands	r3, r2
 80024e4:	9304      	str	r3, [sp, #16]
 80024e6:	9b00      	ldr	r3, [sp, #0]
 80024e8:	685b      	ldr	r3, [r3, #4]
 80024ea:	f003 0310 	and.w	r3, r3, #16
 80024ee:	091a      	lsrs	r2, r3, #4
 80024f0:	9b05      	ldr	r3, [sp, #20]
 80024f2:	fa02 f303 	lsl.w	r3, r2, r3
 80024f6:	9a04      	ldr	r2, [sp, #16]
 80024f8:	4313      	orrs	r3, r2
 80024fa:	9304      	str	r3, [sp, #16]
 80024fc:	9b01      	ldr	r3, [sp, #4]
 80024fe:	9a04      	ldr	r2, [sp, #16]
 8002500:	605a      	str	r2, [r3, #4]
 8002502:	9b01      	ldr	r3, [sp, #4]
 8002504:	68db      	ldr	r3, [r3, #12]
 8002506:	9304      	str	r3, [sp, #16]
 8002508:	9b05      	ldr	r3, [sp, #20]
 800250a:	005b      	lsls	r3, r3, #1
 800250c:	461a      	mov	r2, r3
 800250e:	2303      	movs	r3, #3
 8002510:	4093      	lsls	r3, r2
 8002512:	43db      	mvns	r3, r3
 8002514:	9a04      	ldr	r2, [sp, #16]
 8002516:	4013      	ands	r3, r2
 8002518:	9304      	str	r3, [sp, #16]
 800251a:	9b00      	ldr	r3, [sp, #0]
 800251c:	689b      	ldr	r3, [r3, #8]
 800251e:	9a05      	ldr	r2, [sp, #20]
 8002520:	0052      	lsls	r2, r2, #1
 8002522:	4093      	lsls	r3, r2
 8002524:	9a04      	ldr	r2, [sp, #16]
 8002526:	4313      	orrs	r3, r2
 8002528:	9304      	str	r3, [sp, #16]
 800252a:	9b01      	ldr	r3, [sp, #4]
 800252c:	9a04      	ldr	r2, [sp, #16]
 800252e:	60da      	str	r2, [r3, #12]
 8002530:	9b00      	ldr	r3, [sp, #0]
 8002532:	685b      	ldr	r3, [r3, #4]
 8002534:	f003 5380 	and.w	r3, r3, #268435456	; 0x10000000
 8002538:	2b00      	cmp	r3, #0
 800253a:	f000 80b8 	beq.w	80026ae <HAL_GPIO_Init+0x2ea>
 800253e:	4a60      	ldr	r2, [pc, #384]	; (80026c0 <HAL_GPIO_Init+0x2fc>)
 8002540:	4b5f      	ldr	r3, [pc, #380]	; (80026c0 <HAL_GPIO_Init+0x2fc>)
 8002542:	6c5b      	ldr	r3, [r3, #68]	; 0x44
 8002544:	f443 4380 	orr.w	r3, r3, #16384	; 0x4000
 8002548:	6453      	str	r3, [r2, #68]	; 0x44
 800254a:	4a5e      	ldr	r2, [pc, #376]	; (80026c4 <HAL_GPIO_Init+0x300>)
 800254c:	9b05      	ldr	r3, [sp, #20]
 800254e:	089b      	lsrs	r3, r3, #2
 8002550:	3302      	adds	r3, #2
 8002552:	f852 3023 	ldr.w	r3, [r2, r3, lsl #2]
 8002556:	9304      	str	r3, [sp, #16]
 8002558:	9b05      	ldr	r3, [sp, #20]
 800255a:	f003 0303 	and.w	r3, r3, #3
 800255e:	009b      	lsls	r3, r3, #2
 8002560:	461a      	mov	r2, r3
 8002562:	230f      	movs	r3, #15
 8002564:	4093      	lsls	r3, r2
 8002566:	43db      	mvns	r3, r3
 8002568:	9a04      	ldr	r2, [sp, #16]
 800256a:	4013      	ands	r3, r2
 800256c:	9304      	str	r3, [sp, #16]
 800256e:	9b01      	ldr	r3, [sp, #4]
 8002570:	4a55      	ldr	r2, [pc, #340]	; (80026c8 <HAL_GPIO_Init+0x304>)
 8002572:	4293      	cmp	r3, r2
 8002574:	d037      	beq.n	80025e6 <HAL_GPIO_Init+0x222>
 8002576:	9b01      	ldr	r3, [sp, #4]
 8002578:	4a54      	ldr	r2, [pc, #336]	; (80026cc <HAL_GPIO_Init+0x308>)
 800257a:	4293      	cmp	r3, r2
 800257c:	d031      	beq.n	80025e2 <HAL_GPIO_Init+0x21e>
 800257e:	9b01      	ldr	r3, [sp, #4]
 8002580:	4a53      	ldr	r2, [pc, #332]	; (80026d0 <HAL_GPIO_Init+0x30c>)
 8002582:	4293      	cmp	r3, r2
 8002584:	d02b      	beq.n	80025de <HAL_GPIO_Init+0x21a>
 8002586:	9b01      	ldr	r3, [sp, #4]
 8002588:	4a52      	ldr	r2, [pc, #328]	; (80026d4 <HAL_GPIO_Init+0x310>)
 800258a:	4293      	cmp	r3, r2
 800258c:	d025      	beq.n	80025da <HAL_GPIO_Init+0x216>
 800258e:	9b01      	ldr	r3, [sp, #4]
 8002590:	4a51      	ldr	r2, [pc, #324]	; (80026d8 <HAL_GPIO_Init+0x314>)
 8002592:	4293      	cmp	r3, r2
 8002594:	d01f      	beq.n	80025d6 <HAL_GPIO_Init+0x212>
 8002596:	9b01      	ldr	r3, [sp, #4]
 8002598:	4a50      	ldr	r2, [pc, #320]	; (80026dc <HAL_GPIO_Init+0x318>)
 800259a:	4293      	cmp	r3, r2
 800259c:	d019      	beq.n	80025d2 <HAL_GPIO_Init+0x20e>
 800259e:	9b01      	ldr	r3, [sp, #4]
 80025a0:	4a4f      	ldr	r2, [pc, #316]	; (80026e0 <HAL_GPIO_Init+0x31c>)
 80025a2:	4293      	cmp	r3, r2
 80025a4:	d013      	beq.n	80025ce <HAL_GPIO_Init+0x20a>
 80025a6:	9b01      	ldr	r3, [sp, #4]
 80025a8:	4a4e      	ldr	r2, [pc, #312]	; (80026e4 <HAL_GPIO_Init+0x320>)
 80025aa:	4293      	cmp	r3, r2
 80025ac:	d00d      	beq.n	80025ca <HAL_GPIO_Init+0x206>
 80025ae:	9b01      	ldr	r3, [sp, #4]
 80025b0:	4a4d      	ldr	r2, [pc, #308]	; (80026e8 <HAL_GPIO_Init+0x324>)
 80025b2:	4293      	cmp	r3, r2
 80025b4:	d007      	beq.n	80025c6 <HAL_GPIO_Init+0x202>
 80025b6:	9b01      	ldr	r3, [sp, #4]
 80025b8:	4a4c      	ldr	r2, [pc, #304]	; (80026ec <HAL_GPIO_Init+0x328>)
 80025ba:	4293      	cmp	r3, r2
 80025bc:	d101      	bne.n	80025c2 <HAL_GPIO_Init+0x1fe>
 80025be:	2309      	movs	r3, #9
 80025c0:	e012      	b.n	80025e8 <HAL_GPIO_Init+0x224>
 80025c2:	230a      	movs	r3, #10
 80025c4:	e010      	b.n	80025e8 <HAL_GPIO_Init+0x224>
 80025c6:	2308      	movs	r3, #8
 80025c8:	e00e      	b.n	80025e8 <HAL_GPIO_Init+0x224>
 80025ca:	2307      	movs	r3, #7
 80025cc:	e00c      	b.n	80025e8 <HAL_GPIO_Init+0x224>
 80025ce:	2306      	movs	r3, #6
 80025d0:	e00a      	b.n	80025e8 <HAL_GPIO_Init+0x224>
 80025d2:	2305      	movs	r3, #5
 80025d4:	e008      	b.n	80025e8 <HAL_GPIO_Init+0x224>
 80025d6:	2304      	movs	r3, #4
 80025d8:	e006      	b.n	80025e8 <HAL_GPIO_Init+0x224>
 80025da:	2303      	movs	r3, #3
 80025dc:	e004      	b.n	80025e8 <HAL_GPIO_Init+0x224>
 80025de:	2302      	movs	r3, #2
 80025e0:	e002      	b.n	80025e8 <HAL_GPIO_Init+0x224>
 80025e2:	2301      	movs	r3, #1
 80025e4:	e000      	b.n	80025e8 <HAL_GPIO_Init+0x224>
 80025e6:	2300      	movs	r3, #0
 80025e8:	9a05      	ldr	r2, [sp, #20]
 80025ea:	f002 0203 	and.w	r2, r2, #3
 80025ee:	0092      	lsls	r2, r2, #2
 80025f0:	4093      	lsls	r3, r2
 80025f2:	9a04      	ldr	r2, [sp, #16]
 80025f4:	4313      	orrs	r3, r2
 80025f6:	9304      	str	r3, [sp, #16]
 80025f8:	4932      	ldr	r1, [pc, #200]	; (80026c4 <HAL_GPIO_Init+0x300>)
 80025fa:	9b05      	ldr	r3, [sp, #20]
 80025fc:	089b      	lsrs	r3, r3, #2
 80025fe:	3302      	adds	r3, #2
 8002600:	9a04      	ldr	r2, [sp, #16]
 8002602:	f841 2023 	str.w	r2, [r1, r3, lsl #2]
 8002606:	4b3a      	ldr	r3, [pc, #232]	; (80026f0 <HAL_GPIO_Init+0x32c>)
 8002608:	681b      	ldr	r3, [r3, #0]
 800260a:	9304      	str	r3, [sp, #16]
 800260c:	9b02      	ldr	r3, [sp, #8]
 800260e:	43db      	mvns	r3, r3
 8002610:	9a04      	ldr	r2, [sp, #16]
 8002612:	4013      	ands	r3, r2
 8002614:	9304      	str	r3, [sp, #16]
 8002616:	9b00      	ldr	r3, [sp, #0]
 8002618:	685b      	ldr	r3, [r3, #4]
 800261a:	f403 3380 	and.w	r3, r3, #65536	; 0x10000
 800261e:	2b00      	cmp	r3, #0
 8002620:	d003      	beq.n	800262a <HAL_GPIO_Init+0x266>
 8002622:	9a04      	ldr	r2, [sp, #16]
 8002624:	9b02      	ldr	r3, [sp, #8]
 8002626:	4313      	orrs	r3, r2
 8002628:	9304      	str	r3, [sp, #16]
 800262a:	4a31      	ldr	r2, [pc, #196]	; (80026f0 <HAL_GPIO_Init+0x32c>)
 800262c:	9b04      	ldr	r3, [sp, #16]
 800262e:	6013      	str	r3, [r2, #0]
 8002630:	4b2f      	ldr	r3, [pc, #188]	; (80026f0 <HAL_GPIO_Init+0x32c>)
 8002632:	685b      	ldr	r3, [r3, #4]
 8002634:	9304      	str	r3, [sp, #16]
 8002636:	9b02      	ldr	r3, [sp, #8]
 8002638:	43db      	mvns	r3, r3
 800263a:	9a04      	ldr	r2, [sp, #16]
 800263c:	4013      	ands	r3, r2
 800263e:	9304      	str	r3, [sp, #16]
 8002640:	9b00      	ldr	r3, [sp, #0]
 8002642:	685b      	ldr	r3, [r3, #4]
 8002644:	f403 3300 	and.w	r3, r3, #131072	; 0x20000
 8002648:	2b00      	cmp	r3, #0
 800264a:	d003      	beq.n	8002654 <HAL_GPIO_Init+0x290>
 800264c:	9a04      	ldr	r2, [sp, #16]
 800264e:	9b02      	ldr	r3, [sp, #8]
 8002650:	4313      	orrs	r3, r2
 8002652:	9304      	str	r3, [sp, #16]
 8002654:	4a26      	ldr	r2, [pc, #152]	; (80026f0 <HAL_GPIO_Init+0x32c>)
 8002656:	9b04      	ldr	r3, [sp, #16]
 8002658:	6053      	str	r3, [r2, #4]
 800265a:	4b25      	ldr	r3, [pc, #148]	; (80026f0 <HAL_GPIO_Init+0x32c>)
 800265c:	689b      	ldr	r3, [r3, #8]
 800265e:	9304      	str	r3, [sp, #16]
 8002660:	9b02      	ldr	r3, [sp, #8]
 8002662:	43db      	mvns	r3, r3
 8002664:	9a04      	ldr	r2, [sp, #16]
 8002666:	4013      	ands	r3, r2
 8002668:	9304      	str	r3, [sp, #16]
 800266a:	9b00      	ldr	r3, [sp, #0]
 800266c:	685b      	ldr	r3, [r3, #4]
 800266e:	f403 1380 	and.w	r3, r3, #1048576	; 0x100000
 8002672:	2b00      	cmp	r3, #0
 8002674:	d003      	beq.n	800267e <HAL_GPIO_Init+0x2ba>
 8002676:	9a04      	ldr	r2, [sp, #16]
 8002678:	9b02      	ldr	r3, [sp, #8]
 800267a:	4313      	orrs	r3, r2
 800267c:	9304      	str	r3, [sp, #16]
 800267e:	4a1c      	ldr	r2, [pc, #112]	; (80026f0 <HAL_GPIO_Init+0x32c>)
 8002680:	9b04      	ldr	r3, [sp, #16]
 8002682:	6093      	str	r3, [r2, #8]
 8002684:	4b1a      	ldr	r3, [pc, #104]	; (80026f0 <HAL_GPIO_Init+0x32c>)
 8002686:	68db      	ldr	r3, [r3, #12]
 8002688:	9304      	str	r3, [sp, #16]
 800268a:	9b02      	ldr	r3, [sp, #8]
 800268c:	43db      	mvns	r3, r3
 800268e:	9a04      	ldr	r2, [sp, #16]
 8002690:	4013      	ands	r3, r2
 8002692:	9304      	str	r3, [sp, #16]
 8002694:	9b00      	ldr	r3, [sp, #0]
 8002696:	685b      	ldr	r3, [r3, #4]
 8002698:	f403 1300 	and.w	r3, r3, #2097152	; 0x200000
 800269c:	2b00      	cmp	r3, #0
 800269e:	d003      	beq.n	80026a8 <HAL_GPIO_Init+0x2e4>
 80026a0:	9a04      	ldr	r2, [sp, #16]
 80026a2:	9b02      	ldr	r3, [sp, #8]
 80026a4:	4313      	orrs	r3, r2
 80026a6:	9304      	str	r3, [sp, #16]
 80026a8:	4a11      	ldr	r2, [pc, #68]	; (80026f0 <HAL_GPIO_Init+0x32c>)
 80026aa:	9b04      	ldr	r3, [sp, #16]
 80026ac:	60d3      	str	r3, [r2, #12]
 80026ae:	9b05      	ldr	r3, [sp, #20]
 80026b0:	3301      	adds	r3, #1
 80026b2:	9305      	str	r3, [sp, #20]
 80026b4:	9b05      	ldr	r3, [sp, #20]
 80026b6:	2b0f      	cmp	r3, #15
 80026b8:	f67f ae90 	bls.w	80023dc <HAL_GPIO_Init+0x18>
 80026bc:	b006      	add	sp, #24
 80026be:	4770      	bx	lr
 80026c0:	40023800 	.word	0x40023800
 80026c4:	40013800 	.word	0x40013800
 80026c8:	40020000 	.word	0x40020000
 80026cc:	40020400 	.word	0x40020400
 80026d0:	40020800 	.word	0x40020800
 80026d4:	40020c00 	.word	0x40020c00
 80026d8:	40021000 	.word	0x40021000
 80026dc:	40021400 	.word	0x40021400
 80026e0:	40021800 	.word	0x40021800
 80026e4:	40021c00 	.word	0x40021c00
 80026e8:	40022000 	.word	0x40022000
 80026ec:	40022400 	.word	0x40022400
 80026f0:	40013c00 	.word	0x40013c00

080026f4 <HAL_RCC_OscConfig>:
 80026f4:	b500      	push	{lr}
 80026f6:	b099      	sub	sp, #100	; 0x64
 80026f8:	9001      	str	r0, [sp, #4]
 80026fa:	2300      	movs	r3, #0
 80026fc:	9317      	str	r3, [sp, #92]	; 0x5c
 80026fe:	9b01      	ldr	r3, [sp, #4]
 8002700:	681b      	ldr	r3, [r3, #0]
 8002702:	f003 0301 	and.w	r3, r3, #1
 8002706:	2b00      	cmp	r3, #0
 8002708:	d067      	beq.n	80027da <HAL_RCC_OscConfig+0xe6>
 800270a:	4ba2      	ldr	r3, [pc, #648]	; (8002994 <HAL_RCC_OscConfig+0x2a0>)
 800270c:	689b      	ldr	r3, [r3, #8]
 800270e:	f003 030c 	and.w	r3, r3, #12
 8002712:	2b04      	cmp	r3, #4
 8002714:	d00b      	beq.n	800272e <HAL_RCC_OscConfig+0x3a>
 8002716:	4b9f      	ldr	r3, [pc, #636]	; (8002994 <HAL_RCC_OscConfig+0x2a0>)
 8002718:	689b      	ldr	r3, [r3, #8]
 800271a:	f003 030c 	and.w	r3, r3, #12
 800271e:	2b08      	cmp	r3, #8
 8002720:	d112      	bne.n	8002748 <HAL_RCC_OscConfig+0x54>
 8002722:	4b9c      	ldr	r3, [pc, #624]	; (8002994 <HAL_RCC_OscConfig+0x2a0>)
 8002724:	685b      	ldr	r3, [r3, #4]
 8002726:	f403 0380 	and.w	r3, r3, #4194304	; 0x400000
 800272a:	2b00      	cmp	r3, #0
 800272c:	d00c      	beq.n	8002748 <HAL_RCC_OscConfig+0x54>
 800272e:	4b99      	ldr	r3, [pc, #612]	; (8002994 <HAL_RCC_OscConfig+0x2a0>)
 8002730:	681b      	ldr	r3, [r3, #0]
 8002732:	f403 3300 	and.w	r3, r3, #131072	; 0x20000
 8002736:	2b00      	cmp	r3, #0
 8002738:	d005      	beq.n	8002746 <HAL_RCC_OscConfig+0x52>
 800273a:	9b01      	ldr	r3, [sp, #4]
 800273c:	685b      	ldr	r3, [r3, #4]
 800273e:	2b01      	cmp	r3, #1
 8002740:	d001      	beq.n	8002746 <HAL_RCC_OscConfig+0x52>
 8002742:	2301      	movs	r3, #1
 8002744:	e21a      	b.n	8002b7c <HAL_RCC_OscConfig+0x488>
 8002746:	e048      	b.n	80027da <HAL_RCC_OscConfig+0xe6>
 8002748:	4b93      	ldr	r3, [pc, #588]	; (8002998 <HAL_RCC_OscConfig+0x2a4>)
 800274a:	2200      	movs	r2, #0
 800274c:	701a      	strb	r2, [r3, #0]
 800274e:	f7ff fe0b 	bl	8002368 <HAL_GetTick>
 8002752:	9017      	str	r0, [sp, #92]	; 0x5c
 8002754:	e009      	b.n	800276a <HAL_RCC_OscConfig+0x76>
 8002756:	f7ff fe07 	bl	8002368 <HAL_GetTick>
 800275a:	4602      	mov	r2, r0
 800275c:	9b17      	ldr	r3, [sp, #92]	; 0x5c
 800275e:	1ad3      	subs	r3, r2, r3
 8002760:	f5b3 7ffa 	cmp.w	r3, #500	; 0x1f4
 8002764:	d901      	bls.n	800276a <HAL_RCC_OscConfig+0x76>
 8002766:	2303      	movs	r3, #3
 8002768:	e208      	b.n	8002b7c <HAL_RCC_OscConfig+0x488>
 800276a:	4b8a      	ldr	r3, [pc, #552]	; (8002994 <HAL_RCC_OscConfig+0x2a0>)
 800276c:	681b      	ldr	r3, [r3, #0]
 800276e:	f403 3300 	and.w	r3, r3, #131072	; 0x20000
 8002772:	2b00      	cmp	r3, #0
 8002774:	d1ef      	bne.n	8002756 <HAL_RCC_OscConfig+0x62>
 8002776:	4a88      	ldr	r2, [pc, #544]	; (8002998 <HAL_RCC_OscConfig+0x2a4>)
 8002778:	9b01      	ldr	r3, [sp, #4]
 800277a:	685b      	ldr	r3, [r3, #4]
 800277c:	b2db      	uxtb	r3, r3
 800277e:	7013      	strb	r3, [r2, #0]
 8002780:	9b01      	ldr	r3, [sp, #4]
 8002782:	685b      	ldr	r3, [r3, #4]
 8002784:	2b01      	cmp	r3, #1
 8002786:	d114      	bne.n	80027b2 <HAL_RCC_OscConfig+0xbe>
 8002788:	f7ff fdee 	bl	8002368 <HAL_GetTick>
 800278c:	9017      	str	r0, [sp, #92]	; 0x5c
 800278e:	e009      	b.n	80027a4 <HAL_RCC_OscConfig+0xb0>
 8002790:	f7ff fdea 	bl	8002368 <HAL_GetTick>
 8002794:	4602      	mov	r2, r0
 8002796:	9b17      	ldr	r3, [sp, #92]	; 0x5c
 8002798:	1ad3      	subs	r3, r2, r3
 800279a:	f5b3 7ffa 	cmp.w	r3, #500	; 0x1f4
 800279e:	d901      	bls.n	80027a4 <HAL_RCC_OscConfig+0xb0>
 80027a0:	2303      	movs	r3, #3
 80027a2:	e1eb      	b.n	8002b7c <HAL_RCC_OscConfig+0x488>
 80027a4:	4b7b      	ldr	r3, [pc, #492]	; (8002994 <HAL_RCC_OscConfig+0x2a0>)
 80027a6:	681b      	ldr	r3, [r3, #0]
 80027a8:	f403 3300 	and.w	r3, r3, #131072	; 0x20000
 80027ac:	2b00      	cmp	r3, #0
 80027ae:	d0ef      	beq.n	8002790 <HAL_RCC_OscConfig+0x9c>
 80027b0:	e013      	b.n	80027da <HAL_RCC_OscConfig+0xe6>
 80027b2:	f7ff fdd9 	bl	8002368 <HAL_GetTick>
 80027b6:	9017      	str	r0, [sp, #92]	; 0x5c
 80027b8:	e009      	b.n	80027ce <HAL_RCC_OscConfig+0xda>
 80027ba:	f7ff fdd5 	bl	8002368 <HAL_GetTick>
 80027be:	4602      	mov	r2, r0
 80027c0:	9b17      	ldr	r3, [sp, #92]	; 0x5c
 80027c2:	1ad3      	subs	r3, r2, r3
 80027c4:	f5b3 7ffa 	cmp.w	r3, #500	; 0x1f4
 80027c8:	d901      	bls.n	80027ce <HAL_RCC_OscConfig+0xda>
 80027ca:	2303      	movs	r3, #3
 80027cc:	e1d6      	b.n	8002b7c <HAL_RCC_OscConfig+0x488>
 80027ce:	4b71      	ldr	r3, [pc, #452]	; (8002994 <HAL_RCC_OscConfig+0x2a0>)
 80027d0:	681b      	ldr	r3, [r3, #0]
 80027d2:	f403 3300 	and.w	r3, r3, #131072	; 0x20000
 80027d6:	2b00      	cmp	r3, #0
 80027d8:	d1ef      	bne.n	80027ba <HAL_RCC_OscConfig+0xc6>
 80027da:	9b01      	ldr	r3, [sp, #4]
 80027dc:	681b      	ldr	r3, [r3, #0]
 80027de:	f003 0302 	and.w	r3, r3, #2
 80027e2:	2b00      	cmp	r3, #0
 80027e4:	d07f      	beq.n	80028e6 <HAL_RCC_OscConfig+0x1f2>
 80027e6:	4b6b      	ldr	r3, [pc, #428]	; (8002994 <HAL_RCC_OscConfig+0x2a0>)
 80027e8:	689b      	ldr	r3, [r3, #8]
 80027ea:	f003 030c 	and.w	r3, r3, #12
 80027ee:	2b00      	cmp	r3, #0
 80027f0:	d00b      	beq.n	800280a <HAL_RCC_OscConfig+0x116>
 80027f2:	4b68      	ldr	r3, [pc, #416]	; (8002994 <HAL_RCC_OscConfig+0x2a0>)
 80027f4:	689b      	ldr	r3, [r3, #8]
 80027f6:	f003 030c 	and.w	r3, r3, #12
 80027fa:	2b08      	cmp	r3, #8
 80027fc:	d12a      	bne.n	8002854 <HAL_RCC_OscConfig+0x160>
 80027fe:	4b65      	ldr	r3, [pc, #404]	; (8002994 <HAL_RCC_OscConfig+0x2a0>)
 8002800:	685b      	ldr	r3, [r3, #4]
 8002802:	f403 0380 	and.w	r3, r3, #4194304	; 0x400000
 8002806:	2b00      	cmp	r3, #0
 8002808:	d124      	bne.n	8002854 <HAL_RCC_OscConfig+0x160>
 800280a:	4b62      	ldr	r3, [pc, #392]	; (8002994 <HAL_RCC_OscConfig+0x2a0>)
 800280c:	681b      	ldr	r3, [r3, #0]
 800280e:	f003 0302 	and.w	r3, r3, #2
 8002812:	2b00      	cmp	r3, #0
 8002814:	d005      	beq.n	8002822 <HAL_RCC_OscConfig+0x12e>
 8002816:	9b01      	ldr	r3, [sp, #4]
 8002818:	68db      	ldr	r3, [r3, #12]
 800281a:	2b01      	cmp	r3, #1
 800281c:	d001      	beq.n	8002822 <HAL_RCC_OscConfig+0x12e>
 800281e:	2301      	movs	r3, #1
 8002820:	e1ac      	b.n	8002b7c <HAL_RCC_OscConfig+0x488>
 8002822:	485c      	ldr	r0, [pc, #368]	; (8002994 <HAL_RCC_OscConfig+0x2a0>)
 8002824:	4b5b      	ldr	r3, [pc, #364]	; (8002994 <HAL_RCC_OscConfig+0x2a0>)
 8002826:	681b      	ldr	r3, [r3, #0]
 8002828:	f023 02f8 	bic.w	r2, r3, #248	; 0xf8
 800282c:	9b01      	ldr	r3, [sp, #4]
 800282e:	691b      	ldr	r3, [r3, #16]
 8002830:	21f8      	movs	r1, #248	; 0xf8
 8002832:	9116      	str	r1, [sp, #88]	; 0x58
 8002834:	9916      	ldr	r1, [sp, #88]	; 0x58
 8002836:	fa91 f1a1 	rbit	r1, r1
 800283a:	9115      	str	r1, [sp, #84]	; 0x54
 800283c:	9915      	ldr	r1, [sp, #84]	; 0x54
 800283e:	9114      	str	r1, [sp, #80]	; 0x50
 8002840:	9914      	ldr	r1, [sp, #80]	; 0x50
 8002842:	fab1 f181 	clz	r1, r1
 8002846:	9113      	str	r1, [sp, #76]	; 0x4c
 8002848:	9913      	ldr	r1, [sp, #76]	; 0x4c
 800284a:	b2c9      	uxtb	r1, r1
 800284c:	408b      	lsls	r3, r1
 800284e:	4313      	orrs	r3, r2
 8002850:	6003      	str	r3, [r0, #0]
 8002852:	e048      	b.n	80028e6 <HAL_RCC_OscConfig+0x1f2>
 8002854:	9b01      	ldr	r3, [sp, #4]
 8002856:	68db      	ldr	r3, [r3, #12]
 8002858:	2b00      	cmp	r3, #0
 800285a:	d02e      	beq.n	80028ba <HAL_RCC_OscConfig+0x1c6>
 800285c:	4b4f      	ldr	r3, [pc, #316]	; (800299c <HAL_RCC_OscConfig+0x2a8>)
 800285e:	2201      	movs	r2, #1
 8002860:	601a      	str	r2, [r3, #0]
 8002862:	f7ff fd81 	bl	8002368 <HAL_GetTick>
 8002866:	9017      	str	r0, [sp, #92]	; 0x5c
 8002868:	e008      	b.n	800287c <HAL_RCC_OscConfig+0x188>
 800286a:	f7ff fd7d 	bl	8002368 <HAL_GetTick>
 800286e:	4602      	mov	r2, r0
 8002870:	9b17      	ldr	r3, [sp, #92]	; 0x5c
 8002872:	1ad3      	subs	r3, r2, r3
 8002874:	2b64      	cmp	r3, #100	; 0x64
 8002876:	d901      	bls.n	800287c <HAL_RCC_OscConfig+0x188>
 8002878:	2303      	movs	r3, #3
 800287a:	e17f      	b.n	8002b7c <HAL_RCC_OscConfig+0x488>
 800287c:	4b45      	ldr	r3, [pc, #276]	; (8002994 <HAL_RCC_OscConfig+0x2a0>)
 800287e:	681b      	ldr	r3, [r3, #0]
 8002880:	f003 0302 	and.w	r3, r3, #2
 8002884:	2b00      	cmp	r3, #0
 8002886:	d0f0      	beq.n	800286a <HAL_RCC_OscConfig+0x176>
 8002888:	4842      	ldr	r0, [pc, #264]	; (8002994 <HAL_RCC_OscConfig+0x2a0>)
 800288a:	4b42      	ldr	r3, [pc, #264]	; (8002994 <HAL_RCC_OscConfig+0x2a0>)
 800288c:	681b      	ldr	r3, [r3, #0]
 800288e:	f023 02f8 	bic.w	r2, r3, #248	; 0xf8
 8002892:	9b01      	ldr	r3, [sp, #4]
 8002894:	691b      	ldr	r3, [r3, #16]
 8002896:	21f8      	movs	r1, #248	; 0xf8
 8002898:	9112      	str	r1, [sp, #72]	; 0x48
 800289a:	9912      	ldr	r1, [sp, #72]	; 0x48
 800289c:	fa91 f1a1 	rbit	r1, r1
 80028a0:	9111      	str	r1, [sp, #68]	; 0x44
 80028a2:	9911      	ldr	r1, [sp, #68]	; 0x44
 80028a4:	9110      	str	r1, [sp, #64]	; 0x40
 80028a6:	9910      	ldr	r1, [sp, #64]	; 0x40
 80028a8:	fab1 f181 	clz	r1, r1
 80028ac:	910f      	str	r1, [sp, #60]	; 0x3c
 80028ae:	990f      	ldr	r1, [sp, #60]	; 0x3c
 80028b0:	b2c9      	uxtb	r1, r1
 80028b2:	408b      	lsls	r3, r1
 80028b4:	4313      	orrs	r3, r2
 80028b6:	6003      	str	r3, [r0, #0]
 80028b8:	e015      	b.n	80028e6 <HAL_RCC_OscConfig+0x1f2>
 80028ba:	4b38      	ldr	r3, [pc, #224]	; (800299c <HAL_RCC_OscConfig+0x2a8>)
 80028bc:	2200      	movs	r2, #0
 80028be:	601a      	str	r2, [r3, #0]
 80028c0:	f7ff fd52 	bl	8002368 <HAL_GetTick>
 80028c4:	9017      	str	r0, [sp, #92]	; 0x5c
 80028c6:	e008      	b.n	80028da <HAL_RCC_OscConfig+0x1e6>
 80028c8:	f7ff fd4e 	bl	8002368 <HAL_GetTick>
 80028cc:	4602      	mov	r2, r0
 80028ce:	9b17      	ldr	r3, [sp, #92]	; 0x5c
 80028d0:	1ad3      	subs	r3, r2, r3
 80028d2:	2b64      	cmp	r3, #100	; 0x64
 80028d4:	d901      	bls.n	80028da <HAL_RCC_OscConfig+0x1e6>
 80028d6:	2303      	movs	r3, #3
 80028d8:	e150      	b.n	8002b7c <HAL_RCC_OscConfig+0x488>
 80028da:	4b2e      	ldr	r3, [pc, #184]	; (8002994 <HAL_RCC_OscConfig+0x2a0>)
 80028dc:	681b      	ldr	r3, [r3, #0]
 80028de:	f003 0302 	and.w	r3, r3, #2
 80028e2:	2b00      	cmp	r3, #0
 80028e4:	d1f0      	bne.n	80028c8 <HAL_RCC_OscConfig+0x1d4>
 80028e6:	9b01      	ldr	r3, [sp, #4]
 80028e8:	681b      	ldr	r3, [r3, #0]
 80028ea:	f003 0308 	and.w	r3, r3, #8
 80028ee:	2b00      	cmp	r3, #0
 80028f0:	d030      	beq.n	8002954 <HAL_RCC_OscConfig+0x260>
 80028f2:	9b01      	ldr	r3, [sp, #4]
 80028f4:	695b      	ldr	r3, [r3, #20]
 80028f6:	2b00      	cmp	r3, #0
 80028f8:	d016      	beq.n	8002928 <HAL_RCC_OscConfig+0x234>
 80028fa:	4b29      	ldr	r3, [pc, #164]	; (80029a0 <HAL_RCC_OscConfig+0x2ac>)
 80028fc:	2201      	movs	r2, #1
 80028fe:	601a      	str	r2, [r3, #0]
 8002900:	f7ff fd32 	bl	8002368 <HAL_GetTick>
 8002904:	9017      	str	r0, [sp, #92]	; 0x5c
 8002906:	e008      	b.n	800291a <HAL_RCC_OscConfig+0x226>
 8002908:	f7ff fd2e 	bl	8002368 <HAL_GetTick>
 800290c:	4602      	mov	r2, r0
 800290e:	9b17      	ldr	r3, [sp, #92]	; 0x5c
 8002910:	1ad3      	subs	r3, r2, r3
 8002912:	2b64      	cmp	r3, #100	; 0x64
 8002914:	d901      	bls.n	800291a <HAL_RCC_OscConfig+0x226>
 8002916:	2303      	movs	r3, #3
 8002918:	e130      	b.n	8002b7c <HAL_RCC_OscConfig+0x488>
 800291a:	4b1e      	ldr	r3, [pc, #120]	; (8002994 <HAL_RCC_OscConfig+0x2a0>)
 800291c:	6f5b      	ldr	r3, [r3, #116]	; 0x74
 800291e:	f003 0302 	and.w	r3, r3, #2
 8002922:	2b00      	cmp	r3, #0
 8002924:	d0f0      	beq.n	8002908 <HAL_RCC_OscConfig+0x214>
 8002926:	e015      	b.n	8002954 <HAL_RCC_OscConfig+0x260>
 8002928:	4b1d      	ldr	r3, [pc, #116]	; (80029a0 <HAL_RCC_OscConfig+0x2ac>)
 800292a:	2200      	movs	r2, #0
 800292c:	601a      	str	r2, [r3, #0]
 800292e:	f7ff fd1b 	bl	8002368 <HAL_GetTick>
 8002932:	9017      	str	r0, [sp, #92]	; 0x5c
 8002934:	e008      	b.n	8002948 <HAL_RCC_OscConfig+0x254>
 8002936:	f7ff fd17 	bl	8002368 <HAL_GetTick>
 800293a:	4602      	mov	r2, r0
 800293c:	9b17      	ldr	r3, [sp, #92]	; 0x5c
 800293e:	1ad3      	subs	r3, r2, r3
 8002940:	2b64      	cmp	r3, #100	; 0x64
 8002942:	d901      	bls.n	8002948 <HAL_RCC_OscConfig+0x254>
 8002944:	2303      	movs	r3, #3
 8002946:	e119      	b.n	8002b7c <HAL_RCC_OscConfig+0x488>
 8002948:	4b12      	ldr	r3, [pc, #72]	; (8002994 <HAL_RCC_OscConfig+0x2a0>)
 800294a:	6f5b      	ldr	r3, [r3, #116]	; 0x74
 800294c:	f003 0302 	and.w	r3, r3, #2
 8002950:	2b00      	cmp	r3, #0
 8002952:	d1f0      	bne.n	8002936 <HAL_RCC_OscConfig+0x242>
 8002954:	9b01      	ldr	r3, [sp, #4]
 8002956:	681b      	ldr	r3, [r3, #0]
 8002958:	f003 0304 	and.w	r3, r3, #4
 800295c:	2b00      	cmp	r3, #0
 800295e:	d072      	beq.n	8002a46 <HAL_RCC_OscConfig+0x352>
 8002960:	4a0c      	ldr	r2, [pc, #48]	; (8002994 <HAL_RCC_OscConfig+0x2a0>)
 8002962:	4b0c      	ldr	r3, [pc, #48]	; (8002994 <HAL_RCC_OscConfig+0x2a0>)
 8002964:	6c1b      	ldr	r3, [r3, #64]	; 0x40
 8002966:	f043 5380 	orr.w	r3, r3, #268435456	; 0x10000000
 800296a:	6413      	str	r3, [r2, #64]	; 0x40
 800296c:	4a0d      	ldr	r2, [pc, #52]	; (80029a4 <HAL_RCC_OscConfig+0x2b0>)
 800296e:	4b0d      	ldr	r3, [pc, #52]	; (80029a4 <HAL_RCC_OscConfig+0x2b0>)
 8002970:	681b      	ldr	r3, [r3, #0]
 8002972:	f443 7380 	orr.w	r3, r3, #256	; 0x100
 8002976:	6013      	str	r3, [r2, #0]
 8002978:	f7ff fcf6 	bl	8002368 <HAL_GetTick>
 800297c:	9017      	str	r0, [sp, #92]	; 0x5c
 800297e:	e013      	b.n	80029a8 <HAL_RCC_OscConfig+0x2b4>
 8002980:	f7ff fcf2 	bl	8002368 <HAL_GetTick>
 8002984:	4602      	mov	r2, r0
 8002986:	9b17      	ldr	r3, [sp, #92]	; 0x5c
 8002988:	1ad3      	subs	r3, r2, r3
 800298a:	2b64      	cmp	r3, #100	; 0x64
 800298c:	d90c      	bls.n	80029a8 <HAL_RCC_OscConfig+0x2b4>
 800298e:	2303      	movs	r3, #3
 8002990:	e0f4      	b.n	8002b7c <HAL_RCC_OscConfig+0x488>
 8002992:	bf00      	nop
 8002994:	40023800 	.word	0x40023800
 8002998:	40023802 	.word	0x40023802
 800299c:	42470000 	.word	0x42470000
 80029a0:	42470e80 	.word	0x42470e80
 80029a4:	40007000 	.word	0x40007000
 80029a8:	4b76      	ldr	r3, [pc, #472]	; (8002b84 <HAL_RCC_OscConfig+0x490>)
 80029aa:	681b      	ldr	r3, [r3, #0]
 80029ac:	f403 7380 	and.w	r3, r3, #256	; 0x100
 80029b0:	2b00      	cmp	r3, #0
 80029b2:	d0e5      	beq.n	8002980 <HAL_RCC_OscConfig+0x28c>
 80029b4:	4b74      	ldr	r3, [pc, #464]	; (8002b88 <HAL_RCC_OscConfig+0x494>)
 80029b6:	2200      	movs	r2, #0
 80029b8:	701a      	strb	r2, [r3, #0]
 80029ba:	f7ff fcd5 	bl	8002368 <HAL_GetTick>
 80029be:	9017      	str	r0, [sp, #92]	; 0x5c
 80029c0:	e009      	b.n	80029d6 <HAL_RCC_OscConfig+0x2e2>
 80029c2:	f7ff fcd1 	bl	8002368 <HAL_GetTick>
 80029c6:	4602      	mov	r2, r0
 80029c8:	9b17      	ldr	r3, [sp, #92]	; 0x5c
 80029ca:	1ad3      	subs	r3, r2, r3
 80029cc:	f5b3 7f16 	cmp.w	r3, #600	; 0x258
 80029d0:	d901      	bls.n	80029d6 <HAL_RCC_OscConfig+0x2e2>
 80029d2:	2303      	movs	r3, #3
 80029d4:	e0d2      	b.n	8002b7c <HAL_RCC_OscConfig+0x488>
 80029d6:	4b6d      	ldr	r3, [pc, #436]	; (8002b8c <HAL_RCC_OscConfig+0x498>)
 80029d8:	6f1b      	ldr	r3, [r3, #112]	; 0x70
 80029da:	f003 0302 	and.w	r3, r3, #2
 80029de:	2b00      	cmp	r3, #0
 80029e0:	d1ef      	bne.n	80029c2 <HAL_RCC_OscConfig+0x2ce>
 80029e2:	4a69      	ldr	r2, [pc, #420]	; (8002b88 <HAL_RCC_OscConfig+0x494>)
 80029e4:	9b01      	ldr	r3, [sp, #4]
 80029e6:	689b      	ldr	r3, [r3, #8]
 80029e8:	b2db      	uxtb	r3, r3
 80029ea:	7013      	strb	r3, [r2, #0]
 80029ec:	9b01      	ldr	r3, [sp, #4]
 80029ee:	689b      	ldr	r3, [r3, #8]
 80029f0:	2b01      	cmp	r3, #1
 80029f2:	d114      	bne.n	8002a1e <HAL_RCC_OscConfig+0x32a>
 80029f4:	f7ff fcb8 	bl	8002368 <HAL_GetTick>
 80029f8:	9017      	str	r0, [sp, #92]	; 0x5c
 80029fa:	e009      	b.n	8002a10 <HAL_RCC_OscConfig+0x31c>
 80029fc:	f7ff fcb4 	bl	8002368 <HAL_GetTick>
 8002a00:	4602      	mov	r2, r0
 8002a02:	9b17      	ldr	r3, [sp, #92]	; 0x5c
 8002a04:	1ad3      	subs	r3, r2, r3
 8002a06:	f5b3 7f16 	cmp.w	r3, #600	; 0x258
 8002a0a:	d901      	bls.n	8002a10 <HAL_RCC_OscConfig+0x31c>
 8002a0c:	2303      	movs	r3, #3
 8002a0e:	e0b5      	b.n	8002b7c <HAL_RCC_OscConfig+0x488>
 8002a10:	4b5e      	ldr	r3, [pc, #376]	; (8002b8c <HAL_RCC_OscConfig+0x498>)
 8002a12:	6f1b      	ldr	r3, [r3, #112]	; 0x70
 8002a14:	f003 0302 	and.w	r3, r3, #2
 8002a18:	2b00      	cmp	r3, #0
 8002a1a:	d0ef      	beq.n	80029fc <HAL_RCC_OscConfig+0x308>
 8002a1c:	e013      	b.n	8002a46 <HAL_RCC_OscConfig+0x352>
 8002a1e:	f7ff fca3 	bl	8002368 <HAL_GetTick>
 8002a22:	9017      	str	r0, [sp, #92]	; 0x5c
 8002a24:	e009      	b.n	8002a3a <HAL_RCC_OscConfig+0x346>
 8002a26:	f7ff fc9f 	bl	8002368 <HAL_GetTick>
 8002a2a:	4602      	mov	r2, r0
 8002a2c:	9b17      	ldr	r3, [sp, #92]	; 0x5c
 8002a2e:	1ad3      	subs	r3, r2, r3
 8002a30:	f5b3 7f16 	cmp.w	r3, #600	; 0x258
 8002a34:	d901      	bls.n	8002a3a <HAL_RCC_OscConfig+0x346>
 8002a36:	2303      	movs	r3, #3
 8002a38:	e0a0      	b.n	8002b7c <HAL_RCC_OscConfig+0x488>
 8002a3a:	4b54      	ldr	r3, [pc, #336]	; (8002b8c <HAL_RCC_OscConfig+0x498>)
 8002a3c:	6f1b      	ldr	r3, [r3, #112]	; 0x70
 8002a3e:	f003 0302 	and.w	r3, r3, #2
 8002a42:	2b00      	cmp	r3, #0
 8002a44:	d1ef      	bne.n	8002a26 <HAL_RCC_OscConfig+0x332>
 8002a46:	9b01      	ldr	r3, [sp, #4]
 8002a48:	699b      	ldr	r3, [r3, #24]
 8002a4a:	2b00      	cmp	r3, #0
 8002a4c:	f000 8095 	beq.w	8002b7a <HAL_RCC_OscConfig+0x486>
 8002a50:	4b4e      	ldr	r3, [pc, #312]	; (8002b8c <HAL_RCC_OscConfig+0x498>)
 8002a52:	689b      	ldr	r3, [r3, #8]
 8002a54:	f003 030c 	and.w	r3, r3, #12
 8002a58:	2b08      	cmp	r3, #8
 8002a5a:	f000 808c 	beq.w	8002b76 <HAL_RCC_OscConfig+0x482>
 8002a5e:	9b01      	ldr	r3, [sp, #4]
 8002a60:	699b      	ldr	r3, [r3, #24]
 8002a62:	2b02      	cmp	r3, #2
 8002a64:	d170      	bne.n	8002b48 <HAL_RCC_OscConfig+0x454>
 8002a66:	4b4a      	ldr	r3, [pc, #296]	; (8002b90 <HAL_RCC_OscConfig+0x49c>)
 8002a68:	2200      	movs	r2, #0
 8002a6a:	601a      	str	r2, [r3, #0]
 8002a6c:	f7ff fc7c 	bl	8002368 <HAL_GetTick>
 8002a70:	9017      	str	r0, [sp, #92]	; 0x5c
 8002a72:	e008      	b.n	8002a86 <HAL_RCC_OscConfig+0x392>
 8002a74:	f7ff fc78 	bl	8002368 <HAL_GetTick>
 8002a78:	4602      	mov	r2, r0
 8002a7a:	9b17      	ldr	r3, [sp, #92]	; 0x5c
 8002a7c:	1ad3      	subs	r3, r2, r3
 8002a7e:	2b64      	cmp	r3, #100	; 0x64
 8002a80:	d901      	bls.n	8002a86 <HAL_RCC_OscConfig+0x392>
 8002a82:	2303      	movs	r3, #3
 8002a84:	e07a      	b.n	8002b7c <HAL_RCC_OscConfig+0x488>
 8002a86:	4b41      	ldr	r3, [pc, #260]	; (8002b8c <HAL_RCC_OscConfig+0x498>)
 8002a88:	681b      	ldr	r3, [r3, #0]
 8002a8a:	f003 7300 	and.w	r3, r3, #33554432	; 0x2000000
 8002a8e:	2b00      	cmp	r3, #0
 8002a90:	d1f0      	bne.n	8002a74 <HAL_RCC_OscConfig+0x380>
 8002a92:	483e      	ldr	r0, [pc, #248]	; (8002b8c <HAL_RCC_OscConfig+0x498>)
 8002a94:	9b01      	ldr	r3, [sp, #4]
 8002a96:	6a1a      	ldr	r2, [r3, #32]
 8002a98:	9b01      	ldr	r3, [sp, #4]
 8002a9a:	6a5b      	ldr	r3, [r3, #36]	; 0x24
 8002a9c:	f647 71c0 	movw	r1, #32704	; 0x7fc0
 8002aa0:	910e      	str	r1, [sp, #56]	; 0x38
 8002aa2:	990e      	ldr	r1, [sp, #56]	; 0x38
 8002aa4:	fa91 f1a1 	rbit	r1, r1
 8002aa8:	910d      	str	r1, [sp, #52]	; 0x34
 8002aaa:	990d      	ldr	r1, [sp, #52]	; 0x34
 8002aac:	910c      	str	r1, [sp, #48]	; 0x30
 8002aae:	990c      	ldr	r1, [sp, #48]	; 0x30
 8002ab0:	fab1 f181 	clz	r1, r1
 8002ab4:	910b      	str	r1, [sp, #44]	; 0x2c
 8002ab6:	990b      	ldr	r1, [sp, #44]	; 0x2c
 8002ab8:	b2c9      	uxtb	r1, r1
 8002aba:	408b      	lsls	r3, r1
 8002abc:	431a      	orrs	r2, r3
 8002abe:	9b01      	ldr	r3, [sp, #4]
 8002ac0:	6a9b      	ldr	r3, [r3, #40]	; 0x28
 8002ac2:	085b      	lsrs	r3, r3, #1
 8002ac4:	3b01      	subs	r3, #1
 8002ac6:	f44f 3140 	mov.w	r1, #196608	; 0x30000
 8002aca:	910a      	str	r1, [sp, #40]	; 0x28
 8002acc:	990a      	ldr	r1, [sp, #40]	; 0x28
 8002ace:	fa91 f1a1 	rbit	r1, r1
 8002ad2:	9109      	str	r1, [sp, #36]	; 0x24
 8002ad4:	9909      	ldr	r1, [sp, #36]	; 0x24
 8002ad6:	9108      	str	r1, [sp, #32]
 8002ad8:	9908      	ldr	r1, [sp, #32]
 8002ada:	fab1 f181 	clz	r1, r1
 8002ade:	9107      	str	r1, [sp, #28]
 8002ae0:	9907      	ldr	r1, [sp, #28]
 8002ae2:	b2c9      	uxtb	r1, r1
 8002ae4:	408b      	lsls	r3, r1
 8002ae6:	431a      	orrs	r2, r3
 8002ae8:	9b01      	ldr	r3, [sp, #4]
 8002aea:	69db      	ldr	r3, [r3, #28]
 8002aec:	431a      	orrs	r2, r3
 8002aee:	9b01      	ldr	r3, [sp, #4]
 8002af0:	6adb      	ldr	r3, [r3, #44]	; 0x2c
 8002af2:	f04f 6170 	mov.w	r1, #251658240	; 0xf000000
 8002af6:	9106      	str	r1, [sp, #24]
 8002af8:	9906      	ldr	r1, [sp, #24]
 8002afa:	fa91 f1a1 	rbit	r1, r1
 8002afe:	9105      	str	r1, [sp, #20]
 8002b00:	9905      	ldr	r1, [sp, #20]
 8002b02:	9104      	str	r1, [sp, #16]
 8002b04:	9904      	ldr	r1, [sp, #16]
 8002b06:	fab1 f181 	clz	r1, r1
 8002b0a:	9103      	str	r1, [sp, #12]
 8002b0c:	9903      	ldr	r1, [sp, #12]
 8002b0e:	b2c9      	uxtb	r1, r1
 8002b10:	408b      	lsls	r3, r1
 8002b12:	4313      	orrs	r3, r2
 8002b14:	f043 5300 	orr.w	r3, r3, #536870912	; 0x20000000
 8002b18:	6043      	str	r3, [r0, #4]
 8002b1a:	4b1d      	ldr	r3, [pc, #116]	; (8002b90 <HAL_RCC_OscConfig+0x49c>)
 8002b1c:	2201      	movs	r2, #1
 8002b1e:	601a      	str	r2, [r3, #0]
 8002b20:	f7ff fc22 	bl	8002368 <HAL_GetTick>
 8002b24:	9017      	str	r0, [sp, #92]	; 0x5c
 8002b26:	e008      	b.n	8002b3a <HAL_RCC_OscConfig+0x446>
 8002b28:	f7ff fc1e 	bl	8002368 <HAL_GetTick>
 8002b2c:	4602      	mov	r2, r0
 8002b2e:	9b17      	ldr	r3, [sp, #92]	; 0x5c
 8002b30:	1ad3      	subs	r3, r2, r3
 8002b32:	2b64      	cmp	r3, #100	; 0x64
 8002b34:	d901      	bls.n	8002b3a <HAL_RCC_OscConfig+0x446>
 8002b36:	2303      	movs	r3, #3
 8002b38:	e020      	b.n	8002b7c <HAL_RCC_OscConfig+0x488>
 8002b3a:	4b14      	ldr	r3, [pc, #80]	; (8002b8c <HAL_RCC_OscConfig+0x498>)
 8002b3c:	681b      	ldr	r3, [r3, #0]
 8002b3e:	f003 7300 	and.w	r3, r3, #33554432	; 0x2000000
 8002b42:	2b00      	cmp	r3, #0
 8002b44:	d0f0      	beq.n	8002b28 <HAL_RCC_OscConfig+0x434>
 8002b46:	e018      	b.n	8002b7a <HAL_RCC_OscConfig+0x486>
 8002b48:	4b11      	ldr	r3, [pc, #68]	; (8002b90 <HAL_RCC_OscConfig+0x49c>)
 8002b4a:	2200      	movs	r2, #0
 8002b4c:	601a      	str	r2, [r3, #0]
 8002b4e:	f7ff fc0b 	bl	8002368 <HAL_GetTick>
 8002b52:	9017      	str	r0, [sp, #92]	; 0x5c
 8002b54:	e008      	b.n	8002b68 <HAL_RCC_OscConfig+0x474>
 8002b56:	f7ff fc07 	bl	8002368 <HAL_GetTick>
 8002b5a:	4602      	mov	r2, r0
 8002b5c:	9b17      	ldr	r3, [sp, #92]	; 0x5c
 8002b5e:	1ad3      	subs	r3, r2, r3
 8002b60:	2b64      	cmp	r3, #100	; 0x64
 8002b62:	d901      	bls.n	8002b68 <HAL_RCC_OscConfig+0x474>
 8002b64:	2303      	movs	r3, #3
 8002b66:	e009      	b.n	8002b7c <HAL_RCC_OscConfig+0x488>
 8002b68:	4b08      	ldr	r3, [pc, #32]	; (8002b8c <HAL_RCC_OscConfig+0x498>)
 8002b6a:	681b      	ldr	r3, [r3, #0]
 8002b6c:	f003 7300 	and.w	r3, r3, #33554432	; 0x2000000
 8002b70:	2b00      	cmp	r3, #0
 8002b72:	d1f0      	bne.n	8002b56 <HAL_RCC_OscConfig+0x462>
 8002b74:	e001      	b.n	8002b7a <HAL_RCC_OscConfig+0x486>
 8002b76:	2301      	movs	r3, #1
 8002b78:	e000      	b.n	8002b7c <HAL_RCC_OscConfig+0x488>
 8002b7a:	2300      	movs	r3, #0
 8002b7c:	4618      	mov	r0, r3
 8002b7e:	b019      	add	sp, #100	; 0x64
 8002b80:	f85d fb04 	ldr.w	pc, [sp], #4
 8002b84:	40007000 	.word	0x40007000
 8002b88:	40023870 	.word	0x40023870
 8002b8c:	40023800 	.word	0x40023800
 8002b90:	42470060 	.word	0x42470060

08002b94 <HAL_RCC_ClockConfig>:
 8002b94:	b500      	push	{lr}
 8002b96:	b085      	sub	sp, #20
 8002b98:	9001      	str	r0, [sp, #4]
 8002b9a:	9100      	str	r1, [sp, #0]
 8002b9c:	2300      	movs	r3, #0
 8002b9e:	9303      	str	r3, [sp, #12]
 8002ba0:	4ba6      	ldr	r3, [pc, #664]	; (8002e3c <HAL_RCC_ClockConfig+0x2a8>)
 8002ba2:	681b      	ldr	r3, [r3, #0]
 8002ba4:	f003 020f 	and.w	r2, r3, #15
 8002ba8:	9b00      	ldr	r3, [sp, #0]
 8002baa:	429a      	cmp	r2, r3
 8002bac:	f080 8090 	bcs.w	8002cd0 <HAL_RCC_ClockConfig+0x13c>
 8002bb0:	4ba2      	ldr	r3, [pc, #648]	; (8002e3c <HAL_RCC_ClockConfig+0x2a8>)
 8002bb2:	9a00      	ldr	r2, [sp, #0]
 8002bb4:	b2d2      	uxtb	r2, r2
 8002bb6:	701a      	strb	r2, [r3, #0]
 8002bb8:	4ba0      	ldr	r3, [pc, #640]	; (8002e3c <HAL_RCC_ClockConfig+0x2a8>)
 8002bba:	681b      	ldr	r3, [r3, #0]
 8002bbc:	f003 020f 	and.w	r2, r3, #15
 8002bc0:	9b00      	ldr	r3, [sp, #0]
 8002bc2:	429a      	cmp	r2, r3
 8002bc4:	d001      	beq.n	8002bca <HAL_RCC_ClockConfig+0x36>
 8002bc6:	2301      	movs	r3, #1
 8002bc8:	e133      	b.n	8002e32 <HAL_RCC_ClockConfig+0x29e>
 8002bca:	9b01      	ldr	r3, [sp, #4]
 8002bcc:	681b      	ldr	r3, [r3, #0]
 8002bce:	f003 0302 	and.w	r3, r3, #2
 8002bd2:	2b00      	cmp	r3, #0
 8002bd4:	d008      	beq.n	8002be8 <HAL_RCC_ClockConfig+0x54>
 8002bd6:	499a      	ldr	r1, [pc, #616]	; (8002e40 <HAL_RCC_ClockConfig+0x2ac>)
 8002bd8:	4b99      	ldr	r3, [pc, #612]	; (8002e40 <HAL_RCC_ClockConfig+0x2ac>)
 8002bda:	689b      	ldr	r3, [r3, #8]
 8002bdc:	f023 02f0 	bic.w	r2, r3, #240	; 0xf0
 8002be0:	9b01      	ldr	r3, [sp, #4]
 8002be2:	689b      	ldr	r3, [r3, #8]
 8002be4:	4313      	orrs	r3, r2
 8002be6:	608b      	str	r3, [r1, #8]
 8002be8:	9b01      	ldr	r3, [sp, #4]
 8002bea:	681b      	ldr	r3, [r3, #0]
 8002bec:	f003 0301 	and.w	r3, r3, #1
 8002bf0:	2b00      	cmp	r3, #0
 8002bf2:	f000 80fb 	beq.w	8002dec <HAL_RCC_ClockConfig+0x258>
 8002bf6:	9b01      	ldr	r3, [sp, #4]
 8002bf8:	685b      	ldr	r3, [r3, #4]
 8002bfa:	2b01      	cmp	r3, #1
 8002bfc:	d107      	bne.n	8002c0e <HAL_RCC_ClockConfig+0x7a>
 8002bfe:	4b90      	ldr	r3, [pc, #576]	; (8002e40 <HAL_RCC_ClockConfig+0x2ac>)
 8002c00:	681b      	ldr	r3, [r3, #0]
 8002c02:	f403 3300 	and.w	r3, r3, #131072	; 0x20000
 8002c06:	2b00      	cmp	r3, #0
 8002c08:	d115      	bne.n	8002c36 <HAL_RCC_ClockConfig+0xa2>
 8002c0a:	2301      	movs	r3, #1
 8002c0c:	e111      	b.n	8002e32 <HAL_RCC_ClockConfig+0x29e>
 8002c0e:	9b01      	ldr	r3, [sp, #4]
 8002c10:	685b      	ldr	r3, [r3, #4]
 8002c12:	2b02      	cmp	r3, #2
 8002c14:	d107      	bne.n	8002c26 <HAL_RCC_ClockConfig+0x92>
 8002c16:	4b8a      	ldr	r3, [pc, #552]	; (8002e40 <HAL_RCC_ClockConfig+0x2ac>)
 8002c18:	681b      	ldr	r3, [r3, #0]
 8002c1a:	f003 7300 	and.w	r3, r3, #33554432	; 0x2000000
 8002c1e:	2b00      	cmp	r3, #0
 8002c20:	d109      	bne.n	8002c36 <HAL_RCC_ClockConfig+0xa2>
 8002c22:	2301      	movs	r3, #1
 8002c24:	e105      	b.n	8002e32 <HAL_RCC_ClockConfig+0x29e>
 8002c26:	4b86      	ldr	r3, [pc, #536]	; (8002e40 <HAL_RCC_ClockConfig+0x2ac>)
 8002c28:	681b      	ldr	r3, [r3, #0]
 8002c2a:	f003 0302 	and.w	r3, r3, #2
 8002c2e:	2b00      	cmp	r3, #0
 8002c30:	d101      	bne.n	8002c36 <HAL_RCC_ClockConfig+0xa2>
 8002c32:	2301      	movs	r3, #1
 8002c34:	e0fd      	b.n	8002e32 <HAL_RCC_ClockConfig+0x29e>
 8002c36:	4982      	ldr	r1, [pc, #520]	; (8002e40 <HAL_RCC_ClockConfig+0x2ac>)
 8002c38:	4b81      	ldr	r3, [pc, #516]	; (8002e40 <HAL_RCC_ClockConfig+0x2ac>)
 8002c3a:	689b      	ldr	r3, [r3, #8]
 8002c3c:	f023 0203 	bic.w	r2, r3, #3
 8002c40:	9b01      	ldr	r3, [sp, #4]
 8002c42:	685b      	ldr	r3, [r3, #4]
 8002c44:	4313      	orrs	r3, r2
 8002c46:	608b      	str	r3, [r1, #8]
 8002c48:	f7ff fb8e 	bl	8002368 <HAL_GetTick>
 8002c4c:	9003      	str	r0, [sp, #12]
 8002c4e:	9b01      	ldr	r3, [sp, #4]
 8002c50:	685b      	ldr	r3, [r3, #4]
 8002c52:	2b01      	cmp	r3, #1
 8002c54:	d112      	bne.n	8002c7c <HAL_RCC_ClockConfig+0xe8>
 8002c56:	e00a      	b.n	8002c6e <HAL_RCC_ClockConfig+0xda>
 8002c58:	f7ff fb86 	bl	8002368 <HAL_GetTick>
 8002c5c:	4602      	mov	r2, r0
 8002c5e:	9b03      	ldr	r3, [sp, #12]
 8002c60:	1ad3      	subs	r3, r2, r3
 8002c62:	f241 3288 	movw	r2, #5000	; 0x1388
 8002c66:	4293      	cmp	r3, r2
 8002c68:	d901      	bls.n	8002c6e <HAL_RCC_ClockConfig+0xda>
 8002c6a:	2303      	movs	r3, #3
 8002c6c:	e0e1      	b.n	8002e32 <HAL_RCC_ClockConfig+0x29e>
 8002c6e:	4b74      	ldr	r3, [pc, #464]	; (8002e40 <HAL_RCC_ClockConfig+0x2ac>)
 8002c70:	689b      	ldr	r3, [r3, #8]
 8002c72:	f003 030c 	and.w	r3, r3, #12
 8002c76:	2b04      	cmp	r3, #4
 8002c78:	d1ee      	bne.n	8002c58 <HAL_RCC_ClockConfig+0xc4>
 8002c7a:	e0b7      	b.n	8002dec <HAL_RCC_ClockConfig+0x258>
 8002c7c:	9b01      	ldr	r3, [sp, #4]
 8002c7e:	685b      	ldr	r3, [r3, #4]
 8002c80:	2b02      	cmp	r3, #2
 8002c82:	d112      	bne.n	8002caa <HAL_RCC_ClockConfig+0x116>
 8002c84:	e00a      	b.n	8002c9c <HAL_RCC_ClockConfig+0x108>
 8002c86:	f7ff fb6f 	bl	8002368 <HAL_GetTick>
 8002c8a:	4602      	mov	r2, r0
 8002c8c:	9b03      	ldr	r3, [sp, #12]
 8002c8e:	1ad3      	subs	r3, r2, r3
 8002c90:	f241 3288 	movw	r2, #5000	; 0x1388
 8002c94:	4293      	cmp	r3, r2
 8002c96:	d901      	bls.n	8002c9c <HAL_RCC_ClockConfig+0x108>
 8002c98:	2303      	movs	r3, #3
 8002c9a:	e0ca      	b.n	8002e32 <HAL_RCC_ClockConfig+0x29e>
 8002c9c:	4b68      	ldr	r3, [pc, #416]	; (8002e40 <HAL_RCC_ClockConfig+0x2ac>)
 8002c9e:	689b      	ldr	r3, [r3, #8]
 8002ca0:	f003 030c 	and.w	r3, r3, #12
 8002ca4:	2b08      	cmp	r3, #8
 8002ca6:	d1ee      	bne.n	8002c86 <HAL_RCC_ClockConfig+0xf2>
 8002ca8:	e0a0      	b.n	8002dec <HAL_RCC_ClockConfig+0x258>
 8002caa:	e00a      	b.n	8002cc2 <HAL_RCC_ClockConfig+0x12e>
 8002cac:	f7ff fb5c 	bl	8002368 <HAL_GetTick>
 8002cb0:	4602      	mov	r2, r0
 8002cb2:	9b03      	ldr	r3, [sp, #12]
 8002cb4:	1ad3      	subs	r3, r2, r3
 8002cb6:	f241 3288 	movw	r2, #5000	; 0x1388
 8002cba:	4293      	cmp	r3, r2
 8002cbc:	d901      	bls.n	8002cc2 <HAL_RCC_ClockConfig+0x12e>
 8002cbe:	2303      	movs	r3, #3
 8002cc0:	e0b7      	b.n	8002e32 <HAL_RCC_ClockConfig+0x29e>
 8002cc2:	4b5f      	ldr	r3, [pc, #380]	; (8002e40 <HAL_RCC_ClockConfig+0x2ac>)
 8002cc4:	689b      	ldr	r3, [r3, #8]
 8002cc6:	f003 030c 	and.w	r3, r3, #12
 8002cca:	2b00      	cmp	r3, #0
 8002ccc:	d1ee      	bne.n	8002cac <HAL_RCC_ClockConfig+0x118>
 8002cce:	e08d      	b.n	8002dec <HAL_RCC_ClockConfig+0x258>
 8002cd0:	9b01      	ldr	r3, [sp, #4]
 8002cd2:	681b      	ldr	r3, [r3, #0]
 8002cd4:	f003 0302 	and.w	r3, r3, #2
 8002cd8:	2b00      	cmp	r3, #0
 8002cda:	d008      	beq.n	8002cee <HAL_RCC_ClockConfig+0x15a>
 8002cdc:	4958      	ldr	r1, [pc, #352]	; (8002e40 <HAL_RCC_ClockConfig+0x2ac>)
 8002cde:	4b58      	ldr	r3, [pc, #352]	; (8002e40 <HAL_RCC_ClockConfig+0x2ac>)
 8002ce0:	689b      	ldr	r3, [r3, #8]
 8002ce2:	f023 02f0 	bic.w	r2, r3, #240	; 0xf0
 8002ce6:	9b01      	ldr	r3, [sp, #4]
 8002ce8:	689b      	ldr	r3, [r3, #8]
 8002cea:	4313      	orrs	r3, r2
 8002cec:	608b      	str	r3, [r1, #8]
 8002cee:	9b01      	ldr	r3, [sp, #4]
 8002cf0:	681b      	ldr	r3, [r3, #0]
 8002cf2:	f003 0301 	and.w	r3, r3, #1
 8002cf6:	2b00      	cmp	r3, #0
 8002cf8:	d06b      	beq.n	8002dd2 <HAL_RCC_ClockConfig+0x23e>
 8002cfa:	9b01      	ldr	r3, [sp, #4]
 8002cfc:	685b      	ldr	r3, [r3, #4]
 8002cfe:	2b01      	cmp	r3, #1
 8002d00:	d107      	bne.n	8002d12 <HAL_RCC_ClockConfig+0x17e>
 8002d02:	4b4f      	ldr	r3, [pc, #316]	; (8002e40 <HAL_RCC_ClockConfig+0x2ac>)
 8002d04:	681b      	ldr	r3, [r3, #0]
 8002d06:	f403 3300 	and.w	r3, r3, #131072	; 0x20000
 8002d0a:	2b00      	cmp	r3, #0
 8002d0c:	d115      	bne.n	8002d3a <HAL_RCC_ClockConfig+0x1a6>
 8002d0e:	2301      	movs	r3, #1
 8002d10:	e08f      	b.n	8002e32 <HAL_RCC_ClockConfig+0x29e>
 8002d12:	9b01      	ldr	r3, [sp, #4]
 8002d14:	685b      	ldr	r3, [r3, #4]
 8002d16:	2b02      	cmp	r3, #2
 8002d18:	d107      	bne.n	8002d2a <HAL_RCC_ClockConfig+0x196>
 8002d1a:	4b49      	ldr	r3, [pc, #292]	; (8002e40 <HAL_RCC_ClockConfig+0x2ac>)
 8002d1c:	681b      	ldr	r3, [r3, #0]
 8002d1e:	f003 7300 	and.w	r3, r3, #33554432	; 0x2000000
 8002d22:	2b00      	cmp	r3, #0
 8002d24:	d109      	bne.n	8002d3a <HAL_RCC_ClockConfig+0x1a6>
 8002d26:	2301      	movs	r3, #1
 8002d28:	e083      	b.n	8002e32 <HAL_RCC_ClockConfig+0x29e>
 8002d2a:	4b45      	ldr	r3, [pc, #276]	; (8002e40 <HAL_RCC_ClockConfig+0x2ac>)
 8002d2c:	681b      	ldr	r3, [r3, #0]
 8002d2e:	f003 0302 	and.w	r3, r3, #2
 8002d32:	2b00      	cmp	r3, #0
 8002d34:	d101      	bne.n	8002d3a <HAL_RCC_ClockConfig+0x1a6>
 8002d36:	2301      	movs	r3, #1
 8002d38:	e07b      	b.n	8002e32 <HAL_RCC_ClockConfig+0x29e>
 8002d3a:	4941      	ldr	r1, [pc, #260]	; (8002e40 <HAL_RCC_ClockConfig+0x2ac>)
 8002d3c:	4b40      	ldr	r3, [pc, #256]	; (8002e40 <HAL_RCC_ClockConfig+0x2ac>)
 8002d3e:	689b      	ldr	r3, [r3, #8]
 8002d40:	f023 0203 	bic.w	r2, r3, #3
 8002d44:	9b01      	ldr	r3, [sp, #4]
 8002d46:	685b      	ldr	r3, [r3, #4]
 8002d48:	4313      	orrs	r3, r2
 8002d4a:	608b      	str	r3, [r1, #8]
 8002d4c:	f7ff fb0c 	bl	8002368 <HAL_GetTick>
 8002d50:	9003      	str	r0, [sp, #12]
 8002d52:	9b01      	ldr	r3, [sp, #4]
 8002d54:	685b      	ldr	r3, [r3, #4]
 8002d56:	2b01      	cmp	r3, #1
 8002d58:	d112      	bne.n	8002d80 <HAL_RCC_ClockConfig+0x1ec>
 8002d5a:	e00a      	b.n	8002d72 <HAL_RCC_ClockConfig+0x1de>
 8002d5c:	f7ff fb04 	bl	8002368 <HAL_GetTick>
 8002d60:	4602      	mov	r2, r0
 8002d62:	9b03      	ldr	r3, [sp, #12]
 8002d64:	1ad3      	subs	r3, r2, r3
 8002d66:	f241 3288 	movw	r2, #5000	; 0x1388
 8002d6a:	4293      	cmp	r3, r2
 8002d6c:	d901      	bls.n	8002d72 <HAL_RCC_ClockConfig+0x1de>
 8002d6e:	2303      	movs	r3, #3
 8002d70:	e05f      	b.n	8002e32 <HAL_RCC_ClockConfig+0x29e>
 8002d72:	4b33      	ldr	r3, [pc, #204]	; (8002e40 <HAL_RCC_ClockConfig+0x2ac>)
 8002d74:	689b      	ldr	r3, [r3, #8]
 8002d76:	f003 030c 	and.w	r3, r3, #12
 8002d7a:	2b04      	cmp	r3, #4
 8002d7c:	d1ee      	bne.n	8002d5c <HAL_RCC_ClockConfig+0x1c8>
 8002d7e:	e028      	b.n	8002dd2 <HAL_RCC_ClockConfig+0x23e>
 8002d80:	9b01      	ldr	r3, [sp, #4]
 8002d82:	685b      	ldr	r3, [r3, #4]
 8002d84:	2b02      	cmp	r3, #2
 8002d86:	d112      	bne.n	8002dae <HAL_RCC_ClockConfig+0x21a>
 8002d88:	e00a      	b.n	8002da0 <HAL_RCC_ClockConfig+0x20c>
 8002d8a:	f7ff faed 	bl	8002368 <HAL_GetTick>
 8002d8e:	4602      	mov	r2, r0
 8002d90:	9b03      	ldr	r3, [sp, #12]
 8002d92:	1ad3      	subs	r3, r2, r3
 8002d94:	f241 3288 	movw	r2, #5000	; 0x1388
 8002d98:	4293      	cmp	r3, r2
 8002d9a:	d901      	bls.n	8002da0 <HAL_RCC_ClockConfig+0x20c>
 8002d9c:	2303      	movs	r3, #3
 8002d9e:	e048      	b.n	8002e32 <HAL_RCC_ClockConfig+0x29e>
 8002da0:	4b27      	ldr	r3, [pc, #156]	; (8002e40 <HAL_RCC_ClockConfig+0x2ac>)
 8002da2:	689b      	ldr	r3, [r3, #8]
 8002da4:	f003 030c 	and.w	r3, r3, #12
 8002da8:	2b08      	cmp	r3, #8
 8002daa:	d1ee      	bne.n	8002d8a <HAL_RCC_ClockConfig+0x1f6>
 8002dac:	e011      	b.n	8002dd2 <HAL_RCC_ClockConfig+0x23e>
 8002dae:	e00a      	b.n	8002dc6 <HAL_RCC_ClockConfig+0x232>
 8002db0:	f7ff fada 	bl	8002368 <HAL_GetTick>
 8002db4:	4602      	mov	r2, r0
 8002db6:	9b03      	ldr	r3, [sp, #12]
 8002db8:	1ad3      	subs	r3, r2, r3
 8002dba:	f241 3288 	movw	r2, #5000	; 0x1388
 8002dbe:	4293      	cmp	r3, r2
 8002dc0:	d901      	bls.n	8002dc6 <HAL_RCC_ClockConfig+0x232>
 8002dc2:	2303      	movs	r3, #3
 8002dc4:	e035      	b.n	8002e32 <HAL_RCC_ClockConfig+0x29e>
 8002dc6:	4b1e      	ldr	r3, [pc, #120]	; (8002e40 <HAL_RCC_ClockConfig+0x2ac>)
 8002dc8:	689b      	ldr	r3, [r3, #8]
 8002dca:	f003 030c 	and.w	r3, r3, #12
 8002dce:	2b00      	cmp	r3, #0
 8002dd0:	d1ee      	bne.n	8002db0 <HAL_RCC_ClockConfig+0x21c>
 8002dd2:	4b1a      	ldr	r3, [pc, #104]	; (8002e3c <HAL_RCC_ClockConfig+0x2a8>)
 8002dd4:	9a00      	ldr	r2, [sp, #0]
 8002dd6:	b2d2      	uxtb	r2, r2
 8002dd8:	701a      	strb	r2, [r3, #0]
 8002dda:	4b18      	ldr	r3, [pc, #96]	; (8002e3c <HAL_RCC_ClockConfig+0x2a8>)
 8002ddc:	681b      	ldr	r3, [r3, #0]
 8002dde:	f003 020f 	and.w	r2, r3, #15
 8002de2:	9b00      	ldr	r3, [sp, #0]
 8002de4:	429a      	cmp	r2, r3
 8002de6:	d001      	beq.n	8002dec <HAL_RCC_ClockConfig+0x258>
 8002de8:	2301      	movs	r3, #1
 8002dea:	e022      	b.n	8002e32 <HAL_RCC_ClockConfig+0x29e>
 8002dec:	9b01      	ldr	r3, [sp, #4]
 8002dee:	681b      	ldr	r3, [r3, #0]
 8002df0:	f003 0304 	and.w	r3, r3, #4
 8002df4:	2b00      	cmp	r3, #0
 8002df6:	d008      	beq.n	8002e0a <HAL_RCC_ClockConfig+0x276>
 8002df8:	4911      	ldr	r1, [pc, #68]	; (8002e40 <HAL_RCC_ClockConfig+0x2ac>)
 8002dfa:	4b11      	ldr	r3, [pc, #68]	; (8002e40 <HAL_RCC_ClockConfig+0x2ac>)
 8002dfc:	689b      	ldr	r3, [r3, #8]
 8002dfe:	f423 52e0 	bic.w	r2, r3, #7168	; 0x1c00
 8002e02:	9b01      	ldr	r3, [sp, #4]
 8002e04:	68db      	ldr	r3, [r3, #12]
 8002e06:	4313      	orrs	r3, r2
 8002e08:	608b      	str	r3, [r1, #8]
 8002e0a:	9b01      	ldr	r3, [sp, #4]
 8002e0c:	681b      	ldr	r3, [r3, #0]
 8002e0e:	f003 0308 	and.w	r3, r3, #8
 8002e12:	2b00      	cmp	r3, #0
 8002e14:	d009      	beq.n	8002e2a <HAL_RCC_ClockConfig+0x296>
 8002e16:	490a      	ldr	r1, [pc, #40]	; (8002e40 <HAL_RCC_ClockConfig+0x2ac>)
 8002e18:	4b09      	ldr	r3, [pc, #36]	; (8002e40 <HAL_RCC_ClockConfig+0x2ac>)
 8002e1a:	689b      	ldr	r3, [r3, #8]
 8002e1c:	f423 4260 	bic.w	r2, r3, #57344	; 0xe000
 8002e20:	9b01      	ldr	r3, [sp, #4]
 8002e22:	691b      	ldr	r3, [r3, #16]
 8002e24:	00db      	lsls	r3, r3, #3
 8002e26:	4313      	orrs	r3, r2
 8002e28:	608b      	str	r3, [r1, #8]
 8002e2a:	200f      	movs	r0, #15
 8002e2c:	f000 fc40 	bl	80036b0 <HAL_InitTick>
 8002e30:	2300      	movs	r3, #0
 8002e32:	4618      	mov	r0, r3
 8002e34:	b005      	add	sp, #20
 8002e36:	f85d fb04 	ldr.w	pc, [sp], #4
 8002e3a:	bf00      	nop
 8002e3c:	40023c00 	.word	0x40023c00
 8002e40:	40023800 	.word	0x40023800

08002e44 <HAL_RCC_GetSysClockFreq>:
 8002e44:	b094      	sub	sp, #80	; 0x50
 8002e46:	2300      	movs	r3, #0
 8002e48:	9311      	str	r3, [sp, #68]	; 0x44
 8002e4a:	2300      	movs	r3, #0
 8002e4c:	9313      	str	r3, [sp, #76]	; 0x4c
 8002e4e:	2300      	movs	r3, #0
 8002e50:	9310      	str	r3, [sp, #64]	; 0x40
 8002e52:	2300      	movs	r3, #0
 8002e54:	9312      	str	r3, [sp, #72]	; 0x48
 8002e56:	4b44      	ldr	r3, [pc, #272]	; (8002f68 <HAL_RCC_GetSysClockFreq+0x124>)
 8002e58:	689b      	ldr	r3, [r3, #8]
 8002e5a:	f003 030c 	and.w	r3, r3, #12
 8002e5e:	2b04      	cmp	r3, #4
 8002e60:	d006      	beq.n	8002e70 <HAL_RCC_GetSysClockFreq+0x2c>
 8002e62:	2b08      	cmp	r3, #8
 8002e64:	d007      	beq.n	8002e76 <HAL_RCC_GetSysClockFreq+0x32>
 8002e66:	2b00      	cmp	r3, #0
 8002e68:	d176      	bne.n	8002f58 <HAL_RCC_GetSysClockFreq+0x114>
 8002e6a:	4b40      	ldr	r3, [pc, #256]	; (8002f6c <HAL_RCC_GetSysClockFreq+0x128>)
 8002e6c:	9312      	str	r3, [sp, #72]	; 0x48
 8002e6e:	e076      	b.n	8002f5e <HAL_RCC_GetSysClockFreq+0x11a>
 8002e70:	4b3f      	ldr	r3, [pc, #252]	; (8002f70 <HAL_RCC_GetSysClockFreq+0x12c>)
 8002e72:	9312      	str	r3, [sp, #72]	; 0x48
 8002e74:	e073      	b.n	8002f5e <HAL_RCC_GetSysClockFreq+0x11a>
 8002e76:	4b3c      	ldr	r3, [pc, #240]	; (8002f68 <HAL_RCC_GetSysClockFreq+0x124>)
 8002e78:	685b      	ldr	r3, [r3, #4]
 8002e7a:	f003 033f 	and.w	r3, r3, #63	; 0x3f
 8002e7e:	9311      	str	r3, [sp, #68]	; 0x44
 8002e80:	4b39      	ldr	r3, [pc, #228]	; (8002f68 <HAL_RCC_GetSysClockFreq+0x124>)
 8002e82:	685b      	ldr	r3, [r3, #4]
 8002e84:	f403 0380 	and.w	r3, r3, #4194304	; 0x400000
 8002e88:	f44f 0280 	mov.w	r2, #4194304	; 0x400000
 8002e8c:	920f      	str	r2, [sp, #60]	; 0x3c
 8002e8e:	9a0f      	ldr	r2, [sp, #60]	; 0x3c
 8002e90:	fa92 f2a2 	rbit	r2, r2
 8002e94:	920e      	str	r2, [sp, #56]	; 0x38
 8002e96:	9a0e      	ldr	r2, [sp, #56]	; 0x38
 8002e98:	920d      	str	r2, [sp, #52]	; 0x34
 8002e9a:	9a0d      	ldr	r2, [sp, #52]	; 0x34
 8002e9c:	fab2 f282 	clz	r2, r2
 8002ea0:	920c      	str	r2, [sp, #48]	; 0x30
 8002ea2:	9a0c      	ldr	r2, [sp, #48]	; 0x30
 8002ea4:	b2d2      	uxtb	r2, r2
 8002ea6:	40d3      	lsrs	r3, r2
 8002ea8:	2b00      	cmp	r3, #0
 8002eaa:	d01c      	beq.n	8002ee6 <HAL_RCC_GetSysClockFreq+0xa2>
 8002eac:	4a30      	ldr	r2, [pc, #192]	; (8002f70 <HAL_RCC_GetSysClockFreq+0x12c>)
 8002eae:	9b11      	ldr	r3, [sp, #68]	; 0x44
 8002eb0:	fbb2 f2f3 	udiv	r2, r2, r3
 8002eb4:	4b2c      	ldr	r3, [pc, #176]	; (8002f68 <HAL_RCC_GetSysClockFreq+0x124>)
 8002eb6:	6859      	ldr	r1, [r3, #4]
 8002eb8:	f647 73c0 	movw	r3, #32704	; 0x7fc0
 8002ebc:	400b      	ands	r3, r1
 8002ebe:	f647 71c0 	movw	r1, #32704	; 0x7fc0
 8002ec2:	910b      	str	r1, [sp, #44]	; 0x2c
 8002ec4:	990b      	ldr	r1, [sp, #44]	; 0x2c
 8002ec6:	fa91 f1a1 	rbit	r1, r1
 8002eca:	910a      	str	r1, [sp, #40]	; 0x28
 8002ecc:	990a      	ldr	r1, [sp, #40]	; 0x28
 8002ece:	9109      	str	r1, [sp, #36]	; 0x24
 8002ed0:	9909      	ldr	r1, [sp, #36]	; 0x24
 8002ed2:	fab1 f181 	clz	r1, r1
 8002ed6:	9108      	str	r1, [sp, #32]
 8002ed8:	9908      	ldr	r1, [sp, #32]
 8002eda:	b2c9      	uxtb	r1, r1
 8002edc:	40cb      	lsrs	r3, r1
 8002ede:	fb03 f302 	mul.w	r3, r3, r2
 8002ee2:	9313      	str	r3, [sp, #76]	; 0x4c
 8002ee4:	e01b      	b.n	8002f1e <HAL_RCC_GetSysClockFreq+0xda>
 8002ee6:	4a21      	ldr	r2, [pc, #132]	; (8002f6c <HAL_RCC_GetSysClockFreq+0x128>)
 8002ee8:	9b11      	ldr	r3, [sp, #68]	; 0x44
 8002eea:	fbb2 f2f3 	udiv	r2, r2, r3
 8002eee:	4b1e      	ldr	r3, [pc, #120]	; (8002f68 <HAL_RCC_GetSysClockFreq+0x124>)
 8002ef0:	6859      	ldr	r1, [r3, #4]
 8002ef2:	f647 73c0 	movw	r3, #32704	; 0x7fc0
 8002ef6:	400b      	ands	r3, r1
 8002ef8:	f647 71c0 	movw	r1, #32704	; 0x7fc0
 8002efc:	9107      	str	r1, [sp, #28]
 8002efe:	9907      	ldr	r1, [sp, #28]
 8002f00:	fa91 f1a1 	rbit	r1, r1
 8002f04:	9106      	str	r1, [sp, #24]
 8002f06:	9906      	ldr	r1, [sp, #24]
 8002f08:	9105      	str	r1, [sp, #20]
 8002f0a:	9905      	ldr	r1, [sp, #20]
 8002f0c:	fab1 f181 	clz	r1, r1
 8002f10:	9104      	str	r1, [sp, #16]
 8002f12:	9904      	ldr	r1, [sp, #16]
 8002f14:	b2c9      	uxtb	r1, r1
 8002f16:	40cb      	lsrs	r3, r1
 8002f18:	fb03 f302 	mul.w	r3, r3, r2
 8002f1c:	9313      	str	r3, [sp, #76]	; 0x4c
 8002f1e:	4b12      	ldr	r3, [pc, #72]	; (8002f68 <HAL_RCC_GetSysClockFreq+0x124>)
 8002f20:	685b      	ldr	r3, [r3, #4]
 8002f22:	f403 3340 	and.w	r3, r3, #196608	; 0x30000
 8002f26:	f44f 3240 	mov.w	r2, #196608	; 0x30000
 8002f2a:	9203      	str	r2, [sp, #12]
 8002f2c:	9a03      	ldr	r2, [sp, #12]
 8002f2e:	fa92 f2a2 	rbit	r2, r2
 8002f32:	9202      	str	r2, [sp, #8]
 8002f34:	9a02      	ldr	r2, [sp, #8]
 8002f36:	9201      	str	r2, [sp, #4]
 8002f38:	9a01      	ldr	r2, [sp, #4]
 8002f3a:	fab2 f282 	clz	r2, r2
 8002f3e:	9200      	str	r2, [sp, #0]
 8002f40:	9a00      	ldr	r2, [sp, #0]
 8002f42:	b2d2      	uxtb	r2, r2
 8002f44:	40d3      	lsrs	r3, r2
 8002f46:	3301      	adds	r3, #1
 8002f48:	005b      	lsls	r3, r3, #1
 8002f4a:	9310      	str	r3, [sp, #64]	; 0x40
 8002f4c:	9a13      	ldr	r2, [sp, #76]	; 0x4c
 8002f4e:	9b10      	ldr	r3, [sp, #64]	; 0x40
 8002f50:	fbb2 f3f3 	udiv	r3, r2, r3
 8002f54:	9312      	str	r3, [sp, #72]	; 0x48
 8002f56:	e002      	b.n	8002f5e <HAL_RCC_GetSysClockFreq+0x11a>
 8002f58:	4b04      	ldr	r3, [pc, #16]	; (8002f6c <HAL_RCC_GetSysClockFreq+0x128>)
 8002f5a:	9312      	str	r3, [sp, #72]	; 0x48
 8002f5c:	bf00      	nop
 8002f5e:	9b12      	ldr	r3, [sp, #72]	; 0x48
 8002f60:	4618      	mov	r0, r3
 8002f62:	b014      	add	sp, #80	; 0x50
 8002f64:	4770      	bx	lr
 8002f66:	bf00      	nop
 8002f68:	40023800 	.word	0x40023800
 8002f6c:	00f42400 	.word	0x00f42400
 8002f70:	007a1200 	.word	0x007a1200

08002f74 <HAL_RCC_GetHCLKFreq>:
 8002f74:	b500      	push	{lr}
 8002f76:	b085      	sub	sp, #20
 8002f78:	f7ff ff64 	bl	8002e44 <HAL_RCC_GetSysClockFreq>
 8002f7c:	4601      	mov	r1, r0
 8002f7e:	4b0f      	ldr	r3, [pc, #60]	; (8002fbc <HAL_RCC_GetHCLKFreq+0x48>)
 8002f80:	689b      	ldr	r3, [r3, #8]
 8002f82:	f003 03f0 	and.w	r3, r3, #240	; 0xf0
 8002f86:	22f0      	movs	r2, #240	; 0xf0
 8002f88:	9203      	str	r2, [sp, #12]
 8002f8a:	9a03      	ldr	r2, [sp, #12]
 8002f8c:	fa92 f2a2 	rbit	r2, r2
 8002f90:	9202      	str	r2, [sp, #8]
 8002f92:	9a02      	ldr	r2, [sp, #8]
 8002f94:	9201      	str	r2, [sp, #4]
 8002f96:	9a01      	ldr	r2, [sp, #4]
 8002f98:	fab2 f282 	clz	r2, r2
 8002f9c:	9200      	str	r2, [sp, #0]
 8002f9e:	9a00      	ldr	r2, [sp, #0]
 8002fa0:	b2d2      	uxtb	r2, r2
 8002fa2:	40d3      	lsrs	r3, r2
 8002fa4:	4a06      	ldr	r2, [pc, #24]	; (8002fc0 <HAL_RCC_GetHCLKFreq+0x4c>)
 8002fa6:	5cd3      	ldrb	r3, [r2, r3]
 8002fa8:	fa21 f303 	lsr.w	r3, r1, r3
 8002fac:	4a05      	ldr	r2, [pc, #20]	; (8002fc4 <HAL_RCC_GetHCLKFreq+0x50>)
 8002fae:	6013      	str	r3, [r2, #0]
 8002fb0:	4b04      	ldr	r3, [pc, #16]	; (8002fc4 <HAL_RCC_GetHCLKFreq+0x50>)
 8002fb2:	681b      	ldr	r3, [r3, #0]
 8002fb4:	4618      	mov	r0, r3
 8002fb6:	b005      	add	sp, #20
 8002fb8:	f85d fb04 	ldr.w	pc, [sp], #4
 8002fbc:	40023800 	.word	0x40023800
 8002fc0:	080074ec 	.word	0x080074ec
 8002fc4:	20000198 	.word	0x20000198

08002fc8 <HAL_RCC_GetPCLK1Freq>:
 8002fc8:	b500      	push	{lr}
 8002fca:	b085      	sub	sp, #20
 8002fcc:	f7ff ffd2 	bl	8002f74 <HAL_RCC_GetHCLKFreq>
 8002fd0:	4601      	mov	r1, r0
 8002fd2:	4b0e      	ldr	r3, [pc, #56]	; (800300c <HAL_RCC_GetPCLK1Freq+0x44>)
 8002fd4:	689b      	ldr	r3, [r3, #8]
 8002fd6:	f403 53e0 	and.w	r3, r3, #7168	; 0x1c00
 8002fda:	f44f 52e0 	mov.w	r2, #7168	; 0x1c00
 8002fde:	9203      	str	r2, [sp, #12]
 8002fe0:	9a03      	ldr	r2, [sp, #12]
 8002fe2:	fa92 f2a2 	rbit	r2, r2
 8002fe6:	9202      	str	r2, [sp, #8]
 8002fe8:	9a02      	ldr	r2, [sp, #8]
 8002fea:	9201      	str	r2, [sp, #4]
 8002fec:	9a01      	ldr	r2, [sp, #4]
 8002fee:	fab2 f282 	clz	r2, r2
 8002ff2:	9200      	str	r2, [sp, #0]
 8002ff4:	9a00      	ldr	r2, [sp, #0]
 8002ff6:	b2d2      	uxtb	r2, r2
 8002ff8:	40d3      	lsrs	r3, r2
 8002ffa:	4a05      	ldr	r2, [pc, #20]	; (8003010 <HAL_RCC_GetPCLK1Freq+0x48>)
 8002ffc:	5cd3      	ldrb	r3, [r2, r3]
 8002ffe:	fa21 f303 	lsr.w	r3, r1, r3
 8003002:	4618      	mov	r0, r3
 8003004:	b005      	add	sp, #20
 8003006:	f85d fb04 	ldr.w	pc, [sp], #4
 800300a:	bf00      	nop
 800300c:	40023800 	.word	0x40023800
 8003010:	080074ec 	.word	0x080074ec

08003014 <HAL_RCC_GetPCLK2Freq>:
 8003014:	b500      	push	{lr}
 8003016:	b085      	sub	sp, #20
 8003018:	f7ff ffac 	bl	8002f74 <HAL_RCC_GetHCLKFreq>
 800301c:	4601      	mov	r1, r0
 800301e:	4b0e      	ldr	r3, [pc, #56]	; (8003058 <HAL_RCC_GetPCLK2Freq+0x44>)
 8003020:	689b      	ldr	r3, [r3, #8]
 8003022:	f403 4360 	and.w	r3, r3, #57344	; 0xe000
 8003026:	f44f 4260 	mov.w	r2, #57344	; 0xe000
 800302a:	9203      	str	r2, [sp, #12]
 800302c:	9a03      	ldr	r2, [sp, #12]
 800302e:	fa92 f2a2 	rbit	r2, r2
 8003032:	9202      	str	r2, [sp, #8]
 8003034:	9a02      	ldr	r2, [sp, #8]
 8003036:	9201      	str	r2, [sp, #4]
 8003038:	9a01      	ldr	r2, [sp, #4]
 800303a:	fab2 f282 	clz	r2, r2
 800303e:	9200      	str	r2, [sp, #0]
 8003040:	9a00      	ldr	r2, [sp, #0]
 8003042:	b2d2      	uxtb	r2, r2
 8003044:	40d3      	lsrs	r3, r2
 8003046:	4a05      	ldr	r2, [pc, #20]	; (800305c <HAL_RCC_GetPCLK2Freq+0x48>)
 8003048:	5cd3      	ldrb	r3, [r2, r3]
 800304a:	fa21 f303 	lsr.w	r3, r1, r3
 800304e:	4618      	mov	r0, r3
 8003050:	b005      	add	sp, #20
 8003052:	f85d fb04 	ldr.w	pc, [sp], #4
 8003056:	bf00      	nop
 8003058:	40023800 	.word	0x40023800
 800305c:	080074ec 	.word	0x080074ec

08003060 <HAL_TIM_OC_Init>:
 8003060:	b500      	push	{lr}
 8003062:	b083      	sub	sp, #12
 8003064:	9001      	str	r0, [sp, #4]
 8003066:	9b01      	ldr	r3, [sp, #4]
 8003068:	2b00      	cmp	r3, #0
 800306a:	d101      	bne.n	8003070 <HAL_TIM_OC_Init+0x10>
 800306c:	2301      	movs	r3, #1
 800306e:	e019      	b.n	80030a4 <HAL_TIM_OC_Init+0x44>
 8003070:	9b01      	ldr	r3, [sp, #4]
 8003072:	f893 3039 	ldrb.w	r3, [r3, #57]	; 0x39
 8003076:	b2db      	uxtb	r3, r3
 8003078:	2b00      	cmp	r3, #0
 800307a:	d102      	bne.n	8003082 <HAL_TIM_OC_Init+0x22>
 800307c:	9801      	ldr	r0, [sp, #4]
 800307e:	f000 f815 	bl	80030ac <HAL_TIM_OC_MspInit>
 8003082:	9b01      	ldr	r3, [sp, #4]
 8003084:	2202      	movs	r2, #2
 8003086:	f883 2039 	strb.w	r2, [r3, #57]	; 0x39
 800308a:	9b01      	ldr	r3, [sp, #4]
 800308c:	681a      	ldr	r2, [r3, #0]
 800308e:	9b01      	ldr	r3, [sp, #4]
 8003090:	3304      	adds	r3, #4
 8003092:	4610      	mov	r0, r2
 8003094:	4619      	mov	r1, r3
 8003096:	f000 f835 	bl	8003104 <TIM_Base_SetConfig>
 800309a:	9b01      	ldr	r3, [sp, #4]
 800309c:	2201      	movs	r2, #1
 800309e:	f883 2039 	strb.w	r2, [r3, #57]	; 0x39
 80030a2:	2300      	movs	r3, #0
 80030a4:	4618      	mov	r0, r3
 80030a6:	b003      	add	sp, #12
 80030a8:	f85d fb04 	ldr.w	pc, [sp], #4

080030ac <HAL_TIM_OC_MspInit>:
 80030ac:	b082      	sub	sp, #8
 80030ae:	9001      	str	r0, [sp, #4]
 80030b0:	b002      	add	sp, #8
 80030b2:	4770      	bx	lr

080030b4 <HAL_TIM_OC_Start>:
 80030b4:	b500      	push	{lr}
 80030b6:	b083      	sub	sp, #12
 80030b8:	9001      	str	r0, [sp, #4]
 80030ba:	9100      	str	r1, [sp, #0]
 80030bc:	9b01      	ldr	r3, [sp, #4]
 80030be:	681b      	ldr	r3, [r3, #0]
 80030c0:	4618      	mov	r0, r3
 80030c2:	9900      	ldr	r1, [sp, #0]
 80030c4:	2201      	movs	r2, #1
 80030c6:	f000 f89b 	bl	8003200 <TIM_CCxChannelCmd>
 80030ca:	9b01      	ldr	r3, [sp, #4]
 80030cc:	681b      	ldr	r3, [r3, #0]
 80030ce:	4a0c      	ldr	r2, [pc, #48]	; (8003100 <HAL_TIM_OC_Start+0x4c>)
 80030d0:	4293      	cmp	r3, r2
 80030d2:	d107      	bne.n	80030e4 <HAL_TIM_OC_Start+0x30>
 80030d4:	9b01      	ldr	r3, [sp, #4]
 80030d6:	681b      	ldr	r3, [r3, #0]
 80030d8:	9a01      	ldr	r2, [sp, #4]
 80030da:	6812      	ldr	r2, [r2, #0]
 80030dc:	6c52      	ldr	r2, [r2, #68]	; 0x44
 80030de:	f442 4200 	orr.w	r2, r2, #32768	; 0x8000
 80030e2:	645a      	str	r2, [r3, #68]	; 0x44
 80030e4:	9b01      	ldr	r3, [sp, #4]
 80030e6:	681b      	ldr	r3, [r3, #0]
 80030e8:	9a01      	ldr	r2, [sp, #4]
 80030ea:	6812      	ldr	r2, [r2, #0]
 80030ec:	6812      	ldr	r2, [r2, #0]
 80030ee:	f042 0201 	orr.w	r2, r2, #1
 80030f2:	601a      	str	r2, [r3, #0]
 80030f4:	2300      	movs	r3, #0
 80030f6:	4618      	mov	r0, r3
 80030f8:	b003      	add	sp, #12
 80030fa:	f85d fb04 	ldr.w	pc, [sp], #4
 80030fe:	bf00      	nop
 8003100:	40010000 	.word	0x40010000

08003104 <TIM_Base_SetConfig>:
 8003104:	b084      	sub	sp, #16
 8003106:	9001      	str	r0, [sp, #4]
 8003108:	9100      	str	r1, [sp, #0]
 800310a:	2300      	movs	r3, #0
 800310c:	9303      	str	r3, [sp, #12]
 800310e:	9b01      	ldr	r3, [sp, #4]
 8003110:	681b      	ldr	r3, [r3, #0]
 8003112:	9303      	str	r3, [sp, #12]
 8003114:	9b01      	ldr	r3, [sp, #4]
 8003116:	4a33      	ldr	r2, [pc, #204]	; (80031e4 <TIM_Base_SetConfig+0xe0>)
 8003118:	4293      	cmp	r3, r2
 800311a:	d00f      	beq.n	800313c <TIM_Base_SetConfig+0x38>
 800311c:	9b01      	ldr	r3, [sp, #4]
 800311e:	f1b3 4f80 	cmp.w	r3, #1073741824	; 0x40000000
 8003122:	d00b      	beq.n	800313c <TIM_Base_SetConfig+0x38>
 8003124:	9b01      	ldr	r3, [sp, #4]
 8003126:	4a30      	ldr	r2, [pc, #192]	; (80031e8 <TIM_Base_SetConfig+0xe4>)
 8003128:	4293      	cmp	r3, r2
 800312a:	d007      	beq.n	800313c <TIM_Base_SetConfig+0x38>
 800312c:	9b01      	ldr	r3, [sp, #4]
 800312e:	4a2f      	ldr	r2, [pc, #188]	; (80031ec <TIM_Base_SetConfig+0xe8>)
 8003130:	4293      	cmp	r3, r2
 8003132:	d003      	beq.n	800313c <TIM_Base_SetConfig+0x38>
 8003134:	9b01      	ldr	r3, [sp, #4]
 8003136:	4a2e      	ldr	r2, [pc, #184]	; (80031f0 <TIM_Base_SetConfig+0xec>)
 8003138:	4293      	cmp	r3, r2
 800313a:	d101      	bne.n	8003140 <TIM_Base_SetConfig+0x3c>
 800313c:	2301      	movs	r3, #1
 800313e:	e000      	b.n	8003142 <TIM_Base_SetConfig+0x3e>
 8003140:	2300      	movs	r3, #0
 8003142:	2b00      	cmp	r3, #0
 8003144:	d008      	beq.n	8003158 <TIM_Base_SetConfig+0x54>
 8003146:	9b03      	ldr	r3, [sp, #12]
 8003148:	f023 0370 	bic.w	r3, r3, #112	; 0x70
 800314c:	9303      	str	r3, [sp, #12]
 800314e:	9b00      	ldr	r3, [sp, #0]
 8003150:	685b      	ldr	r3, [r3, #4]
 8003152:	9a03      	ldr	r2, [sp, #12]
 8003154:	4313      	orrs	r3, r2
 8003156:	9303      	str	r3, [sp, #12]
 8003158:	9b01      	ldr	r3, [sp, #4]
 800315a:	4a22      	ldr	r2, [pc, #136]	; (80031e4 <TIM_Base_SetConfig+0xe0>)
 800315c:	4293      	cmp	r3, r2
 800315e:	d01b      	beq.n	8003198 <TIM_Base_SetConfig+0x94>
 8003160:	9b01      	ldr	r3, [sp, #4]
 8003162:	f1b3 4f80 	cmp.w	r3, #1073741824	; 0x40000000
 8003166:	d017      	beq.n	8003198 <TIM_Base_SetConfig+0x94>
 8003168:	9b01      	ldr	r3, [sp, #4]
 800316a:	4a1f      	ldr	r2, [pc, #124]	; (80031e8 <TIM_Base_SetConfig+0xe4>)
 800316c:	4293      	cmp	r3, r2
 800316e:	d013      	beq.n	8003198 <TIM_Base_SetConfig+0x94>
 8003170:	9b01      	ldr	r3, [sp, #4]
 8003172:	4a1e      	ldr	r2, [pc, #120]	; (80031ec <TIM_Base_SetConfig+0xe8>)
 8003174:	4293      	cmp	r3, r2
 8003176:	d00f      	beq.n	8003198 <TIM_Base_SetConfig+0x94>
 8003178:	9b01      	ldr	r3, [sp, #4]
 800317a:	4a1d      	ldr	r2, [pc, #116]	; (80031f0 <TIM_Base_SetConfig+0xec>)
 800317c:	4293      	cmp	r3, r2
 800317e:	d00b      	beq.n	8003198 <TIM_Base_SetConfig+0x94>
 8003180:	9b01      	ldr	r3, [sp, #4]
 8003182:	4a1c      	ldr	r2, [pc, #112]	; (80031f4 <TIM_Base_SetConfig+0xf0>)
 8003184:	4293      	cmp	r3, r2
 8003186:	d007      	beq.n	8003198 <TIM_Base_SetConfig+0x94>
 8003188:	9b01      	ldr	r3, [sp, #4]
 800318a:	4a1b      	ldr	r2, [pc, #108]	; (80031f8 <TIM_Base_SetConfig+0xf4>)
 800318c:	4293      	cmp	r3, r2
 800318e:	d003      	beq.n	8003198 <TIM_Base_SetConfig+0x94>
 8003190:	9b01      	ldr	r3, [sp, #4]
 8003192:	4a1a      	ldr	r2, [pc, #104]	; (80031fc <TIM_Base_SetConfig+0xf8>)
 8003194:	4293      	cmp	r3, r2
 8003196:	d101      	bne.n	800319c <TIM_Base_SetConfig+0x98>
 8003198:	2301      	movs	r3, #1
 800319a:	e000      	b.n	800319e <TIM_Base_SetConfig+0x9a>
 800319c:	2300      	movs	r3, #0
 800319e:	2b00      	cmp	r3, #0
 80031a0:	d008      	beq.n	80031b4 <TIM_Base_SetConfig+0xb0>
 80031a2:	9b03      	ldr	r3, [sp, #12]
 80031a4:	f423 7340 	bic.w	r3, r3, #768	; 0x300
 80031a8:	9303      	str	r3, [sp, #12]
 80031aa:	9b00      	ldr	r3, [sp, #0]
 80031ac:	68db      	ldr	r3, [r3, #12]
 80031ae:	9a03      	ldr	r2, [sp, #12]
 80031b0:	4313      	orrs	r3, r2
 80031b2:	9303      	str	r3, [sp, #12]
 80031b4:	9b01      	ldr	r3, [sp, #4]
 80031b6:	9a03      	ldr	r2, [sp, #12]
 80031b8:	601a      	str	r2, [r3, #0]
 80031ba:	9b00      	ldr	r3, [sp, #0]
 80031bc:	689a      	ldr	r2, [r3, #8]
 80031be:	9b01      	ldr	r3, [sp, #4]
 80031c0:	62da      	str	r2, [r3, #44]	; 0x2c
 80031c2:	9b00      	ldr	r3, [sp, #0]
 80031c4:	681a      	ldr	r2, [r3, #0]
 80031c6:	9b01      	ldr	r3, [sp, #4]
 80031c8:	629a      	str	r2, [r3, #40]	; 0x28
 80031ca:	9b01      	ldr	r3, [sp, #4]
 80031cc:	4a05      	ldr	r2, [pc, #20]	; (80031e4 <TIM_Base_SetConfig+0xe0>)
 80031ce:	4293      	cmp	r3, r2
 80031d0:	d103      	bne.n	80031da <TIM_Base_SetConfig+0xd6>
 80031d2:	9b00      	ldr	r3, [sp, #0]
 80031d4:	691a      	ldr	r2, [r3, #16]
 80031d6:	9b01      	ldr	r3, [sp, #4]
 80031d8:	631a      	str	r2, [r3, #48]	; 0x30
 80031da:	9b01      	ldr	r3, [sp, #4]
 80031dc:	2201      	movs	r2, #1
 80031de:	615a      	str	r2, [r3, #20]
 80031e0:	b004      	add	sp, #16
 80031e2:	4770      	bx	lr
 80031e4:	40010000 	.word	0x40010000
 80031e8:	40000400 	.word	0x40000400
 80031ec:	40000800 	.word	0x40000800
 80031f0:	40000c00 	.word	0x40000c00
 80031f4:	40014000 	.word	0x40014000
 80031f8:	40014400 	.word	0x40014400
 80031fc:	40014800 	.word	0x40014800

08003200 <TIM_CCxChannelCmd>:
 8003200:	b086      	sub	sp, #24
 8003202:	9003      	str	r0, [sp, #12]
 8003204:	9102      	str	r1, [sp, #8]
 8003206:	9201      	str	r2, [sp, #4]
 8003208:	2300      	movs	r3, #0
 800320a:	9305      	str	r3, [sp, #20]
 800320c:	9b02      	ldr	r3, [sp, #8]
 800320e:	2201      	movs	r2, #1
 8003210:	fa02 f303 	lsl.w	r3, r2, r3
 8003214:	9305      	str	r3, [sp, #20]
 8003216:	9b03      	ldr	r3, [sp, #12]
 8003218:	6a1a      	ldr	r2, [r3, #32]
 800321a:	9b05      	ldr	r3, [sp, #20]
 800321c:	43db      	mvns	r3, r3
 800321e:	401a      	ands	r2, r3
 8003220:	9b03      	ldr	r3, [sp, #12]
 8003222:	621a      	str	r2, [r3, #32]
 8003224:	9b03      	ldr	r3, [sp, #12]
 8003226:	6a1a      	ldr	r2, [r3, #32]
 8003228:	9b02      	ldr	r3, [sp, #8]
 800322a:	9901      	ldr	r1, [sp, #4]
 800322c:	fa01 f303 	lsl.w	r3, r1, r3
 8003230:	431a      	orrs	r2, r3
 8003232:	9b03      	ldr	r3, [sp, #12]
 8003234:	621a      	str	r2, [r3, #32]
 8003236:	b006      	add	sp, #24
 8003238:	4770      	bx	lr
 800323a:	bf00      	nop

0800323c <HAL_UART_Init>:
 800323c:	b500      	push	{lr}
 800323e:	b083      	sub	sp, #12
 8003240:	9001      	str	r0, [sp, #4]
 8003242:	9b01      	ldr	r3, [sp, #4]
 8003244:	2b00      	cmp	r3, #0
 8003246:	d101      	bne.n	800324c <HAL_UART_Init+0x10>
 8003248:	2301      	movs	r3, #1
 800324a:	e038      	b.n	80032be <HAL_UART_Init+0x82>
 800324c:	9b01      	ldr	r3, [sp, #4]
 800324e:	f893 3039 	ldrb.w	r3, [r3, #57]	; 0x39
 8003252:	b2db      	uxtb	r3, r3
 8003254:	2b00      	cmp	r3, #0
 8003256:	d102      	bne.n	800325e <HAL_UART_Init+0x22>
 8003258:	9801      	ldr	r0, [sp, #4]
 800325a:	f000 f835 	bl	80032c8 <HAL_UART_MspInit>
 800325e:	9b01      	ldr	r3, [sp, #4]
 8003260:	2202      	movs	r2, #2
 8003262:	f883 2039 	strb.w	r2, [r3, #57]	; 0x39
 8003266:	9b01      	ldr	r3, [sp, #4]
 8003268:	681b      	ldr	r3, [r3, #0]
 800326a:	9a01      	ldr	r2, [sp, #4]
 800326c:	6812      	ldr	r2, [r2, #0]
 800326e:	68d2      	ldr	r2, [r2, #12]
 8003270:	f422 5200 	bic.w	r2, r2, #8192	; 0x2000
 8003274:	60da      	str	r2, [r3, #12]
 8003276:	9801      	ldr	r0, [sp, #4]
 8003278:	f000 f82a 	bl	80032d0 <UART_SetConfig>
 800327c:	9b01      	ldr	r3, [sp, #4]
 800327e:	681b      	ldr	r3, [r3, #0]
 8003280:	9a01      	ldr	r2, [sp, #4]
 8003282:	6812      	ldr	r2, [r2, #0]
 8003284:	6912      	ldr	r2, [r2, #16]
 8003286:	f422 4290 	bic.w	r2, r2, #18432	; 0x4800
 800328a:	611a      	str	r2, [r3, #16]
 800328c:	9b01      	ldr	r3, [sp, #4]
 800328e:	681b      	ldr	r3, [r3, #0]
 8003290:	9a01      	ldr	r2, [sp, #4]
 8003292:	6812      	ldr	r2, [r2, #0]
 8003294:	6952      	ldr	r2, [r2, #20]
 8003296:	f022 022a 	bic.w	r2, r2, #42	; 0x2a
 800329a:	615a      	str	r2, [r3, #20]
 800329c:	9b01      	ldr	r3, [sp, #4]
 800329e:	681b      	ldr	r3, [r3, #0]
 80032a0:	9a01      	ldr	r2, [sp, #4]
 80032a2:	6812      	ldr	r2, [r2, #0]
 80032a4:	68d2      	ldr	r2, [r2, #12]
 80032a6:	f442 5200 	orr.w	r2, r2, #8192	; 0x2000
 80032aa:	60da      	str	r2, [r3, #12]
 80032ac:	9b01      	ldr	r3, [sp, #4]
 80032ae:	2200      	movs	r2, #0
 80032b0:	f883 203a 	strb.w	r2, [r3, #58]	; 0x3a
 80032b4:	9b01      	ldr	r3, [sp, #4]
 80032b6:	2201      	movs	r2, #1
 80032b8:	f883 2039 	strb.w	r2, [r3, #57]	; 0x39
 80032bc:	2300      	movs	r3, #0
 80032be:	4618      	mov	r0, r3
 80032c0:	b003      	add	sp, #12
 80032c2:	f85d fb04 	ldr.w	pc, [sp], #4
 80032c6:	bf00      	nop

080032c8 <HAL_UART_MspInit>:
 80032c8:	b082      	sub	sp, #8
 80032ca:	9001      	str	r0, [sp, #4]
 80032cc:	b002      	add	sp, #8
 80032ce:	4770      	bx	lr

080032d0 <UART_SetConfig>:
 80032d0:	b570      	push	{r4, r5, r6, lr}
 80032d2:	b084      	sub	sp, #16
 80032d4:	9001      	str	r0, [sp, #4]
 80032d6:	2300      	movs	r3, #0
 80032d8:	9303      	str	r3, [sp, #12]
 80032da:	9b01      	ldr	r3, [sp, #4]
 80032dc:	681b      	ldr	r3, [r3, #0]
 80032de:	691b      	ldr	r3, [r3, #16]
 80032e0:	9303      	str	r3, [sp, #12]
 80032e2:	9b03      	ldr	r3, [sp, #12]
 80032e4:	f423 5340 	bic.w	r3, r3, #12288	; 0x3000
 80032e8:	9303      	str	r3, [sp, #12]
 80032ea:	9b01      	ldr	r3, [sp, #4]
 80032ec:	68db      	ldr	r3, [r3, #12]
 80032ee:	9a03      	ldr	r2, [sp, #12]
 80032f0:	4313      	orrs	r3, r2
 80032f2:	9303      	str	r3, [sp, #12]
 80032f4:	9b01      	ldr	r3, [sp, #4]
 80032f6:	681b      	ldr	r3, [r3, #0]
 80032f8:	9a03      	ldr	r2, [sp, #12]
 80032fa:	611a      	str	r2, [r3, #16]
 80032fc:	9b01      	ldr	r3, [sp, #4]
 80032fe:	681b      	ldr	r3, [r3, #0]
 8003300:	68db      	ldr	r3, [r3, #12]
 8003302:	9303      	str	r3, [sp, #12]
 8003304:	9b03      	ldr	r3, [sp, #12]
 8003306:	f423 4316 	bic.w	r3, r3, #38400	; 0x9600
 800330a:	f023 030c 	bic.w	r3, r3, #12
 800330e:	9303      	str	r3, [sp, #12]
 8003310:	9b01      	ldr	r3, [sp, #4]
 8003312:	689a      	ldr	r2, [r3, #8]
 8003314:	9b01      	ldr	r3, [sp, #4]
 8003316:	691b      	ldr	r3, [r3, #16]
 8003318:	431a      	orrs	r2, r3
 800331a:	9b01      	ldr	r3, [sp, #4]
 800331c:	695b      	ldr	r3, [r3, #20]
 800331e:	431a      	orrs	r2, r3
 8003320:	9b01      	ldr	r3, [sp, #4]
 8003322:	69db      	ldr	r3, [r3, #28]
 8003324:	4313      	orrs	r3, r2
 8003326:	9a03      	ldr	r2, [sp, #12]
 8003328:	4313      	orrs	r3, r2
 800332a:	9303      	str	r3, [sp, #12]
 800332c:	9b01      	ldr	r3, [sp, #4]
 800332e:	681b      	ldr	r3, [r3, #0]
 8003330:	9a03      	ldr	r2, [sp, #12]
 8003332:	60da      	str	r2, [r3, #12]
 8003334:	9b01      	ldr	r3, [sp, #4]
 8003336:	681b      	ldr	r3, [r3, #0]
 8003338:	695b      	ldr	r3, [r3, #20]
 800333a:	9303      	str	r3, [sp, #12]
 800333c:	9b03      	ldr	r3, [sp, #12]
 800333e:	f423 7340 	bic.w	r3, r3, #768	; 0x300
 8003342:	9303      	str	r3, [sp, #12]
 8003344:	9b01      	ldr	r3, [sp, #4]
 8003346:	699b      	ldr	r3, [r3, #24]
 8003348:	9a03      	ldr	r2, [sp, #12]
 800334a:	4313      	orrs	r3, r2
 800334c:	9303      	str	r3, [sp, #12]
 800334e:	9b01      	ldr	r3, [sp, #4]
 8003350:	681b      	ldr	r3, [r3, #0]
 8003352:	9a03      	ldr	r2, [sp, #12]
 8003354:	615a      	str	r2, [r3, #20]
 8003356:	9b01      	ldr	r3, [sp, #4]
 8003358:	69db      	ldr	r3, [r3, #28]
 800335a:	f5b3 4f00 	cmp.w	r3, #32768	; 0x8000
 800335e:	f040 808c 	bne.w	800347a <UART_SetConfig+0x1aa>
 8003362:	9b01      	ldr	r3, [sp, #4]
 8003364:	681b      	ldr	r3, [r3, #0]
 8003366:	4a8b      	ldr	r2, [pc, #556]	; (8003594 <UART_SetConfig+0x2c4>)
 8003368:	4293      	cmp	r3, r2
 800336a:	d004      	beq.n	8003376 <UART_SetConfig+0xa6>
 800336c:	9b01      	ldr	r3, [sp, #4]
 800336e:	681b      	ldr	r3, [r3, #0]
 8003370:	4a89      	ldr	r2, [pc, #548]	; (8003598 <UART_SetConfig+0x2c8>)
 8003372:	4293      	cmp	r3, r2
 8003374:	d140      	bne.n	80033f8 <UART_SetConfig+0x128>
 8003376:	9b01      	ldr	r3, [sp, #4]
 8003378:	681c      	ldr	r4, [r3, #0]
 800337a:	f7ff fe4b 	bl	8003014 <HAL_RCC_GetPCLK2Freq>
 800337e:	4602      	mov	r2, r0
 8003380:	4613      	mov	r3, r2
 8003382:	009b      	lsls	r3, r3, #2
 8003384:	4413      	add	r3, r2
 8003386:	009a      	lsls	r2, r3, #2
 8003388:	441a      	add	r2, r3
 800338a:	9b01      	ldr	r3, [sp, #4]
 800338c:	685b      	ldr	r3, [r3, #4]
 800338e:	005b      	lsls	r3, r3, #1
 8003390:	fbb2 f3f3 	udiv	r3, r2, r3
 8003394:	4a81      	ldr	r2, [pc, #516]	; (800359c <UART_SetConfig+0x2cc>)
 8003396:	fba2 2303 	umull	r2, r3, r2, r3
 800339a:	095b      	lsrs	r3, r3, #5
 800339c:	011d      	lsls	r5, r3, #4
 800339e:	f7ff fe39 	bl	8003014 <HAL_RCC_GetPCLK2Freq>
 80033a2:	4602      	mov	r2, r0
 80033a4:	4613      	mov	r3, r2
 80033a6:	009b      	lsls	r3, r3, #2
 80033a8:	4413      	add	r3, r2
 80033aa:	009a      	lsls	r2, r3, #2
 80033ac:	441a      	add	r2, r3
 80033ae:	9b01      	ldr	r3, [sp, #4]
 80033b0:	685b      	ldr	r3, [r3, #4]
 80033b2:	005b      	lsls	r3, r3, #1
 80033b4:	fbb2 f6f3 	udiv	r6, r2, r3
 80033b8:	f7ff fe2c 	bl	8003014 <HAL_RCC_GetPCLK2Freq>
 80033bc:	4602      	mov	r2, r0
 80033be:	4613      	mov	r3, r2
 80033c0:	009b      	lsls	r3, r3, #2
 80033c2:	4413      	add	r3, r2
 80033c4:	009a      	lsls	r2, r3, #2
 80033c6:	441a      	add	r2, r3
 80033c8:	9b01      	ldr	r3, [sp, #4]
 80033ca:	685b      	ldr	r3, [r3, #4]
 80033cc:	005b      	lsls	r3, r3, #1
 80033ce:	fbb2 f3f3 	udiv	r3, r2, r3
 80033d2:	4a72      	ldr	r2, [pc, #456]	; (800359c <UART_SetConfig+0x2cc>)
 80033d4:	fba2 2303 	umull	r2, r3, r2, r3
 80033d8:	095b      	lsrs	r3, r3, #5
 80033da:	2264      	movs	r2, #100	; 0x64
 80033dc:	fb02 f303 	mul.w	r3, r2, r3
 80033e0:	1af3      	subs	r3, r6, r3
 80033e2:	011b      	lsls	r3, r3, #4
 80033e4:	3332      	adds	r3, #50	; 0x32
 80033e6:	4a6d      	ldr	r2, [pc, #436]	; (800359c <UART_SetConfig+0x2cc>)
 80033e8:	fba2 2303 	umull	r2, r3, r2, r3
 80033ec:	095b      	lsrs	r3, r3, #5
 80033ee:	f003 030f 	and.w	r3, r3, #15
 80033f2:	432b      	orrs	r3, r5
 80033f4:	60a3      	str	r3, [r4, #8]
 80033f6:	e0cb      	b.n	8003590 <UART_SetConfig+0x2c0>
 80033f8:	9b01      	ldr	r3, [sp, #4]
 80033fa:	681c      	ldr	r4, [r3, #0]
 80033fc:	f7ff fde4 	bl	8002fc8 <HAL_RCC_GetPCLK1Freq>
 8003400:	4602      	mov	r2, r0
 8003402:	4613      	mov	r3, r2
 8003404:	009b      	lsls	r3, r3, #2
 8003406:	4413      	add	r3, r2
 8003408:	009a      	lsls	r2, r3, #2
 800340a:	441a      	add	r2, r3
 800340c:	9b01      	ldr	r3, [sp, #4]
 800340e:	685b      	ldr	r3, [r3, #4]
 8003410:	005b      	lsls	r3, r3, #1
 8003412:	fbb2 f3f3 	udiv	r3, r2, r3
 8003416:	4a61      	ldr	r2, [pc, #388]	; (800359c <UART_SetConfig+0x2cc>)
 8003418:	fba2 2303 	umull	r2, r3, r2, r3
 800341c:	095b      	lsrs	r3, r3, #5
 800341e:	011d      	lsls	r5, r3, #4
 8003420:	f7ff fdd2 	bl	8002fc8 <HAL_RCC_GetPCLK1Freq>
 8003424:	4602      	mov	r2, r0
 8003426:	4613      	mov	r3, r2
 8003428:	009b      	lsls	r3, r3, #2
 800342a:	4413      	add	r3, r2
 800342c:	009a      	lsls	r2, r3, #2
 800342e:	441a      	add	r2, r3
 8003430:	9b01      	ldr	r3, [sp, #4]
 8003432:	685b      	ldr	r3, [r3, #4]
 8003434:	005b      	lsls	r3, r3, #1
 8003436:	fbb2 f6f3 	udiv	r6, r2, r3
 800343a:	f7ff fdc5 	bl	8002fc8 <HAL_RCC_GetPCLK1Freq>
 800343e:	4602      	mov	r2, r0
 8003440:	4613      	mov	r3, r2
 8003442:	009b      	lsls	r3, r3, #2
 8003444:	4413      	add	r3, r2
 8003446:	009a      	lsls	r2, r3, #2
 8003448:	441a      	add	r2, r3
 800344a:	9b01      	ldr	r3, [sp, #4]
 800344c:	685b      	ldr	r3, [r3, #4]
 800344e:	005b      	lsls	r3, r3, #1
 8003450:	fbb2 f3f3 	udiv	r3, r2, r3
 8003454:	4a51      	ldr	r2, [pc, #324]	; (800359c <UART_SetConfig+0x2cc>)
 8003456:	fba2 2303 	umull	r2, r3, r2, r3
 800345a:	095b      	lsrs	r3, r3, #5
 800345c:	2264      	movs	r2, #100	; 0x64
 800345e:	fb02 f303 	mul.w	r3, r2, r3
 8003462:	1af3      	subs	r3, r6, r3
 8003464:	011b      	lsls	r3, r3, #4
 8003466:	3332      	adds	r3, #50	; 0x32
 8003468:	4a4c      	ldr	r2, [pc, #304]	; (800359c <UART_SetConfig+0x2cc>)
 800346a:	fba2 2303 	umull	r2, r3, r2, r3
 800346e:	095b      	lsrs	r3, r3, #5
 8003470:	f003 030f 	and.w	r3, r3, #15
 8003474:	432b      	orrs	r3, r5
 8003476:	60a3      	str	r3, [r4, #8]
 8003478:	e08a      	b.n	8003590 <UART_SetConfig+0x2c0>
 800347a:	9b01      	ldr	r3, [sp, #4]
 800347c:	681b      	ldr	r3, [r3, #0]
 800347e:	4a45      	ldr	r2, [pc, #276]	; (8003594 <UART_SetConfig+0x2c4>)
 8003480:	4293      	cmp	r3, r2
 8003482:	d004      	beq.n	800348e <UART_SetConfig+0x1be>
 8003484:	9b01      	ldr	r3, [sp, #4]
 8003486:	681b      	ldr	r3, [r3, #0]
 8003488:	4a43      	ldr	r2, [pc, #268]	; (8003598 <UART_SetConfig+0x2c8>)
 800348a:	4293      	cmp	r3, r2
 800348c:	d140      	bne.n	8003510 <UART_SetConfig+0x240>
 800348e:	9b01      	ldr	r3, [sp, #4]
 8003490:	681c      	ldr	r4, [r3, #0]
 8003492:	f7ff fdbf 	bl	8003014 <HAL_RCC_GetPCLK2Freq>
 8003496:	4602      	mov	r2, r0
 8003498:	4613      	mov	r3, r2
 800349a:	009b      	lsls	r3, r3, #2
 800349c:	4413      	add	r3, r2
 800349e:	009a      	lsls	r2, r3, #2
 80034a0:	441a      	add	r2, r3
 80034a2:	9b01      	ldr	r3, [sp, #4]
 80034a4:	685b      	ldr	r3, [r3, #4]
 80034a6:	009b      	lsls	r3, r3, #2
 80034a8:	fbb2 f3f3 	udiv	r3, r2, r3
 80034ac:	4a3b      	ldr	r2, [pc, #236]	; (800359c <UART_SetConfig+0x2cc>)
 80034ae:	fba2 2303 	umull	r2, r3, r2, r3
 80034b2:	095b      	lsrs	r3, r3, #5
 80034b4:	011d      	lsls	r5, r3, #4
 80034b6:	f7ff fdad 	bl	8003014 <HAL_RCC_GetPCLK2Freq>
 80034ba:	4602      	mov	r2, r0
 80034bc:	4613      	mov	r3, r2
 80034be:	009b      	lsls	r3, r3, #2
 80034c0:	4413      	add	r3, r2
 80034c2:	009a      	lsls	r2, r3, #2
 80034c4:	441a      	add	r2, r3
 80034c6:	9b01      	ldr	r3, [sp, #4]
 80034c8:	685b      	ldr	r3, [r3, #4]
 80034ca:	009b      	lsls	r3, r3, #2
 80034cc:	fbb2 f6f3 	udiv	r6, r2, r3
 80034d0:	f7ff fda0 	bl	8003014 <HAL_RCC_GetPCLK2Freq>
 80034d4:	4602      	mov	r2, r0
 80034d6:	4613      	mov	r3, r2
 80034d8:	009b      	lsls	r3, r3, #2
 80034da:	4413      	add	r3, r2
 80034dc:	009a      	lsls	r2, r3, #2
 80034de:	441a      	add	r2, r3
 80034e0:	9b01      	ldr	r3, [sp, #4]
 80034e2:	685b      	ldr	r3, [r3, #4]
 80034e4:	009b      	lsls	r3, r3, #2
 80034e6:	fbb2 f3f3 	udiv	r3, r2, r3
 80034ea:	4a2c      	ldr	r2, [pc, #176]	; (800359c <UART_SetConfig+0x2cc>)
 80034ec:	fba2 2303 	umull	r2, r3, r2, r3
 80034f0:	095b      	lsrs	r3, r3, #5
 80034f2:	2264      	movs	r2, #100	; 0x64
 80034f4:	fb02 f303 	mul.w	r3, r2, r3
 80034f8:	1af3      	subs	r3, r6, r3
 80034fa:	011b      	lsls	r3, r3, #4
 80034fc:	3332      	adds	r3, #50	; 0x32
 80034fe:	4a27      	ldr	r2, [pc, #156]	; (800359c <UART_SetConfig+0x2cc>)
 8003500:	fba2 2303 	umull	r2, r3, r2, r3
 8003504:	095b      	lsrs	r3, r3, #5
 8003506:	f003 030f 	and.w	r3, r3, #15
 800350a:	432b      	orrs	r3, r5
 800350c:	60a3      	str	r3, [r4, #8]
 800350e:	e03f      	b.n	8003590 <UART_SetConfig+0x2c0>
 8003510:	9b01      	ldr	r3, [sp, #4]
 8003512:	681c      	ldr	r4, [r3, #0]
 8003514:	f7ff fd58 	bl	8002fc8 <HAL_RCC_GetPCLK1Freq>
 8003518:	4602      	mov	r2, r0
 800351a:	4613      	mov	r3, r2
 800351c:	009b      	lsls	r3, r3, #2
 800351e:	4413      	add	r3, r2
 8003520:	009a      	lsls	r2, r3, #2
 8003522:	441a      	add	r2, r3
 8003524:	9b01      	ldr	r3, [sp, #4]
 8003526:	685b      	ldr	r3, [r3, #4]
 8003528:	009b      	lsls	r3, r3, #2
 800352a:	fbb2 f3f3 	udiv	r3, r2, r3
 800352e:	4a1b      	ldr	r2, [pc, #108]	; (800359c <UART_SetConfig+0x2cc>)
 8003530:	fba2 2303 	umull	r2, r3, r2, r3
 8003534:	095b      	lsrs	r3, r3, #5
 8003536:	011d      	lsls	r5, r3, #4
 8003538:	f7ff fd46 	bl	8002fc8 <HAL_RCC_GetPCLK1Freq>
 800353c:	4602      	mov	r2, r0
 800353e:	4613      	mov	r3, r2
 8003540:	009b      	lsls	r3, r3, #2
 8003542:	4413      	add	r3, r2
 8003544:	009a      	lsls	r2, r3, #2
 8003546:	441a      	add	r2, r3
 8003548:	9b01      	ldr	r3, [sp, #4]
 800354a:	685b      	ldr	r3, [r3, #4]
 800354c:	009b      	lsls	r3, r3, #2
 800354e:	fbb2 f6f3 	udiv	r6, r2, r3
 8003552:	f7ff fd39 	bl	8002fc8 <HAL_RCC_GetPCLK1Freq>
 8003556:	4602      	mov	r2, r0
 8003558:	4613      	mov	r3, r2
 800355a:	009b      	lsls	r3, r3, #2
 800355c:	4413      	add	r3, r2
 800355e:	009a      	lsls	r2, r3, #2
 8003560:	441a      	add	r2, r3
 8003562:	9b01      	ldr	r3, [sp, #4]
 8003564:	685b      	ldr	r3, [r3, #4]
 8003566:	009b      	lsls	r3, r3, #2
 8003568:	fbb2 f3f3 	udiv	r3, r2, r3
 800356c:	4a0b      	ldr	r2, [pc, #44]	; (800359c <UART_SetConfig+0x2cc>)
 800356e:	fba2 2303 	umull	r2, r3, r2, r3
 8003572:	095b      	lsrs	r3, r3, #5
 8003574:	2264      	movs	r2, #100	; 0x64
 8003576:	fb02 f303 	mul.w	r3, r2, r3
 800357a:	1af3      	subs	r3, r6, r3
 800357c:	011b      	lsls	r3, r3, #4
 800357e:	3332      	adds	r3, #50	; 0x32
 8003580:	4a06      	ldr	r2, [pc, #24]	; (800359c <UART_SetConfig+0x2cc>)
 8003582:	fba2 2303 	umull	r2, r3, r2, r3
 8003586:	095b      	lsrs	r3, r3, #5
 8003588:	f003 030f 	and.w	r3, r3, #15
 800358c:	432b      	orrs	r3, r5
 800358e:	60a3      	str	r3, [r4, #8]
 8003590:	b004      	add	sp, #16
 8003592:	bd70      	pop	{r4, r5, r6, pc}
 8003594:	40011000 	.word	0x40011000
 8003598:	40011400 	.word	0x40011400
 800359c:	51eb851f 	.word	0x51eb851f

080035a0 <NVIC_SetVector>:
 80035a0:	b086      	sub	sp, #24
 80035a2:	4603      	mov	r3, r0
 80035a4:	9100      	str	r1, [sp, #0]
 80035a6:	f88d 3007 	strb.w	r3, [sp, #7]
 80035aa:	4b17      	ldr	r3, [pc, #92]	; (8003608 <NVIC_SetVector+0x68>)
 80035ac:	689b      	ldr	r3, [r3, #8]
 80035ae:	9305      	str	r3, [sp, #20]
 80035b0:	4b15      	ldr	r3, [pc, #84]	; (8003608 <NVIC_SetVector+0x68>)
 80035b2:	689b      	ldr	r3, [r3, #8]
 80035b4:	f1b3 6f00 	cmp.w	r3, #134217728	; 0x8000000
 80035b8:	d11b      	bne.n	80035f2 <NVIC_SetVector+0x52>
 80035ba:	9b05      	ldr	r3, [sp, #20]
 80035bc:	9303      	str	r3, [sp, #12]
 80035be:	f04f 5300 	mov.w	r3, #536870912	; 0x20000000
 80035c2:	9305      	str	r3, [sp, #20]
 80035c4:	2300      	movs	r3, #0
 80035c6:	9304      	str	r3, [sp, #16]
 80035c8:	e00c      	b.n	80035e4 <NVIC_SetVector+0x44>
 80035ca:	9b04      	ldr	r3, [sp, #16]
 80035cc:	009b      	lsls	r3, r3, #2
 80035ce:	9a05      	ldr	r2, [sp, #20]
 80035d0:	4413      	add	r3, r2
 80035d2:	9a04      	ldr	r2, [sp, #16]
 80035d4:	0092      	lsls	r2, r2, #2
 80035d6:	9903      	ldr	r1, [sp, #12]
 80035d8:	440a      	add	r2, r1
 80035da:	6812      	ldr	r2, [r2, #0]
 80035dc:	601a      	str	r2, [r3, #0]
 80035de:	9b04      	ldr	r3, [sp, #16]
 80035e0:	3301      	adds	r3, #1
 80035e2:	9304      	str	r3, [sp, #16]
 80035e4:	9b04      	ldr	r3, [sp, #16]
 80035e6:	2b64      	cmp	r3, #100	; 0x64
 80035e8:	d9ef      	bls.n	80035ca <NVIC_SetVector+0x2a>
 80035ea:	4b07      	ldr	r3, [pc, #28]	; (8003608 <NVIC_SetVector+0x68>)
 80035ec:	f04f 5200 	mov.w	r2, #536870912	; 0x20000000
 80035f0:	609a      	str	r2, [r3, #8]
 80035f2:	f99d 3007 	ldrsb.w	r3, [sp, #7]
 80035f6:	3310      	adds	r3, #16
 80035f8:	009b      	lsls	r3, r3, #2
 80035fa:	9a05      	ldr	r2, [sp, #20]
 80035fc:	4413      	add	r3, r2
 80035fe:	9a00      	ldr	r2, [sp, #0]
 8003600:	601a      	str	r2, [r3, #0]
 8003602:	b006      	add	sp, #24
 8003604:	4770      	bx	lr
 8003606:	bf00      	nop
 8003608:	e000ed00 	.word	0xe000ed00

0800360c <NVIC_EnableIRQ>:
 800360c:	b082      	sub	sp, #8
 800360e:	4603      	mov	r3, r0
 8003610:	f88d 3007 	strb.w	r3, [sp, #7]
 8003614:	4907      	ldr	r1, [pc, #28]	; (8003634 <NVIC_EnableIRQ+0x28>)
 8003616:	f99d 3007 	ldrsb.w	r3, [sp, #7]
 800361a:	095b      	lsrs	r3, r3, #5
 800361c:	f89d 2007 	ldrb.w	r2, [sp, #7]
 8003620:	f002 021f 	and.w	r2, r2, #31
 8003624:	2001      	movs	r0, #1
 8003626:	fa00 f202 	lsl.w	r2, r0, r2
 800362a:	f841 2023 	str.w	r2, [r1, r3, lsl #2]
 800362e:	b002      	add	sp, #8
 8003630:	4770      	bx	lr
 8003632:	bf00      	nop
 8003634:	e000e100 	.word	0xe000e100

08003638 <timer_irq_handler>:
 8003638:	b500      	push	{lr}
 800363a:	b083      	sub	sp, #12
 800363c:	4b1a      	ldr	r3, [pc, #104]	; (80036a8 <timer_irq_handler+0x70>)
 800363e:	681b      	ldr	r3, [r3, #0]
 8003640:	68db      	ldr	r3, [r3, #12]
 8003642:	f003 0302 	and.w	r3, r3, #2
 8003646:	2b00      	cmp	r3, #0
 8003648:	d006      	beq.n	8003658 <timer_irq_handler+0x20>
 800364a:	4b17      	ldr	r3, [pc, #92]	; (80036a8 <timer_irq_handler+0x70>)
 800364c:	681b      	ldr	r3, [r3, #0]
 800364e:	f06f 0202 	mvn.w	r2, #2
 8003652:	611a      	str	r2, [r3, #16]
 8003654:	f7fe fdf4 	bl	8002240 <us_ticker_irq_handler>
 8003658:	4b13      	ldr	r3, [pc, #76]	; (80036a8 <timer_irq_handler+0x70>)
 800365a:	681b      	ldr	r3, [r3, #0]
 800365c:	68db      	ldr	r3, [r3, #12]
 800365e:	f003 0304 	and.w	r3, r3, #4
 8003662:	2b00      	cmp	r3, #0
 8003664:	d01c      	beq.n	80036a0 <timer_irq_handler+0x68>
 8003666:	4b10      	ldr	r3, [pc, #64]	; (80036a8 <timer_irq_handler+0x70>)
 8003668:	681b      	ldr	r3, [r3, #0]
 800366a:	f06f 0204 	mvn.w	r2, #4
 800366e:	611a      	str	r2, [r3, #16]
 8003670:	4b0d      	ldr	r3, [pc, #52]	; (80036a8 <timer_irq_handler+0x70>)
 8003672:	681b      	ldr	r3, [r3, #0]
 8003674:	6a5b      	ldr	r3, [r3, #36]	; 0x24
 8003676:	9301      	str	r3, [sp, #4]
 8003678:	4b0c      	ldr	r3, [pc, #48]	; (80036ac <timer_irq_handler+0x74>)
 800367a:	681b      	ldr	r3, [r3, #0]
 800367c:	9a01      	ldr	r2, [sp, #4]
 800367e:	1ad3      	subs	r3, r2, r3
 8003680:	f5b3 7f7a 	cmp.w	r3, #1000	; 0x3e8
 8003684:	d30c      	bcc.n	80036a0 <timer_irq_handler+0x68>
 8003686:	f7fe fe67 	bl	8002358 <HAL_IncTick>
 800368a:	4b07      	ldr	r3, [pc, #28]	; (80036a8 <timer_irq_handler+0x70>)
 800368c:	681b      	ldr	r3, [r3, #0]
 800368e:	3334      	adds	r3, #52	; 0x34
 8003690:	3304      	adds	r3, #4
 8003692:	9a01      	ldr	r2, [sp, #4]
 8003694:	f502 727a 	add.w	r2, r2, #1000	; 0x3e8
 8003698:	601a      	str	r2, [r3, #0]
 800369a:	4a04      	ldr	r2, [pc, #16]	; (80036ac <timer_irq_handler+0x74>)
 800369c:	9b01      	ldr	r3, [sp, #4]
 800369e:	6013      	str	r3, [r2, #0]
 80036a0:	b003      	add	sp, #12
 80036a2:	f85d fb04 	ldr.w	pc, [sp], #4
 80036a6:	bf00      	nop
 80036a8:	200005cc 	.word	0x200005cc
 80036ac:	20000458 	.word	0x20000458

080036b0 <HAL_InitTick>:
 80036b0:	b500      	push	{lr}
 80036b2:	b083      	sub	sp, #12
 80036b4:	9001      	str	r0, [sp, #4]
 80036b6:	4a2d      	ldr	r2, [pc, #180]	; (800376c <HAL_InitTick+0xbc>)
 80036b8:	4b2c      	ldr	r3, [pc, #176]	; (800376c <HAL_InitTick+0xbc>)
 80036ba:	6c1b      	ldr	r3, [r3, #64]	; 0x40
 80036bc:	f043 0308 	orr.w	r3, r3, #8
 80036c0:	6413      	str	r3, [r2, #64]	; 0x40
 80036c2:	4a2a      	ldr	r2, [pc, #168]	; (800376c <HAL_InitTick+0xbc>)
 80036c4:	4b29      	ldr	r3, [pc, #164]	; (800376c <HAL_InitTick+0xbc>)
 80036c6:	6a1b      	ldr	r3, [r3, #32]
 80036c8:	f043 0308 	orr.w	r3, r3, #8
 80036cc:	6213      	str	r3, [r2, #32]
 80036ce:	4a27      	ldr	r2, [pc, #156]	; (800376c <HAL_InitTick+0xbc>)
 80036d0:	4b26      	ldr	r3, [pc, #152]	; (800376c <HAL_InitTick+0xbc>)
 80036d2:	6a1b      	ldr	r3, [r3, #32]
 80036d4:	f023 0308 	bic.w	r3, r3, #8
 80036d8:	6213      	str	r3, [r2, #32]
 80036da:	f000 f89d 	bl	8003818 <SystemCoreClockUpdate>
 80036de:	4b24      	ldr	r3, [pc, #144]	; (8003770 <HAL_InitTick+0xc0>)
 80036e0:	4a24      	ldr	r2, [pc, #144]	; (8003774 <HAL_InitTick+0xc4>)
 80036e2:	601a      	str	r2, [r3, #0]
 80036e4:	4b22      	ldr	r3, [pc, #136]	; (8003770 <HAL_InitTick+0xc0>)
 80036e6:	f04f 32ff 	mov.w	r2, #4294967295
 80036ea:	60da      	str	r2, [r3, #12]
 80036ec:	4b22      	ldr	r3, [pc, #136]	; (8003778 <HAL_InitTick+0xc8>)
 80036ee:	681b      	ldr	r3, [r3, #0]
 80036f0:	4a22      	ldr	r2, [pc, #136]	; (800377c <HAL_InitTick+0xcc>)
 80036f2:	fba2 2303 	umull	r2, r3, r2, r3
 80036f6:	0c9b      	lsrs	r3, r3, #18
 80036f8:	3b01      	subs	r3, #1
 80036fa:	4a1d      	ldr	r2, [pc, #116]	; (8003770 <HAL_InitTick+0xc0>)
 80036fc:	6053      	str	r3, [r2, #4]
 80036fe:	4b1c      	ldr	r3, [pc, #112]	; (8003770 <HAL_InitTick+0xc0>)
 8003700:	2200      	movs	r2, #0
 8003702:	611a      	str	r2, [r3, #16]
 8003704:	4b1a      	ldr	r3, [pc, #104]	; (8003770 <HAL_InitTick+0xc0>)
 8003706:	2200      	movs	r2, #0
 8003708:	609a      	str	r2, [r3, #8]
 800370a:	4b19      	ldr	r3, [pc, #100]	; (8003770 <HAL_InitTick+0xc0>)
 800370c:	2200      	movs	r2, #0
 800370e:	615a      	str	r2, [r3, #20]
 8003710:	4817      	ldr	r0, [pc, #92]	; (8003770 <HAL_InitTick+0xc0>)
 8003712:	f7ff fca5 	bl	8003060 <HAL_TIM_OC_Init>
 8003716:	4b1a      	ldr	r3, [pc, #104]	; (8003780 <HAL_InitTick+0xd0>)
 8003718:	2032      	movs	r0, #50	; 0x32
 800371a:	4619      	mov	r1, r3
 800371c:	f7ff ff40 	bl	80035a0 <NVIC_SetVector>
 8003720:	2032      	movs	r0, #50	; 0x32
 8003722:	f7ff ff73 	bl	800360c <NVIC_EnableIRQ>
 8003726:	4812      	ldr	r0, [pc, #72]	; (8003770 <HAL_InitTick+0xc0>)
 8003728:	2100      	movs	r1, #0
 800372a:	f7ff fcc3 	bl	80030b4 <HAL_TIM_OC_Start>
 800372e:	4810      	ldr	r0, [pc, #64]	; (8003770 <HAL_InitTick+0xc0>)
 8003730:	2104      	movs	r1, #4
 8003732:	f7ff fcbf 	bl	80030b4 <HAL_TIM_OC_Start>
 8003736:	4b0e      	ldr	r3, [pc, #56]	; (8003770 <HAL_InitTick+0xc0>)
 8003738:	681b      	ldr	r3, [r3, #0]
 800373a:	6a5b      	ldr	r3, [r3, #36]	; 0x24
 800373c:	4a11      	ldr	r2, [pc, #68]	; (8003784 <HAL_InitTick+0xd4>)
 800373e:	6013      	str	r3, [r2, #0]
 8003740:	4b0b      	ldr	r3, [pc, #44]	; (8003770 <HAL_InitTick+0xc0>)
 8003742:	681b      	ldr	r3, [r3, #0]
 8003744:	3334      	adds	r3, #52	; 0x34
 8003746:	3304      	adds	r3, #4
 8003748:	4a0e      	ldr	r2, [pc, #56]	; (8003784 <HAL_InitTick+0xd4>)
 800374a:	6812      	ldr	r2, [r2, #0]
 800374c:	f502 727a 	add.w	r2, r2, #1000	; 0x3e8
 8003750:	601a      	str	r2, [r3, #0]
 8003752:	4b07      	ldr	r3, [pc, #28]	; (8003770 <HAL_InitTick+0xc0>)
 8003754:	681b      	ldr	r3, [r3, #0]
 8003756:	4a06      	ldr	r2, [pc, #24]	; (8003770 <HAL_InitTick+0xc0>)
 8003758:	6812      	ldr	r2, [r2, #0]
 800375a:	68d2      	ldr	r2, [r2, #12]
 800375c:	f042 0204 	orr.w	r2, r2, #4
 8003760:	60da      	str	r2, [r3, #12]
 8003762:	2300      	movs	r3, #0
 8003764:	4618      	mov	r0, r3
 8003766:	b003      	add	sp, #12
 8003768:	f85d fb04 	ldr.w	pc, [sp], #4
 800376c:	40023800 	.word	0x40023800
 8003770:	200005cc 	.word	0x200005cc
 8003774:	40000c00 	.word	0x40000c00
 8003778:	20000198 	.word	0x20000198
 800377c:	431bde83 	.word	0x431bde83
 8003780:	08003639 	.word	0x08003639
 8003784:	20000458 	.word	0x20000458

08003788 <SystemInit>:
 8003788:	b508      	push	{r3, lr}
 800378a:	4a1e      	ldr	r2, [pc, #120]	; (8003804 <SystemInit+0x7c>)
 800378c:	4b1d      	ldr	r3, [pc, #116]	; (8003804 <SystemInit+0x7c>)
 800378e:	f8d3 3088 	ldr.w	r3, [r3, #136]	; 0x88
 8003792:	f443 0370 	orr.w	r3, r3, #15728640	; 0xf00000
 8003796:	f8c2 3088 	str.w	r3, [r2, #136]	; 0x88
 800379a:	4a1b      	ldr	r2, [pc, #108]	; (8003808 <SystemInit+0x80>)
 800379c:	4b1a      	ldr	r3, [pc, #104]	; (8003808 <SystemInit+0x80>)
 800379e:	681b      	ldr	r3, [r3, #0]
 80037a0:	f043 0301 	orr.w	r3, r3, #1
 80037a4:	6013      	str	r3, [r2, #0]
 80037a6:	4b18      	ldr	r3, [pc, #96]	; (8003808 <SystemInit+0x80>)
 80037a8:	2200      	movs	r2, #0
 80037aa:	609a      	str	r2, [r3, #8]
 80037ac:	4a16      	ldr	r2, [pc, #88]	; (8003808 <SystemInit+0x80>)
 80037ae:	4b16      	ldr	r3, [pc, #88]	; (8003808 <SystemInit+0x80>)
 80037b0:	681b      	ldr	r3, [r3, #0]
 80037b2:	f023 7384 	bic.w	r3, r3, #17301504	; 0x1080000
 80037b6:	f423 3380 	bic.w	r3, r3, #65536	; 0x10000
 80037ba:	6013      	str	r3, [r2, #0]
 80037bc:	4b12      	ldr	r3, [pc, #72]	; (8003808 <SystemInit+0x80>)
 80037be:	4a13      	ldr	r2, [pc, #76]	; (800380c <SystemInit+0x84>)
 80037c0:	605a      	str	r2, [r3, #4]
 80037c2:	4a11      	ldr	r2, [pc, #68]	; (8003808 <SystemInit+0x80>)
 80037c4:	4b10      	ldr	r3, [pc, #64]	; (8003808 <SystemInit+0x80>)
 80037c6:	681b      	ldr	r3, [r3, #0]
 80037c8:	f423 2380 	bic.w	r3, r3, #262144	; 0x40000
 80037cc:	6013      	str	r3, [r2, #0]
 80037ce:	4b0e      	ldr	r3, [pc, #56]	; (8003808 <SystemInit+0x80>)
 80037d0:	2200      	movs	r2, #0
 80037d2:	60da      	str	r2, [r3, #12]
 80037d4:	4b0b      	ldr	r3, [pc, #44]	; (8003804 <SystemInit+0x7c>)
 80037d6:	f04f 6200 	mov.w	r2, #134217728	; 0x8000000
 80037da:	609a      	str	r2, [r3, #8]
 80037dc:	4b0c      	ldr	r3, [pc, #48]	; (8003810 <SystemInit+0x88>)
 80037de:	4a0d      	ldr	r2, [pc, #52]	; (8003814 <SystemInit+0x8c>)
 80037e0:	601a      	str	r2, [r3, #0]
 80037e2:	f7fe fd97 	bl	8002314 <HAL_Init>
 80037e6:	f000 f88d 	bl	8003904 <SetSysClock>
 80037ea:	4a07      	ldr	r2, [pc, #28]	; (8003808 <SystemInit+0x80>)
 80037ec:	4b06      	ldr	r3, [pc, #24]	; (8003808 <SystemInit+0x80>)
 80037ee:	6a1b      	ldr	r3, [r3, #32]
 80037f0:	f043 0308 	orr.w	r3, r3, #8
 80037f4:	6213      	str	r3, [r2, #32]
 80037f6:	4a04      	ldr	r2, [pc, #16]	; (8003808 <SystemInit+0x80>)
 80037f8:	4b03      	ldr	r3, [pc, #12]	; (8003808 <SystemInit+0x80>)
 80037fa:	6a1b      	ldr	r3, [r3, #32]
 80037fc:	f023 0308 	bic.w	r3, r3, #8
 8003800:	6213      	str	r3, [r2, #32]
 8003802:	bd08      	pop	{r3, pc}
 8003804:	e000ed00 	.word	0xe000ed00
 8003808:	40023800 	.word	0x40023800
 800380c:	24003010 	.word	0x24003010
 8003810:	20000198 	.word	0x20000198
 8003814:	00f42400 	.word	0x00f42400

08003818 <SystemCoreClockUpdate>:
 8003818:	b086      	sub	sp, #24
 800381a:	2300      	movs	r3, #0
 800381c:	9304      	str	r3, [sp, #16]
 800381e:	2300      	movs	r3, #0
 8003820:	9305      	str	r3, [sp, #20]
 8003822:	2302      	movs	r3, #2
 8003824:	9303      	str	r3, [sp, #12]
 8003826:	2300      	movs	r3, #0
 8003828:	9302      	str	r3, [sp, #8]
 800382a:	2302      	movs	r3, #2
 800382c:	9301      	str	r3, [sp, #4]
 800382e:	4b30      	ldr	r3, [pc, #192]	; (80038f0 <SystemCoreClockUpdate+0xd8>)
 8003830:	689b      	ldr	r3, [r3, #8]
 8003832:	f003 030c 	and.w	r3, r3, #12
 8003836:	9304      	str	r3, [sp, #16]
 8003838:	9b04      	ldr	r3, [sp, #16]
 800383a:	2b04      	cmp	r3, #4
 800383c:	d007      	beq.n	800384e <SystemCoreClockUpdate+0x36>
 800383e:	2b08      	cmp	r3, #8
 8003840:	d009      	beq.n	8003856 <SystemCoreClockUpdate+0x3e>
 8003842:	2b00      	cmp	r3, #0
 8003844:	d13f      	bne.n	80038c6 <SystemCoreClockUpdate+0xae>
 8003846:	4b2b      	ldr	r3, [pc, #172]	; (80038f4 <SystemCoreClockUpdate+0xdc>)
 8003848:	4a2b      	ldr	r2, [pc, #172]	; (80038f8 <SystemCoreClockUpdate+0xe0>)
 800384a:	601a      	str	r2, [r3, #0]
 800384c:	e03f      	b.n	80038ce <SystemCoreClockUpdate+0xb6>
 800384e:	4b29      	ldr	r3, [pc, #164]	; (80038f4 <SystemCoreClockUpdate+0xdc>)
 8003850:	4a2a      	ldr	r2, [pc, #168]	; (80038fc <SystemCoreClockUpdate+0xe4>)
 8003852:	601a      	str	r2, [r3, #0]
 8003854:	e03b      	b.n	80038ce <SystemCoreClockUpdate+0xb6>
 8003856:	4b26      	ldr	r3, [pc, #152]	; (80038f0 <SystemCoreClockUpdate+0xd8>)
 8003858:	685b      	ldr	r3, [r3, #4]
 800385a:	f403 0380 	and.w	r3, r3, #4194304	; 0x400000
 800385e:	0d9b      	lsrs	r3, r3, #22
 8003860:	9302      	str	r3, [sp, #8]
 8003862:	4b23      	ldr	r3, [pc, #140]	; (80038f0 <SystemCoreClockUpdate+0xd8>)
 8003864:	685b      	ldr	r3, [r3, #4]
 8003866:	f003 033f 	and.w	r3, r3, #63	; 0x3f
 800386a:	9301      	str	r3, [sp, #4]
 800386c:	9b02      	ldr	r3, [sp, #8]
 800386e:	2b00      	cmp	r3, #0
 8003870:	d00d      	beq.n	800388e <SystemCoreClockUpdate+0x76>
 8003872:	4a22      	ldr	r2, [pc, #136]	; (80038fc <SystemCoreClockUpdate+0xe4>)
 8003874:	9b01      	ldr	r3, [sp, #4]
 8003876:	fbb2 f2f3 	udiv	r2, r2, r3
 800387a:	4b1d      	ldr	r3, [pc, #116]	; (80038f0 <SystemCoreClockUpdate+0xd8>)
 800387c:	6859      	ldr	r1, [r3, #4]
 800387e:	f647 73c0 	movw	r3, #32704	; 0x7fc0
 8003882:	400b      	ands	r3, r1
 8003884:	099b      	lsrs	r3, r3, #6
 8003886:	fb03 f302 	mul.w	r3, r3, r2
 800388a:	9305      	str	r3, [sp, #20]
 800388c:	e00c      	b.n	80038a8 <SystemCoreClockUpdate+0x90>
 800388e:	4a1a      	ldr	r2, [pc, #104]	; (80038f8 <SystemCoreClockUpdate+0xe0>)
 8003890:	9b01      	ldr	r3, [sp, #4]
 8003892:	fbb2 f2f3 	udiv	r2, r2, r3
 8003896:	4b16      	ldr	r3, [pc, #88]	; (80038f0 <SystemCoreClockUpdate+0xd8>)
 8003898:	6859      	ldr	r1, [r3, #4]
 800389a:	f647 73c0 	movw	r3, #32704	; 0x7fc0
 800389e:	400b      	ands	r3, r1
 80038a0:	099b      	lsrs	r3, r3, #6
 80038a2:	fb03 f302 	mul.w	r3, r3, r2
 80038a6:	9305      	str	r3, [sp, #20]
 80038a8:	4b11      	ldr	r3, [pc, #68]	; (80038f0 <SystemCoreClockUpdate+0xd8>)
 80038aa:	685b      	ldr	r3, [r3, #4]
 80038ac:	f403 3340 	and.w	r3, r3, #196608	; 0x30000
 80038b0:	0c1b      	lsrs	r3, r3, #16
 80038b2:	3301      	adds	r3, #1
 80038b4:	005b      	lsls	r3, r3, #1
 80038b6:	9303      	str	r3, [sp, #12]
 80038b8:	9a05      	ldr	r2, [sp, #20]
 80038ba:	9b03      	ldr	r3, [sp, #12]
 80038bc:	fbb2 f3f3 	udiv	r3, r2, r3
 80038c0:	4a0c      	ldr	r2, [pc, #48]	; (80038f4 <SystemCoreClockUpdate+0xdc>)
 80038c2:	6013      	str	r3, [r2, #0]
 80038c4:	e003      	b.n	80038ce <SystemCoreClockUpdate+0xb6>
 80038c6:	4b0b      	ldr	r3, [pc, #44]	; (80038f4 <SystemCoreClockUpdate+0xdc>)
 80038c8:	4a0b      	ldr	r2, [pc, #44]	; (80038f8 <SystemCoreClockUpdate+0xe0>)
 80038ca:	601a      	str	r2, [r3, #0]
 80038cc:	bf00      	nop
 80038ce:	4b08      	ldr	r3, [pc, #32]	; (80038f0 <SystemCoreClockUpdate+0xd8>)
 80038d0:	689b      	ldr	r3, [r3, #8]
 80038d2:	f003 03f0 	and.w	r3, r3, #240	; 0xf0
 80038d6:	091b      	lsrs	r3, r3, #4
 80038d8:	4a09      	ldr	r2, [pc, #36]	; (8003900 <SystemCoreClockUpdate+0xe8>)
 80038da:	5cd3      	ldrb	r3, [r2, r3]
 80038dc:	9304      	str	r3, [sp, #16]
 80038de:	4b05      	ldr	r3, [pc, #20]	; (80038f4 <SystemCoreClockUpdate+0xdc>)
 80038e0:	681a      	ldr	r2, [r3, #0]
 80038e2:	9b04      	ldr	r3, [sp, #16]
 80038e4:	fa22 f303 	lsr.w	r3, r2, r3
 80038e8:	4a02      	ldr	r2, [pc, #8]	; (80038f4 <SystemCoreClockUpdate+0xdc>)
 80038ea:	6013      	str	r3, [r2, #0]
 80038ec:	b006      	add	sp, #24
 80038ee:	4770      	bx	lr
 80038f0:	40023800 	.word	0x40023800
 80038f4:	20000198 	.word	0x20000198
 80038f8:	00f42400 	.word	0x00f42400
 80038fc:	007a1200 	.word	0x007a1200
 8003900:	080074fc 	.word	0x080074fc

08003904 <SetSysClock>:
 8003904:	b508      	push	{r3, lr}
 8003906:	2001      	movs	r0, #1
 8003908:	f000 f810 	bl	800392c <SetSysClock_PLL_HSE>
 800390c:	4603      	mov	r3, r0
 800390e:	2b00      	cmp	r3, #0
 8003910:	d10b      	bne.n	800392a <SetSysClock+0x26>
 8003912:	2000      	movs	r0, #0
 8003914:	f000 f80a 	bl	800392c <SetSysClock_PLL_HSE>
 8003918:	4603      	mov	r3, r0
 800391a:	2b00      	cmp	r3, #0
 800391c:	d105      	bne.n	800392a <SetSysClock+0x26>
 800391e:	f000 f859 	bl	80039d4 <SetSysClock_PLL_HSI>
 8003922:	4603      	mov	r3, r0
 8003924:	2b00      	cmp	r3, #0
 8003926:	d100      	bne.n	800392a <SetSysClock+0x26>
 8003928:	e7fe      	b.n	8003928 <SetSysClock+0x24>
 800392a:	bd08      	pop	{r3, pc}

0800392c <SetSysClock_PLL_HSE>:
 800392c:	b500      	push	{lr}
 800392e:	b095      	sub	sp, #84	; 0x54
 8003930:	4603      	mov	r3, r0
 8003932:	f88d 3007 	strb.w	r3, [sp, #7]
 8003936:	4a25      	ldr	r2, [pc, #148]	; (80039cc <SetSysClock_PLL_HSE+0xa0>)
 8003938:	4b24      	ldr	r3, [pc, #144]	; (80039cc <SetSysClock_PLL_HSE+0xa0>)
 800393a:	6c1b      	ldr	r3, [r3, #64]	; 0x40
 800393c:	f043 5380 	orr.w	r3, r3, #268435456	; 0x10000000
 8003940:	6413      	str	r3, [r2, #64]	; 0x40
 8003942:	4a23      	ldr	r2, [pc, #140]	; (80039d0 <SetSysClock_PLL_HSE+0xa4>)
 8003944:	4b22      	ldr	r3, [pc, #136]	; (80039d0 <SetSysClock_PLL_HSE+0xa4>)
 8003946:	681b      	ldr	r3, [r3, #0]
 8003948:	f423 4340 	bic.w	r3, r3, #49152	; 0xc000
 800394c:	f443 4300 	orr.w	r3, r3, #32768	; 0x8000
 8003950:	6013      	str	r3, [r2, #0]
 8003952:	2301      	movs	r3, #1
 8003954:	9303      	str	r3, [sp, #12]
 8003956:	f89d 3007 	ldrb.w	r3, [sp, #7]
 800395a:	2b00      	cmp	r3, #0
 800395c:	d102      	bne.n	8003964 <SetSysClock_PLL_HSE+0x38>
 800395e:	2301      	movs	r3, #1
 8003960:	9304      	str	r3, [sp, #16]
 8003962:	e001      	b.n	8003968 <SetSysClock_PLL_HSE+0x3c>
 8003964:	2305      	movs	r3, #5
 8003966:	9304      	str	r3, [sp, #16]
 8003968:	2302      	movs	r3, #2
 800396a:	9309      	str	r3, [sp, #36]	; 0x24
 800396c:	f44f 0380 	mov.w	r3, #4194304	; 0x400000
 8003970:	930a      	str	r3, [sp, #40]	; 0x28
 8003972:	2308      	movs	r3, #8
 8003974:	930b      	str	r3, [sp, #44]	; 0x2c
 8003976:	f44f 73a8 	mov.w	r3, #336	; 0x150
 800397a:	930c      	str	r3, [sp, #48]	; 0x30
 800397c:	2304      	movs	r3, #4
 800397e:	930d      	str	r3, [sp, #52]	; 0x34
 8003980:	2307      	movs	r3, #7
 8003982:	930e      	str	r3, [sp, #56]	; 0x38
 8003984:	ab03      	add	r3, sp, #12
 8003986:	4618      	mov	r0, r3
 8003988:	f7fe feb4 	bl	80026f4 <HAL_RCC_OscConfig>
 800398c:	4603      	mov	r3, r0
 800398e:	2b00      	cmp	r3, #0
 8003990:	d001      	beq.n	8003996 <SetSysClock_PLL_HSE+0x6a>
 8003992:	2300      	movs	r3, #0
 8003994:	e015      	b.n	80039c2 <SetSysClock_PLL_HSE+0x96>
 8003996:	230f      	movs	r3, #15
 8003998:	930f      	str	r3, [sp, #60]	; 0x3c
 800399a:	2302      	movs	r3, #2
 800399c:	9310      	str	r3, [sp, #64]	; 0x40
 800399e:	2300      	movs	r3, #0
 80039a0:	9311      	str	r3, [sp, #68]	; 0x44
 80039a2:	f44f 5380 	mov.w	r3, #4096	; 0x1000
 80039a6:	9312      	str	r3, [sp, #72]	; 0x48
 80039a8:	2300      	movs	r3, #0
 80039aa:	9313      	str	r3, [sp, #76]	; 0x4c
 80039ac:	ab0f      	add	r3, sp, #60	; 0x3c
 80039ae:	4618      	mov	r0, r3
 80039b0:	2102      	movs	r1, #2
 80039b2:	f7ff f8ef 	bl	8002b94 <HAL_RCC_ClockConfig>
 80039b6:	4603      	mov	r3, r0
 80039b8:	2b00      	cmp	r3, #0
 80039ba:	d001      	beq.n	80039c0 <SetSysClock_PLL_HSE+0x94>
 80039bc:	2300      	movs	r3, #0
 80039be:	e000      	b.n	80039c2 <SetSysClock_PLL_HSE+0x96>
 80039c0:	2301      	movs	r3, #1
 80039c2:	4618      	mov	r0, r3
 80039c4:	b015      	add	sp, #84	; 0x54
 80039c6:	f85d fb04 	ldr.w	pc, [sp], #4
 80039ca:	bf00      	nop
 80039cc:	40023800 	.word	0x40023800
 80039d0:	40007000 	.word	0x40007000

080039d4 <SetSysClock_PLL_HSI>:
 80039d4:	b500      	push	{lr}
 80039d6:	b093      	sub	sp, #76	; 0x4c
 80039d8:	4a22      	ldr	r2, [pc, #136]	; (8003a64 <SetSysClock_PLL_HSI+0x90>)
 80039da:	4b22      	ldr	r3, [pc, #136]	; (8003a64 <SetSysClock_PLL_HSI+0x90>)
 80039dc:	6c1b      	ldr	r3, [r3, #64]	; 0x40
 80039de:	f043 5380 	orr.w	r3, r3, #268435456	; 0x10000000
 80039e2:	6413      	str	r3, [r2, #64]	; 0x40
 80039e4:	4a20      	ldr	r2, [pc, #128]	; (8003a68 <SetSysClock_PLL_HSI+0x94>)
 80039e6:	4b20      	ldr	r3, [pc, #128]	; (8003a68 <SetSysClock_PLL_HSI+0x94>)
 80039e8:	681b      	ldr	r3, [r3, #0]
 80039ea:	f423 4340 	bic.w	r3, r3, #49152	; 0xc000
 80039ee:	f443 4300 	orr.w	r3, r3, #32768	; 0x8000
 80039f2:	6013      	str	r3, [r2, #0]
 80039f4:	2303      	movs	r3, #3
 80039f6:	9301      	str	r3, [sp, #4]
 80039f8:	2301      	movs	r3, #1
 80039fa:	9304      	str	r3, [sp, #16]
 80039fc:	2300      	movs	r3, #0
 80039fe:	9302      	str	r3, [sp, #8]
 8003a00:	2310      	movs	r3, #16
 8003a02:	9305      	str	r3, [sp, #20]
 8003a04:	2302      	movs	r3, #2
 8003a06:	9307      	str	r3, [sp, #28]
 8003a08:	2300      	movs	r3, #0
 8003a0a:	9308      	str	r3, [sp, #32]
 8003a0c:	2310      	movs	r3, #16
 8003a0e:	9309      	str	r3, [sp, #36]	; 0x24
 8003a10:	f44f 73a8 	mov.w	r3, #336	; 0x150
 8003a14:	930a      	str	r3, [sp, #40]	; 0x28
 8003a16:	2304      	movs	r3, #4
 8003a18:	930b      	str	r3, [sp, #44]	; 0x2c
 8003a1a:	2307      	movs	r3, #7
 8003a1c:	930c      	str	r3, [sp, #48]	; 0x30
 8003a1e:	ab01      	add	r3, sp, #4
 8003a20:	4618      	mov	r0, r3
 8003a22:	f7fe fe67 	bl	80026f4 <HAL_RCC_OscConfig>
 8003a26:	4603      	mov	r3, r0
 8003a28:	2b00      	cmp	r3, #0
 8003a2a:	d001      	beq.n	8003a30 <SetSysClock_PLL_HSI+0x5c>
 8003a2c:	2300      	movs	r3, #0
 8003a2e:	e015      	b.n	8003a5c <SetSysClock_PLL_HSI+0x88>
 8003a30:	230f      	movs	r3, #15
 8003a32:	930d      	str	r3, [sp, #52]	; 0x34
 8003a34:	2302      	movs	r3, #2
 8003a36:	930e      	str	r3, [sp, #56]	; 0x38
 8003a38:	2300      	movs	r3, #0
 8003a3a:	930f      	str	r3, [sp, #60]	; 0x3c
 8003a3c:	f44f 5380 	mov.w	r3, #4096	; 0x1000
 8003a40:	9310      	str	r3, [sp, #64]	; 0x40
 8003a42:	2300      	movs	r3, #0
 8003a44:	9311      	str	r3, [sp, #68]	; 0x44
 8003a46:	ab0d      	add	r3, sp, #52	; 0x34
 8003a48:	4618      	mov	r0, r3
 8003a4a:	2102      	movs	r1, #2
 8003a4c:	f7ff f8a2 	bl	8002b94 <HAL_RCC_ClockConfig>
 8003a50:	4603      	mov	r3, r0
 8003a52:	2b00      	cmp	r3, #0
 8003a54:	d001      	beq.n	8003a5a <SetSysClock_PLL_HSI+0x86>
 8003a56:	2300      	movs	r3, #0
 8003a58:	e000      	b.n	8003a5c <SetSysClock_PLL_HSI+0x88>
 8003a5a:	2301      	movs	r3, #1
 8003a5c:	4618      	mov	r0, r3
 8003a5e:	b013      	add	sp, #76	; 0x4c
 8003a60:	f85d fb04 	ldr.w	pc, [sp], #4
 8003a64:	40023800 	.word	0x40023800
 8003a68:	40007000 	.word	0x40007000

08003a6c <gpio_set>:
 8003a6c:	b500      	push	{lr}
 8003a6e:	b083      	sub	sp, #12
 8003a70:	4603      	mov	r3, r0
 8003a72:	f88d 3007 	strb.w	r3, [sp, #7]
 8003a76:	f99d 3007 	ldrsb.w	r3, [sp, #7]
 8003a7a:	f1b3 3fff 	cmp.w	r3, #4294967295
 8003a7e:	d104      	bne.n	8003a8a <gpio_set+0x1e>
 8003a80:	480a      	ldr	r0, [pc, #40]	; (8003aac <gpio_set+0x40>)
 8003a82:	490b      	ldr	r1, [pc, #44]	; (8003ab0 <gpio_set+0x44>)
 8003a84:	2227      	movs	r2, #39	; 0x27
 8003a86:	f7fe fa55 	bl	8001f34 <mbed_assert_internal>
 8003a8a:	f99d 3007 	ldrsb.w	r3, [sp, #7]
 8003a8e:	4618      	mov	r0, r3
 8003a90:	2100      	movs	r1, #0
 8003a92:	f000 f8f5 	bl	8003c80 <pin_function>
 8003a96:	f89d 3007 	ldrb.w	r3, [sp, #7]
 8003a9a:	f003 030f 	and.w	r3, r3, #15
 8003a9e:	2201      	movs	r2, #1
 8003aa0:	fa02 f303 	lsl.w	r3, r2, r3
 8003aa4:	4618      	mov	r0, r3
 8003aa6:	b003      	add	sp, #12
 8003aa8:	f85d fb04 	ldr.w	pc, [sp], #4
 8003aac:	0800750c 	.word	0x0800750c
 8003ab0:	08007520 	.word	0x08007520

08003ab4 <gpio_init>:
 8003ab4:	b500      	push	{lr}
 8003ab6:	b087      	sub	sp, #28
 8003ab8:	9001      	str	r0, [sp, #4]
 8003aba:	460b      	mov	r3, r1
 8003abc:	f88d 3003 	strb.w	r3, [sp, #3]
 8003ac0:	9b01      	ldr	r3, [sp, #4]
 8003ac2:	f89d 2003 	ldrb.w	r2, [sp, #3]
 8003ac6:	701a      	strb	r2, [r3, #0]
 8003ac8:	f99d 3003 	ldrsb.w	r3, [sp, #3]
 8003acc:	f1b3 3fff 	cmp.w	r3, #4294967295
 8003ad0:	d100      	bne.n	8003ad4 <gpio_init+0x20>
 8003ad2:	e022      	b.n	8003b1a <gpio_init+0x66>
 8003ad4:	f99d 3003 	ldrsb.w	r3, [sp, #3]
 8003ad8:	091b      	lsrs	r3, r3, #4
 8003ada:	f003 030f 	and.w	r3, r3, #15
 8003ade:	9305      	str	r3, [sp, #20]
 8003ae0:	9805      	ldr	r0, [sp, #20]
 8003ae2:	f000 f861 	bl	8003ba8 <Set_GPIO_Clock>
 8003ae6:	9004      	str	r0, [sp, #16]
 8003ae8:	9b04      	ldr	r3, [sp, #16]
 8003aea:	9303      	str	r3, [sp, #12]
 8003aec:	f99d 3003 	ldrsb.w	r3, [sp, #3]
 8003af0:	4618      	mov	r0, r3
 8003af2:	f7ff ffbb 	bl	8003a6c <gpio_set>
 8003af6:	4602      	mov	r2, r0
 8003af8:	9b01      	ldr	r3, [sp, #4]
 8003afa:	605a      	str	r2, [r3, #4]
 8003afc:	9b03      	ldr	r3, [sp, #12]
 8003afe:	f103 0210 	add.w	r2, r3, #16
 8003b02:	9b01      	ldr	r3, [sp, #4]
 8003b04:	609a      	str	r2, [r3, #8]
 8003b06:	9b03      	ldr	r3, [sp, #12]
 8003b08:	f103 0218 	add.w	r2, r3, #24
 8003b0c:	9b01      	ldr	r3, [sp, #4]
 8003b0e:	60da      	str	r2, [r3, #12]
 8003b10:	9b03      	ldr	r3, [sp, #12]
 8003b12:	f103 021a 	add.w	r2, r3, #26
 8003b16:	9b01      	ldr	r3, [sp, #4]
 8003b18:	611a      	str	r2, [r3, #16]
 8003b1a:	b007      	add	sp, #28
 8003b1c:	f85d fb04 	ldr.w	pc, [sp], #4

08003b20 <gpio_mode>:
 8003b20:	b500      	push	{lr}
 8003b22:	b083      	sub	sp, #12
 8003b24:	9001      	str	r0, [sp, #4]
 8003b26:	460b      	mov	r3, r1
 8003b28:	f88d 3003 	strb.w	r3, [sp, #3]
 8003b2c:	9b01      	ldr	r3, [sp, #4]
 8003b2e:	781b      	ldrb	r3, [r3, #0]
 8003b30:	b25a      	sxtb	r2, r3
 8003b32:	f89d 3003 	ldrb.w	r3, [sp, #3]
 8003b36:	4610      	mov	r0, r2
 8003b38:	4619      	mov	r1, r3
 8003b3a:	f000 f8ef 	bl	8003d1c <pin_mode>
 8003b3e:	b003      	add	sp, #12
 8003b40:	f85d fb04 	ldr.w	pc, [sp], #4

08003b44 <gpio_dir>:
 8003b44:	b500      	push	{lr}
 8003b46:	b083      	sub	sp, #12
 8003b48:	9001      	str	r0, [sp, #4]
 8003b4a:	460b      	mov	r3, r1
 8003b4c:	f88d 3003 	strb.w	r3, [sp, #3]
 8003b50:	9b01      	ldr	r3, [sp, #4]
 8003b52:	781b      	ldrb	r3, [r3, #0]
 8003b54:	b25b      	sxtb	r3, r3
 8003b56:	f1b3 3fff 	cmp.w	r3, #4294967295
 8003b5a:	d104      	bne.n	8003b66 <gpio_dir+0x22>
 8003b5c:	480d      	ldr	r0, [pc, #52]	; (8003b94 <gpio_dir+0x50>)
 8003b5e:	490e      	ldr	r1, [pc, #56]	; (8003b98 <gpio_dir+0x54>)
 8003b60:	2247      	movs	r2, #71	; 0x47
 8003b62:	f7fe f9e7 	bl	8001f34 <mbed_assert_internal>
 8003b66:	f89d 3003 	ldrb.w	r3, [sp, #3]
 8003b6a:	2b01      	cmp	r3, #1
 8003b6c:	d107      	bne.n	8003b7e <gpio_dir+0x3a>
 8003b6e:	9b01      	ldr	r3, [sp, #4]
 8003b70:	781b      	ldrb	r3, [r3, #0]
 8003b72:	b25b      	sxtb	r3, r3
 8003b74:	4618      	mov	r0, r3
 8003b76:	2101      	movs	r1, #1
 8003b78:	f000 f882 	bl	8003c80 <pin_function>
 8003b7c:	e006      	b.n	8003b8c <gpio_dir+0x48>
 8003b7e:	9b01      	ldr	r3, [sp, #4]
 8003b80:	781b      	ldrb	r3, [r3, #0]
 8003b82:	b25b      	sxtb	r3, r3
 8003b84:	4618      	mov	r0, r3
 8003b86:	2100      	movs	r1, #0
 8003b88:	f000 f87a 	bl	8003c80 <pin_function>
 8003b8c:	b003      	add	sp, #12
 8003b8e:	f85d fb04 	ldr.w	pc, [sp], #4
 8003b92:	bf00      	nop
 8003b94:	08007574 	.word	0x08007574
 8003b98:	08007520 	.word	0x08007520

08003b9c <mbed_sdk_init>:
 8003b9c:	b508      	push	{r3, lr}
 8003b9e:	f7ff fe3b 	bl	8003818 <SystemCoreClockUpdate>
 8003ba2:	f7fe fbb7 	bl	8002314 <HAL_Init>
 8003ba6:	bd08      	pop	{r3, pc}

08003ba8 <Set_GPIO_Clock>:
 8003ba8:	b500      	push	{lr}
 8003baa:	b085      	sub	sp, #20
 8003bac:	9001      	str	r0, [sp, #4]
 8003bae:	2300      	movs	r3, #0
 8003bb0:	9303      	str	r3, [sp, #12]
 8003bb2:	9b01      	ldr	r3, [sp, #4]
 8003bb4:	2b07      	cmp	r3, #7
 8003bb6:	d849      	bhi.n	8003c4c <Set_GPIO_Clock+0xa4>
 8003bb8:	a201      	add	r2, pc, #4	; (adr r2, 8003bc0 <Set_GPIO_Clock+0x18>)
 8003bba:	f852 f023 	ldr.w	pc, [r2, r3, lsl #2]
 8003bbe:	bf00      	nop
 8003bc0:	08003be1 	.word	0x08003be1
 8003bc4:	08003bf3 	.word	0x08003bf3
 8003bc8:	08003c05 	.word	0x08003c05
 8003bcc:	08003c17 	.word	0x08003c17
 8003bd0:	08003c29 	.word	0x08003c29
 8003bd4:	08003c4d 	.word	0x08003c4d
 8003bd8:	08003c4d 	.word	0x08003c4d
 8003bdc:	08003c3b 	.word	0x08003c3b
 8003be0:	4b1f      	ldr	r3, [pc, #124]	; (8003c60 <Set_GPIO_Clock+0xb8>)
 8003be2:	9303      	str	r3, [sp, #12]
 8003be4:	4a1f      	ldr	r2, [pc, #124]	; (8003c64 <Set_GPIO_Clock+0xbc>)
 8003be6:	4b1f      	ldr	r3, [pc, #124]	; (8003c64 <Set_GPIO_Clock+0xbc>)
 8003be8:	6b1b      	ldr	r3, [r3, #48]	; 0x30
 8003bea:	f043 0301 	orr.w	r3, r3, #1
 8003bee:	6313      	str	r3, [r2, #48]	; 0x30
 8003bf0:	e030      	b.n	8003c54 <Set_GPIO_Clock+0xac>
 8003bf2:	4b1d      	ldr	r3, [pc, #116]	; (8003c68 <Set_GPIO_Clock+0xc0>)
 8003bf4:	9303      	str	r3, [sp, #12]
 8003bf6:	4a1b      	ldr	r2, [pc, #108]	; (8003c64 <Set_GPIO_Clock+0xbc>)
 8003bf8:	4b1a      	ldr	r3, [pc, #104]	; (8003c64 <Set_GPIO_Clock+0xbc>)
 8003bfa:	6b1b      	ldr	r3, [r3, #48]	; 0x30
 8003bfc:	f043 0302 	orr.w	r3, r3, #2
 8003c00:	6313      	str	r3, [r2, #48]	; 0x30
 8003c02:	e027      	b.n	8003c54 <Set_GPIO_Clock+0xac>
 8003c04:	4b19      	ldr	r3, [pc, #100]	; (8003c6c <Set_GPIO_Clock+0xc4>)
 8003c06:	9303      	str	r3, [sp, #12]
 8003c08:	4a16      	ldr	r2, [pc, #88]	; (8003c64 <Set_GPIO_Clock+0xbc>)
 8003c0a:	4b16      	ldr	r3, [pc, #88]	; (8003c64 <Set_GPIO_Clock+0xbc>)
 8003c0c:	6b1b      	ldr	r3, [r3, #48]	; 0x30
 8003c0e:	f043 0304 	orr.w	r3, r3, #4
 8003c12:	6313      	str	r3, [r2, #48]	; 0x30
 8003c14:	e01e      	b.n	8003c54 <Set_GPIO_Clock+0xac>
 8003c16:	4b16      	ldr	r3, [pc, #88]	; (8003c70 <Set_GPIO_Clock+0xc8>)
 8003c18:	9303      	str	r3, [sp, #12]
 8003c1a:	4a12      	ldr	r2, [pc, #72]	; (8003c64 <Set_GPIO_Clock+0xbc>)
 8003c1c:	4b11      	ldr	r3, [pc, #68]	; (8003c64 <Set_GPIO_Clock+0xbc>)
 8003c1e:	6b1b      	ldr	r3, [r3, #48]	; 0x30
 8003c20:	f043 0308 	orr.w	r3, r3, #8
 8003c24:	6313      	str	r3, [r2, #48]	; 0x30
 8003c26:	e015      	b.n	8003c54 <Set_GPIO_Clock+0xac>
 8003c28:	4b12      	ldr	r3, [pc, #72]	; (8003c74 <Set_GPIO_Clock+0xcc>)
 8003c2a:	9303      	str	r3, [sp, #12]
 8003c2c:	4a0d      	ldr	r2, [pc, #52]	; (8003c64 <Set_GPIO_Clock+0xbc>)
 8003c2e:	4b0d      	ldr	r3, [pc, #52]	; (8003c64 <Set_GPIO_Clock+0xbc>)
 8003c30:	6b1b      	ldr	r3, [r3, #48]	; 0x30
 8003c32:	f043 0310 	orr.w	r3, r3, #16
 8003c36:	6313      	str	r3, [r2, #48]	; 0x30
 8003c38:	e00c      	b.n	8003c54 <Set_GPIO_Clock+0xac>
 8003c3a:	4b0f      	ldr	r3, [pc, #60]	; (8003c78 <Set_GPIO_Clock+0xd0>)
 8003c3c:	9303      	str	r3, [sp, #12]
 8003c3e:	4a09      	ldr	r2, [pc, #36]	; (8003c64 <Set_GPIO_Clock+0xbc>)
 8003c40:	4b08      	ldr	r3, [pc, #32]	; (8003c64 <Set_GPIO_Clock+0xbc>)
 8003c42:	6b1b      	ldr	r3, [r3, #48]	; 0x30
 8003c44:	f043 0380 	orr.w	r3, r3, #128	; 0x80
 8003c48:	6313      	str	r3, [r2, #48]	; 0x30
 8003c4a:	e003      	b.n	8003c54 <Set_GPIO_Clock+0xac>
 8003c4c:	480b      	ldr	r0, [pc, #44]	; (8003c7c <Set_GPIO_Clock+0xd4>)
 8003c4e:	f7fe f995 	bl	8001f7c <error>
 8003c52:	bf00      	nop
 8003c54:	9b03      	ldr	r3, [sp, #12]
 8003c56:	4618      	mov	r0, r3
 8003c58:	b005      	add	sp, #20
 8003c5a:	f85d fb04 	ldr.w	pc, [sp], #4
 8003c5e:	bf00      	nop
 8003c60:	40020000 	.word	0x40020000
 8003c64:	40023800 	.word	0x40023800
 8003c68:	40020400 	.word	0x40020400
 8003c6c:	40020800 	.word	0x40020800
 8003c70:	40020c00 	.word	0x40020c00
 8003c74:	40021000 	.word	0x40021000
 8003c78:	40021c00 	.word	0x40021c00
 8003c7c:	080075c0 	.word	0x080075c0

08003c80 <pin_function>:
 8003c80:	b500      	push	{lr}
 8003c82:	b08f      	sub	sp, #60	; 0x3c
 8003c84:	4603      	mov	r3, r0
 8003c86:	9100      	str	r1, [sp, #0]
 8003c88:	f88d 3007 	strb.w	r3, [sp, #7]
 8003c8c:	f99d 3007 	ldrsb.w	r3, [sp, #7]
 8003c90:	f1b3 3fff 	cmp.w	r3, #4294967295
 8003c94:	d104      	bne.n	8003ca0 <pin_function+0x20>
 8003c96:	481e      	ldr	r0, [pc, #120]	; (8003d10 <pin_function+0x90>)
 8003c98:	491e      	ldr	r1, [pc, #120]	; (8003d14 <pin_function+0x94>)
 8003c9a:	227d      	movs	r2, #125	; 0x7d
 8003c9c:	f7fe f94a 	bl	8001f34 <mbed_assert_internal>
 8003ca0:	9b00      	ldr	r3, [sp, #0]
 8003ca2:	f003 030f 	and.w	r3, r3, #15
 8003ca6:	930d      	str	r3, [sp, #52]	; 0x34
 8003ca8:	9b00      	ldr	r3, [sp, #0]
 8003caa:	111b      	asrs	r3, r3, #4
 8003cac:	f003 0307 	and.w	r3, r3, #7
 8003cb0:	930c      	str	r3, [sp, #48]	; 0x30
 8003cb2:	9b00      	ldr	r3, [sp, #0]
 8003cb4:	11db      	asrs	r3, r3, #7
 8003cb6:	f003 030f 	and.w	r3, r3, #15
 8003cba:	930b      	str	r3, [sp, #44]	; 0x2c
 8003cbc:	f99d 3007 	ldrsb.w	r3, [sp, #7]
 8003cc0:	091b      	lsrs	r3, r3, #4
 8003cc2:	f003 030f 	and.w	r3, r3, #15
 8003cc6:	930a      	str	r3, [sp, #40]	; 0x28
 8003cc8:	f89d 3007 	ldrb.w	r3, [sp, #7]
 8003ccc:	f003 030f 	and.w	r3, r3, #15
 8003cd0:	9309      	str	r3, [sp, #36]	; 0x24
 8003cd2:	980a      	ldr	r0, [sp, #40]	; 0x28
 8003cd4:	f7ff ff68 	bl	8003ba8 <Set_GPIO_Clock>
 8003cd8:	9008      	str	r0, [sp, #32]
 8003cda:	9b08      	ldr	r3, [sp, #32]
 8003cdc:	9307      	str	r3, [sp, #28]
 8003cde:	9b09      	ldr	r3, [sp, #36]	; 0x24
 8003ce0:	2201      	movs	r2, #1
 8003ce2:	fa02 f303 	lsl.w	r3, r2, r3
 8003ce6:	9302      	str	r3, [sp, #8]
 8003ce8:	4a0b      	ldr	r2, [pc, #44]	; (8003d18 <pin_function+0x98>)
 8003cea:	9b0d      	ldr	r3, [sp, #52]	; 0x34
 8003cec:	f852 3023 	ldr.w	r3, [r2, r3, lsl #2]
 8003cf0:	9303      	str	r3, [sp, #12]
 8003cf2:	9b0c      	ldr	r3, [sp, #48]	; 0x30
 8003cf4:	9304      	str	r3, [sp, #16]
 8003cf6:	2303      	movs	r3, #3
 8003cf8:	9305      	str	r3, [sp, #20]
 8003cfa:	9b0b      	ldr	r3, [sp, #44]	; 0x2c
 8003cfc:	9306      	str	r3, [sp, #24]
 8003cfe:	ab02      	add	r3, sp, #8
 8003d00:	9807      	ldr	r0, [sp, #28]
 8003d02:	4619      	mov	r1, r3
 8003d04:	f7fe fb5e 	bl	80023c4 <HAL_GPIO_Init>
 8003d08:	b00f      	add	sp, #60	; 0x3c
 8003d0a:	f85d fb04 	ldr.w	pc, [sp], #4
 8003d0e:	bf00      	nop
 8003d10:	080075e4 	.word	0x080075e4
 8003d14:	080075f8 	.word	0x080075f8
 8003d18:	0800758c 	.word	0x0800758c

08003d1c <pin_mode>:
 8003d1c:	b500      	push	{lr}
 8003d1e:	b089      	sub	sp, #36	; 0x24
 8003d20:	4603      	mov	r3, r0
 8003d22:	460a      	mov	r2, r1
 8003d24:	f88d 3007 	strb.w	r3, [sp, #7]
 8003d28:	4613      	mov	r3, r2
 8003d2a:	f88d 3006 	strb.w	r3, [sp, #6]
 8003d2e:	f99d 3007 	ldrsb.w	r3, [sp, #7]
 8003d32:	f1b3 3fff 	cmp.w	r3, #4294967295
 8003d36:	d104      	bne.n	8003d42 <pin_mode+0x26>
 8003d38:	481a      	ldr	r0, [pc, #104]	; (8003da4 <pin_mode+0x88>)
 8003d3a:	491b      	ldr	r1, [pc, #108]	; (8003da8 <pin_mode+0x8c>)
 8003d3c:	22a2      	movs	r2, #162	; 0xa2
 8003d3e:	f7fe f8f9 	bl	8001f34 <mbed_assert_internal>
 8003d42:	f99d 3007 	ldrsb.w	r3, [sp, #7]
 8003d46:	091b      	lsrs	r3, r3, #4
 8003d48:	f003 030f 	and.w	r3, r3, #15
 8003d4c:	9306      	str	r3, [sp, #24]
 8003d4e:	f89d 3007 	ldrb.w	r3, [sp, #7]
 8003d52:	f003 030f 	and.w	r3, r3, #15
 8003d56:	9305      	str	r3, [sp, #20]
 8003d58:	9806      	ldr	r0, [sp, #24]
 8003d5a:	f7ff ff25 	bl	8003ba8 <Set_GPIO_Clock>
 8003d5e:	9004      	str	r0, [sp, #16]
 8003d60:	9b04      	ldr	r3, [sp, #16]
 8003d62:	9303      	str	r3, [sp, #12]
 8003d64:	f89d 3006 	ldrb.w	r3, [sp, #6]
 8003d68:	9307      	str	r3, [sp, #28]
 8003d6a:	9b07      	ldr	r3, [sp, #28]
 8003d6c:	2b02      	cmp	r3, #2
 8003d6e:	d901      	bls.n	8003d74 <pin_mode+0x58>
 8003d70:	2300      	movs	r3, #0
 8003d72:	9307      	str	r3, [sp, #28]
 8003d74:	9b03      	ldr	r3, [sp, #12]
 8003d76:	68da      	ldr	r2, [r3, #12]
 8003d78:	9b05      	ldr	r3, [sp, #20]
 8003d7a:	005b      	lsls	r3, r3, #1
 8003d7c:	4619      	mov	r1, r3
 8003d7e:	2303      	movs	r3, #3
 8003d80:	408b      	lsls	r3, r1
 8003d82:	43db      	mvns	r3, r3
 8003d84:	401a      	ands	r2, r3
 8003d86:	9b03      	ldr	r3, [sp, #12]
 8003d88:	60da      	str	r2, [r3, #12]
 8003d8a:	9b03      	ldr	r3, [sp, #12]
 8003d8c:	68da      	ldr	r2, [r3, #12]
 8003d8e:	9b05      	ldr	r3, [sp, #20]
 8003d90:	005b      	lsls	r3, r3, #1
 8003d92:	4619      	mov	r1, r3
 8003d94:	9b07      	ldr	r3, [sp, #28]
 8003d96:	408b      	lsls	r3, r1
 8003d98:	431a      	orrs	r2, r3
 8003d9a:	9b03      	ldr	r3, [sp, #12]
 8003d9c:	60da      	str	r2, [r3, #12]
 8003d9e:	b009      	add	sp, #36	; 0x24
 8003da0:	f85d fb04 	ldr.w	pc, [sp], #4
 8003da4:	080075e4 	.word	0x080075e4
 8003da8:	080075f8 	.word	0x080075f8

08003dac <init_uart>:
 8003dac:	b500      	push	{lr}
 8003dae:	b083      	sub	sp, #12
 8003db0:	9001      	str	r0, [sp, #4]
 8003db2:	9b01      	ldr	r3, [sp, #4]
 8003db4:	681b      	ldr	r3, [r3, #0]
 8003db6:	461a      	mov	r2, r3
 8003db8:	4b18      	ldr	r3, [pc, #96]	; (8003e1c <init_uart+0x70>)
 8003dba:	601a      	str	r2, [r3, #0]
 8003dbc:	9b01      	ldr	r3, [sp, #4]
 8003dbe:	689b      	ldr	r3, [r3, #8]
 8003dc0:	4a16      	ldr	r2, [pc, #88]	; (8003e1c <init_uart+0x70>)
 8003dc2:	6053      	str	r3, [r2, #4]
 8003dc4:	9b01      	ldr	r3, [sp, #4]
 8003dc6:	68db      	ldr	r3, [r3, #12]
 8003dc8:	4a14      	ldr	r2, [pc, #80]	; (8003e1c <init_uart+0x70>)
 8003dca:	6093      	str	r3, [r2, #8]
 8003dcc:	9b01      	ldr	r3, [sp, #4]
 8003dce:	691b      	ldr	r3, [r3, #16]
 8003dd0:	4a12      	ldr	r2, [pc, #72]	; (8003e1c <init_uart+0x70>)
 8003dd2:	60d3      	str	r3, [r2, #12]
 8003dd4:	9b01      	ldr	r3, [sp, #4]
 8003dd6:	695b      	ldr	r3, [r3, #20]
 8003dd8:	4a10      	ldr	r2, [pc, #64]	; (8003e1c <init_uart+0x70>)
 8003dda:	6113      	str	r3, [r2, #16]
 8003ddc:	4b0f      	ldr	r3, [pc, #60]	; (8003e1c <init_uart+0x70>)
 8003dde:	2200      	movs	r2, #0
 8003de0:	619a      	str	r2, [r3, #24]
 8003de2:	9b01      	ldr	r3, [sp, #4]
 8003de4:	7e5b      	ldrb	r3, [r3, #25]
 8003de6:	b25b      	sxtb	r3, r3
 8003de8:	f1b3 3fff 	cmp.w	r3, #4294967295
 8003dec:	d103      	bne.n	8003df6 <init_uart+0x4a>
 8003dee:	4b0b      	ldr	r3, [pc, #44]	; (8003e1c <init_uart+0x70>)
 8003df0:	2208      	movs	r2, #8
 8003df2:	615a      	str	r2, [r3, #20]
 8003df4:	e00c      	b.n	8003e10 <init_uart+0x64>
 8003df6:	9b01      	ldr	r3, [sp, #4]
 8003df8:	7e1b      	ldrb	r3, [r3, #24]
 8003dfa:	b25b      	sxtb	r3, r3
 8003dfc:	f1b3 3fff 	cmp.w	r3, #4294967295
 8003e00:	d103      	bne.n	8003e0a <init_uart+0x5e>
 8003e02:	4b06      	ldr	r3, [pc, #24]	; (8003e1c <init_uart+0x70>)
 8003e04:	2204      	movs	r2, #4
 8003e06:	615a      	str	r2, [r3, #20]
 8003e08:	e002      	b.n	8003e10 <init_uart+0x64>
 8003e0a:	4b04      	ldr	r3, [pc, #16]	; (8003e1c <init_uart+0x70>)
 8003e0c:	220c      	movs	r2, #12
 8003e0e:	615a      	str	r2, [r3, #20]
 8003e10:	4802      	ldr	r0, [pc, #8]	; (8003e1c <init_uart+0x70>)
 8003e12:	f7ff fa13 	bl	800323c <HAL_UART_Init>
 8003e16:	b003      	add	sp, #12
 8003e18:	f85d fb04 	ldr.w	pc, [sp], #4
 8003e1c:	20000608 	.word	0x20000608

08003e20 <serial_init>:
 8003e20:	b500      	push	{lr}
 8003e22:	b085      	sub	sp, #20
 8003e24:	9001      	str	r0, [sp, #4]
 8003e26:	460b      	mov	r3, r1
 8003e28:	f88d 3003 	strb.w	r3, [sp, #3]
 8003e2c:	4613      	mov	r3, r2
 8003e2e:	f88d 3002 	strb.w	r3, [sp, #2]
 8003e32:	f99d 3003 	ldrsb.w	r3, [sp, #3]
 8003e36:	4618      	mov	r0, r3
 8003e38:	4947      	ldr	r1, [pc, #284]	; (8003f58 <serial_init+0x138>)
 8003e3a:	f7fe f9db 	bl	80021f4 <pinmap_peripheral>
 8003e3e:	9003      	str	r0, [sp, #12]
 8003e40:	f99d 3002 	ldrsb.w	r3, [sp, #2]
 8003e44:	4618      	mov	r0, r3
 8003e46:	4945      	ldr	r1, [pc, #276]	; (8003f5c <serial_init+0x13c>)
 8003e48:	f7fe f9d4 	bl	80021f4 <pinmap_peripheral>
 8003e4c:	9002      	str	r0, [sp, #8]
 8003e4e:	9803      	ldr	r0, [sp, #12]
 8003e50:	9902      	ldr	r1, [sp, #8]
 8003e52:	f7fe f98f 	bl	8002174 <pinmap_merge>
 8003e56:	4602      	mov	r2, r0
 8003e58:	9b01      	ldr	r3, [sp, #4]
 8003e5a:	601a      	str	r2, [r3, #0]
 8003e5c:	9b01      	ldr	r3, [sp, #4]
 8003e5e:	681b      	ldr	r3, [r3, #0]
 8003e60:	f1b3 3fff 	cmp.w	r3, #4294967295
 8003e64:	d104      	bne.n	8003e70 <serial_init+0x50>
 8003e66:	483e      	ldr	r0, [pc, #248]	; (8003f60 <serial_init+0x140>)
 8003e68:	493e      	ldr	r1, [pc, #248]	; (8003f64 <serial_init+0x144>)
 8003e6a:	2250      	movs	r2, #80	; 0x50
 8003e6c:	f7fe f862 	bl	8001f34 <mbed_assert_internal>
 8003e70:	9b01      	ldr	r3, [sp, #4]
 8003e72:	681b      	ldr	r3, [r3, #0]
 8003e74:	4a3c      	ldr	r2, [pc, #240]	; (8003f68 <serial_init+0x148>)
 8003e76:	4293      	cmp	r3, r2
 8003e78:	d006      	beq.n	8003e88 <serial_init+0x68>
 8003e7a:	4a3c      	ldr	r2, [pc, #240]	; (8003f6c <serial_init+0x14c>)
 8003e7c:	4293      	cmp	r3, r2
 8003e7e:	d017      	beq.n	8003eb0 <serial_init+0x90>
 8003e80:	4a3b      	ldr	r2, [pc, #236]	; (8003f70 <serial_init+0x150>)
 8003e82:	4293      	cmp	r3, r2
 8003e84:	d00a      	beq.n	8003e9c <serial_init+0x7c>
 8003e86:	e01d      	b.n	8003ec4 <serial_init+0xa4>
 8003e88:	4a3a      	ldr	r2, [pc, #232]	; (8003f74 <serial_init+0x154>)
 8003e8a:	4b3a      	ldr	r3, [pc, #232]	; (8003f74 <serial_init+0x154>)
 8003e8c:	6c5b      	ldr	r3, [r3, #68]	; 0x44
 8003e8e:	f043 0310 	orr.w	r3, r3, #16
 8003e92:	6453      	str	r3, [r2, #68]	; 0x44
 8003e94:	9b01      	ldr	r3, [sp, #4]
 8003e96:	2200      	movs	r2, #0
 8003e98:	605a      	str	r2, [r3, #4]
 8003e9a:	e013      	b.n	8003ec4 <serial_init+0xa4>
 8003e9c:	4a35      	ldr	r2, [pc, #212]	; (8003f74 <serial_init+0x154>)
 8003e9e:	4b35      	ldr	r3, [pc, #212]	; (8003f74 <serial_init+0x154>)
 8003ea0:	6c1b      	ldr	r3, [r3, #64]	; 0x40
 8003ea2:	f443 3300 	orr.w	r3, r3, #131072	; 0x20000
 8003ea6:	6413      	str	r3, [r2, #64]	; 0x40
 8003ea8:	9b01      	ldr	r3, [sp, #4]
 8003eaa:	2201      	movs	r2, #1
 8003eac:	605a      	str	r2, [r3, #4]
 8003eae:	e009      	b.n	8003ec4 <serial_init+0xa4>
 8003eb0:	4a30      	ldr	r2, [pc, #192]	; (8003f74 <serial_init+0x154>)
 8003eb2:	4b30      	ldr	r3, [pc, #192]	; (8003f74 <serial_init+0x154>)
 8003eb4:	6c5b      	ldr	r3, [r3, #68]	; 0x44
 8003eb6:	f043 0320 	orr.w	r3, r3, #32
 8003eba:	6453      	str	r3, [r2, #68]	; 0x44
 8003ebc:	9b01      	ldr	r3, [sp, #4]
 8003ebe:	2205      	movs	r2, #5
 8003ec0:	605a      	str	r2, [r3, #4]
 8003ec2:	bf00      	nop
 8003ec4:	f99d 3003 	ldrsb.w	r3, [sp, #3]
 8003ec8:	4618      	mov	r0, r3
 8003eca:	4923      	ldr	r1, [pc, #140]	; (8003f58 <serial_init+0x138>)
 8003ecc:	f7fe f91e 	bl	800210c <pinmap_pinout>
 8003ed0:	f99d 3002 	ldrsb.w	r3, [sp, #2]
 8003ed4:	4618      	mov	r0, r3
 8003ed6:	4921      	ldr	r1, [pc, #132]	; (8003f5c <serial_init+0x13c>)
 8003ed8:	f7fe f918 	bl	800210c <pinmap_pinout>
 8003edc:	f99d 3003 	ldrsb.w	r3, [sp, #3]
 8003ee0:	f1b3 3fff 	cmp.w	r3, #4294967295
 8003ee4:	d005      	beq.n	8003ef2 <serial_init+0xd2>
 8003ee6:	f99d 3003 	ldrsb.w	r3, [sp, #3]
 8003eea:	4618      	mov	r0, r3
 8003eec:	2101      	movs	r1, #1
 8003eee:	f7ff ff15 	bl	8003d1c <pin_mode>
 8003ef2:	f99d 3002 	ldrsb.w	r3, [sp, #2]
 8003ef6:	f1b3 3fff 	cmp.w	r3, #4294967295
 8003efa:	d005      	beq.n	8003f08 <serial_init+0xe8>
 8003efc:	f99d 3002 	ldrsb.w	r3, [sp, #2]
 8003f00:	4618      	mov	r0, r3
 8003f02:	2101      	movs	r1, #1
 8003f04:	f7ff ff0a 	bl	8003d1c <pin_mode>
 8003f08:	9b01      	ldr	r3, [sp, #4]
 8003f0a:	f44f 5216 	mov.w	r2, #9600	; 0x2580
 8003f0e:	609a      	str	r2, [r3, #8]
 8003f10:	9b01      	ldr	r3, [sp, #4]
 8003f12:	2200      	movs	r2, #0
 8003f14:	60da      	str	r2, [r3, #12]
 8003f16:	9b01      	ldr	r3, [sp, #4]
 8003f18:	2200      	movs	r2, #0
 8003f1a:	611a      	str	r2, [r3, #16]
 8003f1c:	9b01      	ldr	r3, [sp, #4]
 8003f1e:	2200      	movs	r2, #0
 8003f20:	615a      	str	r2, [r3, #20]
 8003f22:	9b01      	ldr	r3, [sp, #4]
 8003f24:	f89d 2003 	ldrb.w	r2, [sp, #3]
 8003f28:	761a      	strb	r2, [r3, #24]
 8003f2a:	9b01      	ldr	r3, [sp, #4]
 8003f2c:	f89d 2002 	ldrb.w	r2, [sp, #2]
 8003f30:	765a      	strb	r2, [r3, #25]
 8003f32:	9801      	ldr	r0, [sp, #4]
 8003f34:	f7ff ff3a 	bl	8003dac <init_uart>
 8003f38:	9b01      	ldr	r3, [sp, #4]
 8003f3a:	681b      	ldr	r3, [r3, #0]
 8003f3c:	4a0c      	ldr	r2, [pc, #48]	; (8003f70 <serial_init+0x150>)
 8003f3e:	4293      	cmp	r3, r2
 8003f40:	d107      	bne.n	8003f52 <serial_init+0x132>
 8003f42:	4b0d      	ldr	r3, [pc, #52]	; (8003f78 <serial_init+0x158>)
 8003f44:	2201      	movs	r2, #1
 8003f46:	601a      	str	r2, [r3, #0]
 8003f48:	480c      	ldr	r0, [pc, #48]	; (8003f7c <serial_init+0x15c>)
 8003f4a:	9901      	ldr	r1, [sp, #4]
 8003f4c:	221c      	movs	r2, #28
 8003f4e:	f001 fbd2 	bl	80056f6 <memcpy>
 8003f52:	b005      	add	sp, #20
 8003f54:	f85d fb04 	ldr.w	pc, [sp], #4
 8003f58:	080076c0 	.word	0x080076c0
 8003f5c:	08007708 	.word	0x08007708
 8003f60:	0800764c 	.word	0x0800764c
 8003f64:	08007668 	.word	0x08007668
 8003f68:	40011000 	.word	0x40011000
 8003f6c:	40011400 	.word	0x40011400
 8003f70:	40004400 	.word	0x40004400
 8003f74:	40023800 	.word	0x40023800
 8003f78:	20000478 	.word	0x20000478
 8003f7c:	20000644 	.word	0x20000644

08003f80 <serial_baud>:
 8003f80:	b500      	push	{lr}
 8003f82:	b083      	sub	sp, #12
 8003f84:	9001      	str	r0, [sp, #4]
 8003f86:	9100      	str	r1, [sp, #0]
 8003f88:	9a00      	ldr	r2, [sp, #0]
 8003f8a:	9b01      	ldr	r3, [sp, #4]
 8003f8c:	609a      	str	r2, [r3, #8]
 8003f8e:	9801      	ldr	r0, [sp, #4]
 8003f90:	f7ff ff0c 	bl	8003dac <init_uart>
 8003f94:	b003      	add	sp, #12
 8003f96:	f85d fb04 	ldr.w	pc, [sp], #4
 8003f9a:	bf00      	nop

08003f9c <serial_irq_handler>:
 8003f9c:	b084      	sub	sp, #16
 8003f9e:	9003      	str	r0, [sp, #12]
 8003fa0:	9102      	str	r1, [sp, #8]
 8003fa2:	9201      	str	r2, [sp, #4]
 8003fa4:	4a05      	ldr	r2, [pc, #20]	; (8003fbc <serial_irq_handler+0x20>)
 8003fa6:	9b02      	ldr	r3, [sp, #8]
 8003fa8:	6013      	str	r3, [r2, #0]
 8003faa:	9b03      	ldr	r3, [sp, #12]
 8003fac:	685b      	ldr	r3, [r3, #4]
 8003fae:	4904      	ldr	r1, [pc, #16]	; (8003fc0 <serial_irq_handler+0x24>)
 8003fb0:	9a01      	ldr	r2, [sp, #4]
 8003fb2:	f841 2023 	str.w	r2, [r1, r3, lsl #2]
 8003fb6:	b004      	add	sp, #16
 8003fb8:	4770      	bx	lr
 8003fba:	bf00      	nop
 8003fbc:	20000474 	.word	0x20000474
 8003fc0:	2000045c 	.word	0x2000045c

08003fc4 <serial_getc>:
 8003fc4:	b500      	push	{lr}
 8003fc6:	b085      	sub	sp, #20
 8003fc8:	9001      	str	r0, [sp, #4]
 8003fca:	9b01      	ldr	r3, [sp, #4]
 8003fcc:	681b      	ldr	r3, [r3, #0]
 8003fce:	9303      	str	r3, [sp, #12]
 8003fd0:	bf00      	nop
 8003fd2:	9801      	ldr	r0, [sp, #4]
 8003fd4:	f000 f822 	bl	800401c <serial_readable>
 8003fd8:	4603      	mov	r3, r0
 8003fda:	2b00      	cmp	r3, #0
 8003fdc:	d0f9      	beq.n	8003fd2 <serial_getc+0xe>
 8003fde:	9b03      	ldr	r3, [sp, #12]
 8003fe0:	685b      	ldr	r3, [r3, #4]
 8003fe2:	f3c3 0308 	ubfx	r3, r3, #0, #9
 8003fe6:	4618      	mov	r0, r3
 8003fe8:	b005      	add	sp, #20
 8003fea:	f85d fb04 	ldr.w	pc, [sp], #4
 8003fee:	bf00      	nop

08003ff0 <serial_putc>:
 8003ff0:	b500      	push	{lr}
 8003ff2:	b085      	sub	sp, #20
 8003ff4:	9001      	str	r0, [sp, #4]
 8003ff6:	9100      	str	r1, [sp, #0]
 8003ff8:	9b01      	ldr	r3, [sp, #4]
 8003ffa:	681b      	ldr	r3, [r3, #0]
 8003ffc:	9303      	str	r3, [sp, #12]
 8003ffe:	bf00      	nop
 8004000:	9801      	ldr	r0, [sp, #4]
 8004002:	f000 f823 	bl	800404c <serial_writable>
 8004006:	4603      	mov	r3, r0
 8004008:	2b00      	cmp	r3, #0
 800400a:	d0f9      	beq.n	8004000 <serial_putc+0x10>
 800400c:	9b00      	ldr	r3, [sp, #0]
 800400e:	f3c3 0208 	ubfx	r2, r3, #0, #9
 8004012:	9b03      	ldr	r3, [sp, #12]
 8004014:	605a      	str	r2, [r3, #4]
 8004016:	b005      	add	sp, #20
 8004018:	f85d fb04 	ldr.w	pc, [sp], #4

0800401c <serial_readable>:
 800401c:	b084      	sub	sp, #16
 800401e:	9001      	str	r0, [sp, #4]
 8004020:	9b01      	ldr	r3, [sp, #4]
 8004022:	681b      	ldr	r3, [r3, #0]
 8004024:	461a      	mov	r2, r3
 8004026:	4b08      	ldr	r3, [pc, #32]	; (8004048 <serial_readable+0x2c>)
 8004028:	601a      	str	r2, [r3, #0]
 800402a:	4b07      	ldr	r3, [pc, #28]	; (8004048 <serial_readable+0x2c>)
 800402c:	681b      	ldr	r3, [r3, #0]
 800402e:	681b      	ldr	r3, [r3, #0]
 8004030:	f003 0320 	and.w	r3, r3, #32
 8004034:	2b00      	cmp	r3, #0
 8004036:	bf14      	ite	ne
 8004038:	2301      	movne	r3, #1
 800403a:	2300      	moveq	r3, #0
 800403c:	b2db      	uxtb	r3, r3
 800403e:	9303      	str	r3, [sp, #12]
 8004040:	9b03      	ldr	r3, [sp, #12]
 8004042:	4618      	mov	r0, r3
 8004044:	b004      	add	sp, #16
 8004046:	4770      	bx	lr
 8004048:	20000608 	.word	0x20000608

0800404c <serial_writable>:
 800404c:	b084      	sub	sp, #16
 800404e:	9001      	str	r0, [sp, #4]
 8004050:	9b01      	ldr	r3, [sp, #4]
 8004052:	681b      	ldr	r3, [r3, #0]
 8004054:	461a      	mov	r2, r3
 8004056:	4b08      	ldr	r3, [pc, #32]	; (8004078 <serial_writable+0x2c>)
 8004058:	601a      	str	r2, [r3, #0]
 800405a:	4b07      	ldr	r3, [pc, #28]	; (8004078 <serial_writable+0x2c>)
 800405c:	681b      	ldr	r3, [r3, #0]
 800405e:	681b      	ldr	r3, [r3, #0]
 8004060:	f003 0380 	and.w	r3, r3, #128	; 0x80
 8004064:	2b00      	cmp	r3, #0
 8004066:	bf14      	ite	ne
 8004068:	2301      	movne	r3, #1
 800406a:	2300      	moveq	r3, #0
 800406c:	b2db      	uxtb	r3, r3
 800406e:	9303      	str	r3, [sp, #12]
 8004070:	9b03      	ldr	r3, [sp, #12]
 8004072:	4618      	mov	r0, r3
 8004074:	b004      	add	sp, #16
 8004076:	4770      	bx	lr
 8004078:	20000608 	.word	0x20000608

0800407c <us_ticker_init>:
 800407c:	b508      	push	{r3, lr}
 800407e:	4b07      	ldr	r3, [pc, #28]	; (800409c <us_ticker_init+0x20>)
 8004080:	681b      	ldr	r3, [r3, #0]
 8004082:	2b00      	cmp	r3, #0
 8004084:	d000      	beq.n	8004088 <us_ticker_init+0xc>
 8004086:	e008      	b.n	800409a <us_ticker_init+0x1e>
 8004088:	4b04      	ldr	r3, [pc, #16]	; (800409c <us_ticker_init+0x20>)
 800408a:	2201      	movs	r2, #1
 800408c:	601a      	str	r2, [r3, #0]
 800408e:	4b04      	ldr	r3, [pc, #16]	; (80040a0 <us_ticker_init+0x24>)
 8004090:	4a04      	ldr	r2, [pc, #16]	; (80040a4 <us_ticker_init+0x28>)
 8004092:	601a      	str	r2, [r3, #0]
 8004094:	2000      	movs	r0, #0
 8004096:	f7ff fb0b 	bl	80036b0 <HAL_InitTick>
 800409a:	bd08      	pop	{r3, pc}
 800409c:	200004b8 	.word	0x200004b8
 80040a0:	2000047c 	.word	0x2000047c
 80040a4:	40000c00 	.word	0x40000c00

080040a8 <us_ticker_read>:
 80040a8:	b508      	push	{r3, lr}
 80040aa:	4b05      	ldr	r3, [pc, #20]	; (80040c0 <us_ticker_read+0x18>)
 80040ac:	681b      	ldr	r3, [r3, #0]
 80040ae:	2b00      	cmp	r3, #0
 80040b0:	d101      	bne.n	80040b6 <us_ticker_read+0xe>
 80040b2:	f7ff ffe3 	bl	800407c <us_ticker_init>
 80040b6:	4b03      	ldr	r3, [pc, #12]	; (80040c4 <us_ticker_read+0x1c>)
 80040b8:	6a5b      	ldr	r3, [r3, #36]	; 0x24
 80040ba:	4618      	mov	r0, r3
 80040bc:	bd08      	pop	{r3, pc}
 80040be:	bf00      	nop
 80040c0:	200004b8 	.word	0x200004b8
 80040c4:	40000c00 	.word	0x40000c00

080040c8 <us_ticker_set_interrupt>:
 80040c8:	b082      	sub	sp, #8
 80040ca:	9001      	str	r0, [sp, #4]
 80040cc:	4b06      	ldr	r3, [pc, #24]	; (80040e8 <us_ticker_set_interrupt+0x20>)
 80040ce:	681b      	ldr	r3, [r3, #0]
 80040d0:	9a01      	ldr	r2, [sp, #4]
 80040d2:	635a      	str	r2, [r3, #52]	; 0x34
 80040d4:	4b04      	ldr	r3, [pc, #16]	; (80040e8 <us_ticker_set_interrupt+0x20>)
 80040d6:	681b      	ldr	r3, [r3, #0]
 80040d8:	4a03      	ldr	r2, [pc, #12]	; (80040e8 <us_ticker_set_interrupt+0x20>)
 80040da:	6812      	ldr	r2, [r2, #0]
 80040dc:	68d2      	ldr	r2, [r2, #12]
 80040de:	f042 0202 	orr.w	r2, r2, #2
 80040e2:	60da      	str	r2, [r3, #12]
 80040e4:	b002      	add	sp, #8
 80040e6:	4770      	bx	lr
 80040e8:	2000047c 	.word	0x2000047c

080040ec <us_ticker_disable_interrupt>:
 80040ec:	4b04      	ldr	r3, [pc, #16]	; (8004100 <us_ticker_disable_interrupt+0x14>)
 80040ee:	681b      	ldr	r3, [r3, #0]
 80040f0:	4a03      	ldr	r2, [pc, #12]	; (8004100 <us_ticker_disable_interrupt+0x14>)
 80040f2:	6812      	ldr	r2, [r2, #0]
 80040f4:	68d2      	ldr	r2, [r2, #12]
 80040f6:	f022 0202 	bic.w	r2, r2, #2
 80040fa:	60da      	str	r2, [r3, #12]
 80040fc:	4770      	bx	lr
 80040fe:	bf00      	nop
 8004100:	2000047c 	.word	0x2000047c

08004104 <us_ticker_clear_interrupt>:
 8004104:	4b02      	ldr	r3, [pc, #8]	; (8004110 <us_ticker_clear_interrupt+0xc>)
 8004106:	681b      	ldr	r3, [r3, #0]
 8004108:	f06f 0202 	mvn.w	r2, #2
 800410c:	611a      	str	r2, [r3, #16]
 800410e:	4770      	bx	lr
 8004110:	2000047c 	.word	0x2000047c

08004114 <mbed::BusOut::BusOut(PinName, PinName, PinName, PinName, PinName, PinName, PinName, PinName, PinName, PinName, PinName, PinName, PinName, PinName, PinName, PinName)>:
 8004114:	b510      	push	{r4, lr}
 8004116:	b088      	sub	sp, #32
 8004118:	9001      	str	r0, [sp, #4]
 800411a:	4608      	mov	r0, r1
 800411c:	4611      	mov	r1, r2
 800411e:	461a      	mov	r2, r3
 8004120:	4603      	mov	r3, r0
 8004122:	f88d 3003 	strb.w	r3, [sp, #3]
 8004126:	460b      	mov	r3, r1
 8004128:	f88d 3002 	strb.w	r3, [sp, #2]
 800412c:	4613      	mov	r3, r2
 800412e:	f88d 3001 	strb.w	r3, [sp, #1]
 8004132:	9b01      	ldr	r3, [sp, #4]
 8004134:	4a3f      	ldr	r2, [pc, #252]	; (8004234 <mbed::BusOut::BusOut(PinName, PinName, PinName, PinName, PinName, PinName, PinName, PinName, PinName, PinName, PinName, PinName, PinName, PinName, PinName, PinName)+0x120>)
 8004136:	601a      	str	r2, [r3, #0]
 8004138:	f89d 3003 	ldrb.w	r3, [sp, #3]
 800413c:	f88d 300c 	strb.w	r3, [sp, #12]
 8004140:	f89d 3002 	ldrb.w	r3, [sp, #2]
 8004144:	f88d 300d 	strb.w	r3, [sp, #13]
 8004148:	f89d 3001 	ldrb.w	r3, [sp, #1]
 800414c:	f88d 300e 	strb.w	r3, [sp, #14]
 8004150:	f89d 3028 	ldrb.w	r3, [sp, #40]	; 0x28
 8004154:	f88d 300f 	strb.w	r3, [sp, #15]
 8004158:	f89d 302c 	ldrb.w	r3, [sp, #44]	; 0x2c
 800415c:	f88d 3010 	strb.w	r3, [sp, #16]
 8004160:	f89d 3030 	ldrb.w	r3, [sp, #48]	; 0x30
 8004164:	f88d 3011 	strb.w	r3, [sp, #17]
 8004168:	f89d 3034 	ldrb.w	r3, [sp, #52]	; 0x34
 800416c:	f88d 3012 	strb.w	r3, [sp, #18]
 8004170:	f89d 3038 	ldrb.w	r3, [sp, #56]	; 0x38
 8004174:	f88d 3013 	strb.w	r3, [sp, #19]
 8004178:	f89d 303c 	ldrb.w	r3, [sp, #60]	; 0x3c
 800417c:	f88d 3014 	strb.w	r3, [sp, #20]
 8004180:	f89d 3040 	ldrb.w	r3, [sp, #64]	; 0x40
 8004184:	f88d 3015 	strb.w	r3, [sp, #21]
 8004188:	f89d 3044 	ldrb.w	r3, [sp, #68]	; 0x44
 800418c:	f88d 3016 	strb.w	r3, [sp, #22]
 8004190:	f89d 3048 	ldrb.w	r3, [sp, #72]	; 0x48
 8004194:	f88d 3017 	strb.w	r3, [sp, #23]
 8004198:	f89d 304c 	ldrb.w	r3, [sp, #76]	; 0x4c
 800419c:	f88d 3018 	strb.w	r3, [sp, #24]
 80041a0:	f89d 3050 	ldrb.w	r3, [sp, #80]	; 0x50
 80041a4:	f88d 3019 	strb.w	r3, [sp, #25]
 80041a8:	f89d 3054 	ldrb.w	r3, [sp, #84]	; 0x54
 80041ac:	f88d 301a 	strb.w	r3, [sp, #26]
 80041b0:	f89d 3058 	ldrb.w	r3, [sp, #88]	; 0x58
 80041b4:	f88d 301b 	strb.w	r3, [sp, #27]
 80041b8:	9b01      	ldr	r3, [sp, #4]
 80041ba:	2200      	movs	r2, #0
 80041bc:	645a      	str	r2, [r3, #68]	; 0x44
 80041be:	2300      	movs	r3, #0
 80041c0:	9307      	str	r3, [sp, #28]
 80041c2:	e030      	b.n	8004226 <mbed::BusOut::BusOut(PinName, PinName, PinName, PinName, PinName, PinName, PinName, PinName, PinName, PinName, PinName, PinName, PinName, PinName, PinName, PinName)+0x112>
 80041c4:	aa03      	add	r2, sp, #12
 80041c6:	9b07      	ldr	r3, [sp, #28]
 80041c8:	4413      	add	r3, r2
 80041ca:	781b      	ldrb	r3, [r3, #0]
 80041cc:	b25b      	sxtb	r3, r3
 80041ce:	f1b3 3fff 	cmp.w	r3, #4294967295
 80041d2:	d00e      	beq.n	80041f2 <mbed::BusOut::BusOut(PinName, PinName, PinName, PinName, PinName, PinName, PinName, PinName, PinName, PinName, PinName, PinName, PinName, PinName, PinName, PinName)+0xde>
 80041d4:	2014      	movs	r0, #20
 80041d6:	f000 fee4 	bl	8004fa2 <operator new(unsigned int)>
 80041da:	4604      	mov	r4, r0
 80041dc:	aa03      	add	r2, sp, #12
 80041de:	9b07      	ldr	r3, [sp, #28]
 80041e0:	4413      	add	r3, r2
 80041e2:	781b      	ldrb	r3, [r3, #0]
 80041e4:	b25b      	sxtb	r3, r3
 80041e6:	4620      	mov	r0, r4
 80041e8:	4619      	mov	r1, r3
 80041ea:	f7fc f85d 	bl	80002a8 <mbed::DigitalOut::DigitalOut(PinName)>
 80041ee:	4621      	mov	r1, r4
 80041f0:	e000      	b.n	80041f4 <mbed::BusOut::BusOut(PinName, PinName, PinName, PinName, PinName, PinName, PinName, PinName, PinName, PinName, PinName, PinName, PinName, PinName, PinName, PinName)+0xe0>
 80041f2:	2100      	movs	r1, #0
 80041f4:	9a01      	ldr	r2, [sp, #4]
 80041f6:	9b07      	ldr	r3, [sp, #28]
 80041f8:	009b      	lsls	r3, r3, #2
 80041fa:	4413      	add	r3, r2
 80041fc:	6059      	str	r1, [r3, #4]
 80041fe:	aa03      	add	r2, sp, #12
 8004200:	9b07      	ldr	r3, [sp, #28]
 8004202:	4413      	add	r3, r2
 8004204:	781b      	ldrb	r3, [r3, #0]
 8004206:	b25b      	sxtb	r3, r3
 8004208:	f1b3 3fff 	cmp.w	r3, #4294967295
 800420c:	d008      	beq.n	8004220 <mbed::BusOut::BusOut(PinName, PinName, PinName, PinName, PinName, PinName, PinName, PinName, PinName, PinName, PinName, PinName, PinName, PinName, PinName, PinName)+0x10c>
 800420e:	9b01      	ldr	r3, [sp, #4]
 8004210:	6c5a      	ldr	r2, [r3, #68]	; 0x44
 8004212:	2101      	movs	r1, #1
 8004214:	9b07      	ldr	r3, [sp, #28]
 8004216:	fa01 f303 	lsl.w	r3, r1, r3
 800421a:	431a      	orrs	r2, r3
 800421c:	9b01      	ldr	r3, [sp, #4]
 800421e:	645a      	str	r2, [r3, #68]	; 0x44
 8004220:	9b07      	ldr	r3, [sp, #28]
 8004222:	3301      	adds	r3, #1
 8004224:	9307      	str	r3, [sp, #28]
 8004226:	9b07      	ldr	r3, [sp, #28]
 8004228:	2b0f      	cmp	r3, #15
 800422a:	ddcb      	ble.n	80041c4 <mbed::BusOut::BusOut(PinName, PinName, PinName, PinName, PinName, PinName, PinName, PinName, PinName, PinName, PinName, PinName, PinName, PinName, PinName, PinName)+0xb0>
 800422c:	9b01      	ldr	r3, [sp, #4]
 800422e:	4618      	mov	r0, r3
 8004230:	b008      	add	sp, #32
 8004232:	bd10      	pop	{r4, pc}
 8004234:	08007758 	.word	0x08007758

08004238 <mbed::BusOut::~BusOut()>:
 8004238:	b500      	push	{lr}
 800423a:	b085      	sub	sp, #20
 800423c:	9001      	str	r0, [sp, #4]
 800423e:	9b01      	ldr	r3, [sp, #4]
 8004240:	4a12      	ldr	r2, [pc, #72]	; (800428c <mbed::BusOut::~BusOut()+0x54>)
 8004242:	601a      	str	r2, [r3, #0]
 8004244:	2300      	movs	r3, #0
 8004246:	9303      	str	r3, [sp, #12]
 8004248:	e011      	b.n	800426e <mbed::BusOut::~BusOut()+0x36>
 800424a:	9a01      	ldr	r2, [sp, #4]
 800424c:	9b03      	ldr	r3, [sp, #12]
 800424e:	009b      	lsls	r3, r3, #2
 8004250:	4413      	add	r3, r2
 8004252:	685b      	ldr	r3, [r3, #4]
 8004254:	2b00      	cmp	r3, #0
 8004256:	d007      	beq.n	8004268 <mbed::BusOut::~BusOut()+0x30>
 8004258:	9a01      	ldr	r2, [sp, #4]
 800425a:	9b03      	ldr	r3, [sp, #12]
 800425c:	009b      	lsls	r3, r3, #2
 800425e:	4413      	add	r3, r2
 8004260:	685b      	ldr	r3, [r3, #4]
 8004262:	4618      	mov	r0, r3
 8004264:	f000 feae 	bl	8004fc4 <operator delete(void*)>
 8004268:	9b03      	ldr	r3, [sp, #12]
 800426a:	3301      	adds	r3, #1
 800426c:	9303      	str	r3, [sp, #12]
 800426e:	9b03      	ldr	r3, [sp, #12]
 8004270:	2b0f      	cmp	r3, #15
 8004272:	ddea      	ble.n	800424a <mbed::BusOut::~BusOut()+0x12>
 8004274:	2300      	movs	r3, #0
 8004276:	2b00      	cmp	r3, #0
 8004278:	d002      	beq.n	8004280 <mbed::BusOut::~BusOut()+0x48>
 800427a:	9801      	ldr	r0, [sp, #4]
 800427c:	f000 fea2 	bl	8004fc4 <operator delete(void*)>
 8004280:	9b01      	ldr	r3, [sp, #4]
 8004282:	4618      	mov	r0, r3
 8004284:	b005      	add	sp, #20
 8004286:	f85d fb04 	ldr.w	pc, [sp], #4
 800428a:	bf00      	nop
 800428c:	08007758 	.word	0x08007758

08004290 <mbed::BusOut::~BusOut()>:
 8004290:	b500      	push	{lr}
 8004292:	b083      	sub	sp, #12
 8004294:	9001      	str	r0, [sp, #4]
 8004296:	9801      	ldr	r0, [sp, #4]
 8004298:	f7ff ffce 	bl	8004238 <mbed::BusOut::~BusOut()>
 800429c:	9801      	ldr	r0, [sp, #4]
 800429e:	f000 fe91 	bl	8004fc4 <operator delete(void*)>
 80042a2:	9b01      	ldr	r3, [sp, #4]
 80042a4:	4618      	mov	r0, r3
 80042a6:	b003      	add	sp, #12
 80042a8:	f85d fb04 	ldr.w	pc, [sp], #4

080042ac <mbed::BusOut::write(int)>:
 80042ac:	b500      	push	{lr}
 80042ae:	b085      	sub	sp, #20
 80042b0:	9001      	str	r0, [sp, #4]
 80042b2:	9100      	str	r1, [sp, #0]
 80042b4:	2300      	movs	r3, #0
 80042b6:	9303      	str	r3, [sp, #12]
 80042b8:	e018      	b.n	80042ec <mbed::BusOut::write(int)+0x40>
 80042ba:	9a01      	ldr	r2, [sp, #4]
 80042bc:	9b03      	ldr	r3, [sp, #12]
 80042be:	009b      	lsls	r3, r3, #2
 80042c0:	4413      	add	r3, r2
 80042c2:	685b      	ldr	r3, [r3, #4]
 80042c4:	2b00      	cmp	r3, #0
 80042c6:	d00e      	beq.n	80042e6 <mbed::BusOut::write(int)+0x3a>
 80042c8:	9a01      	ldr	r2, [sp, #4]
 80042ca:	9b03      	ldr	r3, [sp, #12]
 80042cc:	009b      	lsls	r3, r3, #2
 80042ce:	4413      	add	r3, r2
 80042d0:	6859      	ldr	r1, [r3, #4]
 80042d2:	9a00      	ldr	r2, [sp, #0]
 80042d4:	9b03      	ldr	r3, [sp, #12]
 80042d6:	fa42 f303 	asr.w	r3, r2, r3
 80042da:	f003 0301 	and.w	r3, r3, #1
 80042de:	4608      	mov	r0, r1
 80042e0:	4619      	mov	r1, r3
 80042e2:	f7fc f9a3 	bl	800062c <mbed::DigitalOut::write(int)>
 80042e6:	9b03      	ldr	r3, [sp, #12]
 80042e8:	3301      	adds	r3, #1
 80042ea:	9303      	str	r3, [sp, #12]
 80042ec:	9b03      	ldr	r3, [sp, #12]
 80042ee:	2b0f      	cmp	r3, #15
 80042f0:	dde3      	ble.n	80042ba <mbed::BusOut::write(int)+0xe>
 80042f2:	b005      	add	sp, #20
 80042f4:	f85d fb04 	ldr.w	pc, [sp], #4

080042f8 <mbed::BusOut::operator=(int)>:
 80042f8:	b500      	push	{lr}
 80042fa:	b083      	sub	sp, #12
 80042fc:	9001      	str	r0, [sp, #4]
 80042fe:	9100      	str	r1, [sp, #0]
 8004300:	9801      	ldr	r0, [sp, #4]
 8004302:	9900      	ldr	r1, [sp, #0]
 8004304:	f7ff ffd2 	bl	80042ac <mbed::BusOut::write(int)>
 8004308:	9b01      	ldr	r3, [sp, #4]
 800430a:	4618      	mov	r0, r3
 800430c:	b003      	add	sp, #12
 800430e:	f85d fb04 	ldr.w	pc, [sp], #4
 8004312:	bf00      	nop

08004314 <mbed::FileBase::FileBase(char const*, mbed::PathType)>:
 8004314:	b084      	sub	sp, #16
 8004316:	9003      	str	r0, [sp, #12]
 8004318:	9102      	str	r1, [sp, #8]
 800431a:	4613      	mov	r3, r2
 800431c:	f88d 3007 	strb.w	r3, [sp, #7]
 8004320:	9b03      	ldr	r3, [sp, #12]
 8004322:	4a0f      	ldr	r2, [pc, #60]	; (8004360 <mbed::FileBase::FileBase(char const*, mbed::PathType)+0x4c>)
 8004324:	601a      	str	r2, [r3, #0]
 8004326:	9b03      	ldr	r3, [sp, #12]
 8004328:	2200      	movs	r2, #0
 800432a:	605a      	str	r2, [r3, #4]
 800432c:	9b03      	ldr	r3, [sp, #12]
 800432e:	9a02      	ldr	r2, [sp, #8]
 8004330:	609a      	str	r2, [r3, #8]
 8004332:	9b03      	ldr	r3, [sp, #12]
 8004334:	f89d 2007 	ldrb.w	r2, [sp, #7]
 8004338:	731a      	strb	r2, [r3, #12]
 800433a:	9b02      	ldr	r3, [sp, #8]
 800433c:	2b00      	cmp	r3, #0
 800433e:	d007      	beq.n	8004350 <mbed::FileBase::FileBase(char const*, mbed::PathType)+0x3c>
 8004340:	4b08      	ldr	r3, [pc, #32]	; (8004364 <mbed::FileBase::FileBase(char const*, mbed::PathType)+0x50>)
 8004342:	681a      	ldr	r2, [r3, #0]
 8004344:	9b03      	ldr	r3, [sp, #12]
 8004346:	605a      	str	r2, [r3, #4]
 8004348:	4a06      	ldr	r2, [pc, #24]	; (8004364 <mbed::FileBase::FileBase(char const*, mbed::PathType)+0x50>)
 800434a:	9b03      	ldr	r3, [sp, #12]
 800434c:	6013      	str	r3, [r2, #0]
 800434e:	e002      	b.n	8004356 <mbed::FileBase::FileBase(char const*, mbed::PathType)+0x42>
 8004350:	9b03      	ldr	r3, [sp, #12]
 8004352:	2200      	movs	r2, #0
 8004354:	605a      	str	r2, [r3, #4]
 8004356:	9b03      	ldr	r3, [sp, #12]
 8004358:	4618      	mov	r0, r3
 800435a:	b004      	add	sp, #16
 800435c:	4770      	bx	lr
 800435e:	bf00      	nop
 8004360:	08007768 	.word	0x08007768
 8004364:	200004bc 	.word	0x200004bc

08004368 <mbed::FileBase::~FileBase()>:
 8004368:	b500      	push	{lr}
 800436a:	b085      	sub	sp, #20
 800436c:	9001      	str	r0, [sp, #4]
 800436e:	9b01      	ldr	r3, [sp, #4]
 8004370:	4a15      	ldr	r2, [pc, #84]	; (80043c8 <mbed::FileBase::~FileBase()+0x60>)
 8004372:	601a      	str	r2, [r3, #0]
 8004374:	9b01      	ldr	r3, [sp, #4]
 8004376:	689b      	ldr	r3, [r3, #8]
 8004378:	2b00      	cmp	r3, #0
 800437a:	d019      	beq.n	80043b0 <mbed::FileBase::~FileBase()+0x48>
 800437c:	4b13      	ldr	r3, [pc, #76]	; (80043cc <mbed::FileBase::~FileBase()+0x64>)
 800437e:	681a      	ldr	r2, [r3, #0]
 8004380:	9b01      	ldr	r3, [sp, #4]
 8004382:	429a      	cmp	r2, r3
 8004384:	d104      	bne.n	8004390 <mbed::FileBase::~FileBase()+0x28>
 8004386:	9b01      	ldr	r3, [sp, #4]
 8004388:	685b      	ldr	r3, [r3, #4]
 800438a:	4a10      	ldr	r2, [pc, #64]	; (80043cc <mbed::FileBase::~FileBase()+0x64>)
 800438c:	6013      	str	r3, [r2, #0]
 800438e:	e00f      	b.n	80043b0 <mbed::FileBase::~FileBase()+0x48>
 8004390:	4b0e      	ldr	r3, [pc, #56]	; (80043cc <mbed::FileBase::~FileBase()+0x64>)
 8004392:	681b      	ldr	r3, [r3, #0]
 8004394:	9303      	str	r3, [sp, #12]
 8004396:	e002      	b.n	800439e <mbed::FileBase::~FileBase()+0x36>
 8004398:	9b03      	ldr	r3, [sp, #12]
 800439a:	685b      	ldr	r3, [r3, #4]
 800439c:	9303      	str	r3, [sp, #12]
 800439e:	9b03      	ldr	r3, [sp, #12]
 80043a0:	685a      	ldr	r2, [r3, #4]
 80043a2:	9b01      	ldr	r3, [sp, #4]
 80043a4:	429a      	cmp	r2, r3
 80043a6:	d1f7      	bne.n	8004398 <mbed::FileBase::~FileBase()+0x30>
 80043a8:	9b01      	ldr	r3, [sp, #4]
 80043aa:	685a      	ldr	r2, [r3, #4]
 80043ac:	9b03      	ldr	r3, [sp, #12]
 80043ae:	605a      	str	r2, [r3, #4]
 80043b0:	2300      	movs	r3, #0
 80043b2:	2b00      	cmp	r3, #0
 80043b4:	d002      	beq.n	80043bc <mbed::FileBase::~FileBase()+0x54>
 80043b6:	9801      	ldr	r0, [sp, #4]
 80043b8:	f000 fe04 	bl	8004fc4 <operator delete(void*)>
 80043bc:	9b01      	ldr	r3, [sp, #4]
 80043be:	4618      	mov	r0, r3
 80043c0:	b005      	add	sp, #20
 80043c2:	f85d fb04 	ldr.w	pc, [sp], #4
 80043c6:	bf00      	nop
 80043c8:	08007768 	.word	0x08007768
 80043cc:	200004bc 	.word	0x200004bc

080043d0 <mbed::FileBase::~FileBase()>:
 80043d0:	b500      	push	{lr}
 80043d2:	b083      	sub	sp, #12
 80043d4:	9001      	str	r0, [sp, #4]
 80043d6:	9801      	ldr	r0, [sp, #4]
 80043d8:	f7ff ffc6 	bl	8004368 <mbed::FileBase::~FileBase()>
 80043dc:	9801      	ldr	r0, [sp, #4]
 80043de:	f000 fdf1 	bl	8004fc4 <operator delete(void*)>
 80043e2:	9b01      	ldr	r3, [sp, #4]
 80043e4:	4618      	mov	r0, r3
 80043e6:	b003      	add	sp, #12
 80043e8:	f85d fb04 	ldr.w	pc, [sp], #4

080043ec <mbed::FileBase::lookup(char const*, unsigned int)>:
 80043ec:	b500      	push	{lr}
 80043ee:	b085      	sub	sp, #20
 80043f0:	9001      	str	r0, [sp, #4]
 80043f2:	9100      	str	r1, [sp, #0]
 80043f4:	4b13      	ldr	r3, [pc, #76]	; (8004444 <mbed::FileBase::lookup(char const*, unsigned int)+0x58>)
 80043f6:	681b      	ldr	r3, [r3, #0]
 80043f8:	9303      	str	r3, [sp, #12]
 80043fa:	e01b      	b.n	8004434 <mbed::FileBase::lookup(char const*, unsigned int)+0x48>
 80043fc:	9b03      	ldr	r3, [sp, #12]
 80043fe:	689b      	ldr	r3, [r3, #8]
 8004400:	2b00      	cmp	r3, #0
 8004402:	d014      	beq.n	800442e <mbed::FileBase::lookup(char const*, unsigned int)+0x42>
 8004404:	9b03      	ldr	r3, [sp, #12]
 8004406:	689b      	ldr	r3, [r3, #8]
 8004408:	4618      	mov	r0, r3
 800440a:	9901      	ldr	r1, [sp, #4]
 800440c:	9a00      	ldr	r2, [sp, #0]
 800440e:	f001 ffe4 	bl	80063da <strncmp>
 8004412:	4603      	mov	r3, r0
 8004414:	2b00      	cmp	r3, #0
 8004416:	d10a      	bne.n	800442e <mbed::FileBase::lookup(char const*, unsigned int)+0x42>
 8004418:	9b03      	ldr	r3, [sp, #12]
 800441a:	689b      	ldr	r3, [r3, #8]
 800441c:	4618      	mov	r0, r3
 800441e:	f001 ffd4 	bl	80063ca <strlen>
 8004422:	4602      	mov	r2, r0
 8004424:	9b00      	ldr	r3, [sp, #0]
 8004426:	429a      	cmp	r2, r3
 8004428:	d101      	bne.n	800442e <mbed::FileBase::lookup(char const*, unsigned int)+0x42>
 800442a:	9b03      	ldr	r3, [sp, #12]
 800442c:	e006      	b.n	800443c <mbed::FileBase::lookup(char const*, unsigned int)+0x50>
 800442e:	9b03      	ldr	r3, [sp, #12]
 8004430:	685b      	ldr	r3, [r3, #4]
 8004432:	9303      	str	r3, [sp, #12]
 8004434:	9b03      	ldr	r3, [sp, #12]
 8004436:	2b00      	cmp	r3, #0
 8004438:	d1e0      	bne.n	80043fc <mbed::FileBase::lookup(char const*, unsigned int)+0x10>
 800443a:	2300      	movs	r3, #0
 800443c:	4618      	mov	r0, r3
 800443e:	b005      	add	sp, #20
 8004440:	f85d fb04 	ldr.w	pc, [sp], #4
 8004444:	200004bc 	.word	0x200004bc

08004448 <mbed::FileBase::getPathType()>:
 8004448:	b082      	sub	sp, #8
 800444a:	9001      	str	r0, [sp, #4]
 800444c:	9b01      	ldr	r3, [sp, #4]
 800444e:	7b1b      	ldrb	r3, [r3, #12]
 8004450:	4618      	mov	r0, r3
 8004452:	b002      	add	sp, #8
 8004454:	4770      	bx	lr
 8004456:	bf00      	nop

08004458 <mbed::FileHandle::flen()>:
 8004458:	b500      	push	{lr}
 800445a:	b085      	sub	sp, #20
 800445c:	9001      	str	r0, [sp, #4]
 800445e:	9b01      	ldr	r3, [sp, #4]
 8004460:	681b      	ldr	r3, [r3, #0]
 8004462:	3310      	adds	r3, #16
 8004464:	681b      	ldr	r3, [r3, #0]
 8004466:	9801      	ldr	r0, [sp, #4]
 8004468:	2100      	movs	r1, #0
 800446a:	2201      	movs	r2, #1
 800446c:	4798      	blx	r3
 800446e:	9003      	str	r0, [sp, #12]
 8004470:	9b03      	ldr	r3, [sp, #12]
 8004472:	f1b3 3fff 	cmp.w	r3, #4294967295
 8004476:	d102      	bne.n	800447e <mbed::FileHandle::flen()+0x26>
 8004478:	f04f 33ff 	mov.w	r3, #4294967295
 800447c:	e011      	b.n	80044a2 <mbed::FileHandle::flen()+0x4a>
 800447e:	9b01      	ldr	r3, [sp, #4]
 8004480:	681b      	ldr	r3, [r3, #0]
 8004482:	3310      	adds	r3, #16
 8004484:	681b      	ldr	r3, [r3, #0]
 8004486:	9801      	ldr	r0, [sp, #4]
 8004488:	2100      	movs	r1, #0
 800448a:	2202      	movs	r2, #2
 800448c:	4798      	blx	r3
 800448e:	9002      	str	r0, [sp, #8]
 8004490:	9b01      	ldr	r3, [sp, #4]
 8004492:	681b      	ldr	r3, [r3, #0]
 8004494:	3310      	adds	r3, #16
 8004496:	681b      	ldr	r3, [r3, #0]
 8004498:	9801      	ldr	r0, [sp, #4]
 800449a:	9903      	ldr	r1, [sp, #12]
 800449c:	2200      	movs	r2, #0
 800449e:	4798      	blx	r3
 80044a0:	9b02      	ldr	r3, [sp, #8]
 80044a2:	4618      	mov	r0, r3
 80044a4:	b005      	add	sp, #20
 80044a6:	f85d fb04 	ldr.w	pc, [sp], #4
 80044aa:	bf00      	nop

080044ac <mbed::FileHandle::FileHandle()>:
 80044ac:	b082      	sub	sp, #8
 80044ae:	9001      	str	r0, [sp, #4]
 80044b0:	9b01      	ldr	r3, [sp, #4]
 80044b2:	4a03      	ldr	r2, [pc, #12]	; (80044c0 <mbed::FileHandle::FileHandle()+0x14>)
 80044b4:	601a      	str	r2, [r3, #0]
 80044b6:	9b01      	ldr	r3, [sp, #4]
 80044b8:	4618      	mov	r0, r3
 80044ba:	b002      	add	sp, #8
 80044bc:	4770      	bx	lr
 80044be:	bf00      	nop
 80044c0:	080077e0 	.word	0x080077e0

080044c4 <mbed::FileLike::FileLike(char const*)>:
 80044c4:	b500      	push	{lr}
 80044c6:	b083      	sub	sp, #12
 80044c8:	9001      	str	r0, [sp, #4]
 80044ca:	9100      	str	r1, [sp, #0]
 80044cc:	9b01      	ldr	r3, [sp, #4]
 80044ce:	4618      	mov	r0, r3
 80044d0:	f7ff ffec 	bl	80044ac <mbed::FileHandle::FileHandle()>
 80044d4:	9b01      	ldr	r3, [sp, #4]
 80044d6:	3304      	adds	r3, #4
 80044d8:	4618      	mov	r0, r3
 80044da:	9900      	ldr	r1, [sp, #0]
 80044dc:	2200      	movs	r2, #0
 80044de:	f7ff ff19 	bl	8004314 <mbed::FileBase::FileBase(char const*, mbed::PathType)>
 80044e2:	9b01      	ldr	r3, [sp, #4]
 80044e4:	4a04      	ldr	r2, [pc, #16]	; (80044f8 <mbed::FileLike::FileLike(char const*)+0x34>)
 80044e6:	601a      	str	r2, [r3, #0]
 80044e8:	9b01      	ldr	r3, [sp, #4]
 80044ea:	4a04      	ldr	r2, [pc, #16]	; (80044fc <mbed::FileLike::FileLike(char const*)+0x38>)
 80044ec:	605a      	str	r2, [r3, #4]
 80044ee:	9b01      	ldr	r3, [sp, #4]
 80044f0:	4618      	mov	r0, r3
 80044f2:	b003      	add	sp, #12
 80044f4:	f85d fb04 	ldr.w	pc, [sp], #4
 80044f8:	08007778 	.word	0x08007778
 80044fc:	080077a4 	.word	0x080077a4

08004500 <mbed::FileLike::~FileLike()>:
 8004500:	b500      	push	{lr}
 8004502:	b083      	sub	sp, #12
 8004504:	9001      	str	r0, [sp, #4]
 8004506:	9b01      	ldr	r3, [sp, #4]
 8004508:	4a0c      	ldr	r2, [pc, #48]	; (800453c <mbed::FileLike::~FileLike()+0x3c>)
 800450a:	601a      	str	r2, [r3, #0]
 800450c:	9b01      	ldr	r3, [sp, #4]
 800450e:	4a0c      	ldr	r2, [pc, #48]	; (8004540 <mbed::FileLike::~FileLike()+0x40>)
 8004510:	605a      	str	r2, [r3, #4]
 8004512:	9b01      	ldr	r3, [sp, #4]
 8004514:	3304      	adds	r3, #4
 8004516:	4618      	mov	r0, r3
 8004518:	f7ff ff26 	bl	8004368 <mbed::FileBase::~FileBase()>
 800451c:	9b01      	ldr	r3, [sp, #4]
 800451e:	4618      	mov	r0, r3
 8004520:	f000 f902 	bl	8004728 <mbed::FileHandle::~FileHandle()>
 8004524:	2300      	movs	r3, #0
 8004526:	2b00      	cmp	r3, #0
 8004528:	d002      	beq.n	8004530 <mbed::FileLike::~FileLike()+0x30>
 800452a:	9801      	ldr	r0, [sp, #4]
 800452c:	f000 fd4a 	bl	8004fc4 <operator delete(void*)>
 8004530:	9b01      	ldr	r3, [sp, #4]
 8004532:	4618      	mov	r0, r3
 8004534:	b003      	add	sp, #12
 8004536:	f85d fb04 	ldr.w	pc, [sp], #4
 800453a:	bf00      	nop
 800453c:	08007778 	.word	0x08007778
 8004540:	080077a4 	.word	0x080077a4

08004544 <mbed::FilePath::FilePath(char const*)>:
 8004544:	b500      	push	{lr}
 8004546:	b087      	sub	sp, #28
 8004548:	9001      	str	r0, [sp, #4]
 800454a:	9100      	str	r1, [sp, #0]
 800454c:	9b01      	ldr	r3, [sp, #4]
 800454e:	2200      	movs	r2, #0
 8004550:	601a      	str	r2, [r3, #0]
 8004552:	9b01      	ldr	r3, [sp, #4]
 8004554:	2200      	movs	r2, #0
 8004556:	605a      	str	r2, [r3, #4]
 8004558:	9b00      	ldr	r3, [sp, #0]
 800455a:	781b      	ldrb	r3, [r3, #0]
 800455c:	2b2f      	cmp	r3, #47	; 0x2f
 800455e:	d131      	bne.n	80045c4 <mbed::FilePath::FilePath(char const*)+0x80>
 8004560:	9b00      	ldr	r3, [sp, #0]
 8004562:	3301      	adds	r3, #1
 8004564:	781b      	ldrb	r3, [r3, #0]
 8004566:	2b00      	cmp	r3, #0
 8004568:	d02c      	beq.n	80045c4 <mbed::FilePath::FilePath(char const*)+0x80>
 800456a:	9b00      	ldr	r3, [sp, #0]
 800456c:	3301      	adds	r3, #1
 800456e:	9304      	str	r3, [sp, #16]
 8004570:	9b01      	ldr	r3, [sp, #4]
 8004572:	9a04      	ldr	r2, [sp, #16]
 8004574:	601a      	str	r2, [r3, #0]
 8004576:	2300      	movs	r3, #0
 8004578:	9305      	str	r3, [sp, #20]
 800457a:	9b01      	ldr	r3, [sp, #4]
 800457c:	681b      	ldr	r3, [r3, #0]
 800457e:	781b      	ldrb	r3, [r3, #0]
 8004580:	f88d 300f 	strb.w	r3, [sp, #15]
 8004584:	f89d 300f 	ldrb.w	r3, [sp, #15]
 8004588:	2b2f      	cmp	r3, #47	; 0x2f
 800458a:	d105      	bne.n	8004598 <mbed::FilePath::FilePath(char const*)+0x54>
 800458c:	9b01      	ldr	r3, [sp, #4]
 800458e:	681b      	ldr	r3, [r3, #0]
 8004590:	1c5a      	adds	r2, r3, #1
 8004592:	9b01      	ldr	r3, [sp, #4]
 8004594:	601a      	str	r2, [r3, #0]
 8004596:	e00d      	b.n	80045b4 <mbed::FilePath::FilePath(char const*)+0x70>
 8004598:	f89d 300f 	ldrb.w	r3, [sp, #15]
 800459c:	2b00      	cmp	r3, #0
 800459e:	d100      	bne.n	80045a2 <mbed::FilePath::FilePath(char const*)+0x5e>
 80045a0:	e008      	b.n	80045b4 <mbed::FilePath::FilePath(char const*)+0x70>
 80045a2:	9b05      	ldr	r3, [sp, #20]
 80045a4:	3301      	adds	r3, #1
 80045a6:	9305      	str	r3, [sp, #20]
 80045a8:	9b01      	ldr	r3, [sp, #4]
 80045aa:	681b      	ldr	r3, [r3, #0]
 80045ac:	1c5a      	adds	r2, r3, #1
 80045ae:	9b01      	ldr	r3, [sp, #4]
 80045b0:	601a      	str	r2, [r3, #0]
 80045b2:	e7e2      	b.n	800457a <mbed::FilePath::FilePath(char const*)+0x36>
 80045b4:	9b05      	ldr	r3, [sp, #20]
 80045b6:	9804      	ldr	r0, [sp, #16]
 80045b8:	4619      	mov	r1, r3
 80045ba:	f7ff ff17 	bl	80043ec <mbed::FileBase::lookup(char const*, unsigned int)>
 80045be:	4602      	mov	r2, r0
 80045c0:	9b01      	ldr	r3, [sp, #4]
 80045c2:	605a      	str	r2, [r3, #4]
 80045c4:	9b01      	ldr	r3, [sp, #4]
 80045c6:	4618      	mov	r0, r3
 80045c8:	b007      	add	sp, #28
 80045ca:	f85d fb04 	ldr.w	pc, [sp], #4
 80045ce:	bf00      	nop

080045d0 <mbed::FilePath::fileName()>:
 80045d0:	b082      	sub	sp, #8
 80045d2:	9001      	str	r0, [sp, #4]
 80045d4:	9b01      	ldr	r3, [sp, #4]
 80045d6:	681b      	ldr	r3, [r3, #0]
 80045d8:	4618      	mov	r0, r3
 80045da:	b002      	add	sp, #8
 80045dc:	4770      	bx	lr
 80045de:	bf00      	nop

080045e0 <mbed::FilePath::isFileSystem()>:
 80045e0:	b500      	push	{lr}
 80045e2:	b083      	sub	sp, #12
 80045e4:	9001      	str	r0, [sp, #4]
 80045e6:	9b01      	ldr	r3, [sp, #4]
 80045e8:	685b      	ldr	r3, [r3, #4]
 80045ea:	2b00      	cmp	r3, #0
 80045ec:	d101      	bne.n	80045f2 <mbed::FilePath::isFileSystem()+0x12>
 80045ee:	2300      	movs	r3, #0
 80045f0:	e00a      	b.n	8004608 <mbed::FilePath::isFileSystem()+0x28>
 80045f2:	9b01      	ldr	r3, [sp, #4]
 80045f4:	685b      	ldr	r3, [r3, #4]
 80045f6:	4618      	mov	r0, r3
 80045f8:	f7ff ff26 	bl	8004448 <mbed::FileBase::getPathType()>
 80045fc:	4603      	mov	r3, r0
 80045fe:	2b01      	cmp	r3, #1
 8004600:	bf0c      	ite	eq
 8004602:	2301      	moveq	r3, #1
 8004604:	2300      	movne	r3, #0
 8004606:	b2db      	uxtb	r3, r3
 8004608:	4618      	mov	r0, r3
 800460a:	b003      	add	sp, #12
 800460c:	f85d fb04 	ldr.w	pc, [sp], #4

08004610 <mbed::FilePath::fileSystem()>:
 8004610:	b500      	push	{lr}
 8004612:	b083      	sub	sp, #12
 8004614:	9001      	str	r0, [sp, #4]
 8004616:	9801      	ldr	r0, [sp, #4]
 8004618:	f7ff ffe2 	bl	80045e0 <mbed::FilePath::isFileSystem()>
 800461c:	4603      	mov	r3, r0
 800461e:	2b00      	cmp	r3, #0
 8004620:	d002      	beq.n	8004628 <mbed::FilePath::fileSystem()+0x18>
 8004622:	9b01      	ldr	r3, [sp, #4]
 8004624:	685b      	ldr	r3, [r3, #4]
 8004626:	e000      	b.n	800462a <mbed::FilePath::fileSystem()+0x1a>
 8004628:	2300      	movs	r3, #0
 800462a:	4618      	mov	r0, r3
 800462c:	b003      	add	sp, #12
 800462e:	f85d fb04 	ldr.w	pc, [sp], #4
 8004632:	bf00      	nop

08004634 <mbed::FilePath::isFile()>:
 8004634:	b500      	push	{lr}
 8004636:	b083      	sub	sp, #12
 8004638:	9001      	str	r0, [sp, #4]
 800463a:	9b01      	ldr	r3, [sp, #4]
 800463c:	685b      	ldr	r3, [r3, #4]
 800463e:	2b00      	cmp	r3, #0
 8004640:	d101      	bne.n	8004646 <mbed::FilePath::isFile()+0x12>
 8004642:	2300      	movs	r3, #0
 8004644:	e00a      	b.n	800465c <mbed::FilePath::isFile()+0x28>
 8004646:	9b01      	ldr	r3, [sp, #4]
 8004648:	685b      	ldr	r3, [r3, #4]
 800464a:	4618      	mov	r0, r3
 800464c:	f7ff fefc 	bl	8004448 <mbed::FileBase::getPathType()>
 8004650:	4603      	mov	r3, r0
 8004652:	2b00      	cmp	r3, #0
 8004654:	bf0c      	ite	eq
 8004656:	2301      	moveq	r3, #1
 8004658:	2300      	movne	r3, #0
 800465a:	b2db      	uxtb	r3, r3
 800465c:	4618      	mov	r0, r3
 800465e:	b003      	add	sp, #12
 8004660:	f85d fb04 	ldr.w	pc, [sp], #4

08004664 <mbed::FilePath::file()>:
 8004664:	b500      	push	{lr}
 8004666:	b083      	sub	sp, #12
 8004668:	9001      	str	r0, [sp, #4]
 800466a:	9801      	ldr	r0, [sp, #4]
 800466c:	f7ff ffe2 	bl	8004634 <mbed::FilePath::isFile()>
 8004670:	4603      	mov	r3, r0
 8004672:	2b00      	cmp	r3, #0
 8004674:	d009      	beq.n	800468a <mbed::FilePath::file()+0x26>
 8004676:	9b01      	ldr	r3, [sp, #4]
 8004678:	685b      	ldr	r3, [r3, #4]
 800467a:	2b00      	cmp	r3, #0
 800467c:	d003      	beq.n	8004686 <mbed::FilePath::file()+0x22>
 800467e:	9b01      	ldr	r3, [sp, #4]
 8004680:	685b      	ldr	r3, [r3, #4]
 8004682:	3b04      	subs	r3, #4
 8004684:	e002      	b.n	800468c <mbed::FilePath::file()+0x28>
 8004686:	2300      	movs	r3, #0
 8004688:	e000      	b.n	800468c <mbed::FilePath::file()+0x28>
 800468a:	2300      	movs	r3, #0
 800468c:	4618      	mov	r0, r3
 800468e:	b003      	add	sp, #12
 8004690:	f85d fb04 	ldr.w	pc, [sp], #4

08004694 <mbed::FilePath::exists()>:
 8004694:	b082      	sub	sp, #8
 8004696:	9001      	str	r0, [sp, #4]
 8004698:	9b01      	ldr	r3, [sp, #4]
 800469a:	685b      	ldr	r3, [r3, #4]
 800469c:	2b00      	cmp	r3, #0
 800469e:	bf14      	ite	ne
 80046a0:	2301      	movne	r3, #1
 80046a2:	2300      	moveq	r3, #0
 80046a4:	b2db      	uxtb	r3, r3
 80046a6:	4618      	mov	r0, r3
 80046a8:	b002      	add	sp, #8
 80046aa:	4770      	bx	lr

080046ac <mbed::FunctionPointer::FunctionPointer(void (*)())>:
 80046ac:	b500      	push	{lr}
 80046ae:	b083      	sub	sp, #12
 80046b0:	9001      	str	r0, [sp, #4]
 80046b2:	9100      	str	r1, [sp, #0]
 80046b4:	9b01      	ldr	r3, [sp, #4]
 80046b6:	2200      	movs	r2, #0
 80046b8:	601a      	str	r2, [r3, #0]
 80046ba:	9b01      	ldr	r3, [sp, #4]
 80046bc:	2200      	movs	r2, #0
 80046be:	605a      	str	r2, [r3, #4]
 80046c0:	9b01      	ldr	r3, [sp, #4]
 80046c2:	2200      	movs	r2, #0
 80046c4:	619a      	str	r2, [r3, #24]
 80046c6:	9801      	ldr	r0, [sp, #4]
 80046c8:	9900      	ldr	r1, [sp, #0]
 80046ca:	f000 f805 	bl	80046d8 <mbed::FunctionPointer::attach(void (*)())>
 80046ce:	9b01      	ldr	r3, [sp, #4]
 80046d0:	4618      	mov	r0, r3
 80046d2:	b003      	add	sp, #12
 80046d4:	f85d fb04 	ldr.w	pc, [sp], #4

080046d8 <mbed::FunctionPointer::attach(void (*)())>:
 80046d8:	b082      	sub	sp, #8
 80046da:	9001      	str	r0, [sp, #4]
 80046dc:	9100      	str	r1, [sp, #0]
 80046de:	9b01      	ldr	r3, [sp, #4]
 80046e0:	9a00      	ldr	r2, [sp, #0]
 80046e2:	601a      	str	r2, [r3, #0]
 80046e4:	9b01      	ldr	r3, [sp, #4]
 80046e6:	2200      	movs	r2, #0
 80046e8:	605a      	str	r2, [r3, #4]
 80046ea:	b002      	add	sp, #8
 80046ec:	4770      	bx	lr
 80046ee:	bf00      	nop

080046f0 <mbed::FunctionPointer::call()>:
 80046f0:	b500      	push	{lr}
 80046f2:	b083      	sub	sp, #12
 80046f4:	9001      	str	r0, [sp, #4]
 80046f6:	9b01      	ldr	r3, [sp, #4]
 80046f8:	681b      	ldr	r3, [r3, #0]
 80046fa:	2b00      	cmp	r3, #0
 80046fc:	d003      	beq.n	8004706 <mbed::FunctionPointer::call()+0x16>
 80046fe:	9b01      	ldr	r3, [sp, #4]
 8004700:	681b      	ldr	r3, [r3, #0]
 8004702:	4798      	blx	r3
 8004704:	e00c      	b.n	8004720 <mbed::FunctionPointer::call()+0x30>
 8004706:	9b01      	ldr	r3, [sp, #4]
 8004708:	685b      	ldr	r3, [r3, #4]
 800470a:	2b00      	cmp	r3, #0
 800470c:	d008      	beq.n	8004720 <mbed::FunctionPointer::call()+0x30>
 800470e:	9b01      	ldr	r3, [sp, #4]
 8004710:	699b      	ldr	r3, [r3, #24]
 8004712:	9a01      	ldr	r2, [sp, #4]
 8004714:	6851      	ldr	r1, [r2, #4]
 8004716:	9a01      	ldr	r2, [sp, #4]
 8004718:	3208      	adds	r2, #8
 800471a:	4608      	mov	r0, r1
 800471c:	4611      	mov	r1, r2
 800471e:	4798      	blx	r3
 8004720:	b003      	add	sp, #12
 8004722:	f85d fb04 	ldr.w	pc, [sp], #4
 8004726:	bf00      	nop

08004728 <mbed::FileHandle::~FileHandle()>:
 8004728:	b500      	push	{lr}
 800472a:	b085      	sub	sp, #20
 800472c:	9001      	str	r0, [sp, #4]
 800472e:	9b01      	ldr	r3, [sp, #4]
 8004730:	4a11      	ldr	r2, [pc, #68]	; (8004778 <mbed::FileHandle::~FileHandle()+0x50>)
 8004732:	601a      	str	r2, [r3, #0]
 8004734:	2300      	movs	r3, #0
 8004736:	9303      	str	r3, [sp, #12]
 8004738:	e00e      	b.n	8004758 <mbed::FileHandle::~FileHandle()+0x30>
 800473a:	4a10      	ldr	r2, [pc, #64]	; (800477c <mbed::FileHandle::~FileHandle()+0x54>)
 800473c:	9b03      	ldr	r3, [sp, #12]
 800473e:	f852 2023 	ldr.w	r2, [r2, r3, lsl #2]
 8004742:	9b01      	ldr	r3, [sp, #4]
 8004744:	429a      	cmp	r2, r3
 8004746:	d104      	bne.n	8004752 <mbed::FileHandle::~FileHandle()+0x2a>
 8004748:	4a0c      	ldr	r2, [pc, #48]	; (800477c <mbed::FileHandle::~FileHandle()+0x54>)
 800474a:	9b03      	ldr	r3, [sp, #12]
 800474c:	2100      	movs	r1, #0
 800474e:	f842 1023 	str.w	r1, [r2, r3, lsl #2]
 8004752:	9b03      	ldr	r3, [sp, #12]
 8004754:	3301      	adds	r3, #1
 8004756:	9303      	str	r3, [sp, #12]
 8004758:	2240      	movs	r2, #64	; 0x40
 800475a:	9b03      	ldr	r3, [sp, #12]
 800475c:	429a      	cmp	r2, r3
 800475e:	d8ec      	bhi.n	800473a <mbed::FileHandle::~FileHandle()+0x12>
 8004760:	2300      	movs	r3, #0
 8004762:	2b00      	cmp	r3, #0
 8004764:	d002      	beq.n	800476c <mbed::FileHandle::~FileHandle()+0x44>
 8004766:	9801      	ldr	r0, [sp, #4]
 8004768:	f000 fc2c 	bl	8004fc4 <operator delete(void*)>
 800476c:	9b01      	ldr	r3, [sp, #4]
 800476e:	4618      	mov	r0, r3
 8004770:	b005      	add	sp, #20
 8004772:	f85d fb04 	ldr.w	pc, [sp], #4
 8004776:	bf00      	nop
 8004778:	080077e0 	.word	0x080077e0
 800477c:	200004c0 	.word	0x200004c0

08004780 <init_serial()>:
 8004780:	b508      	push	{r3, lr}
 8004782:	4b05      	ldr	r3, [pc, #20]	; (8004798 <init_serial()+0x18>)
 8004784:	681b      	ldr	r3, [r3, #0]
 8004786:	2b00      	cmp	r3, #0
 8004788:	d000      	beq.n	800478c <init_serial()+0xc>
 800478a:	e004      	b.n	8004796 <init_serial()+0x16>
 800478c:	4803      	ldr	r0, [pc, #12]	; (800479c <init_serial()+0x1c>)
 800478e:	2102      	movs	r1, #2
 8004790:	2203      	movs	r2, #3
 8004792:	f7ff fb45 	bl	8003e20 <serial_init>
 8004796:	bd08      	pop	{r3, pc}
 8004798:	20000478 	.word	0x20000478
 800479c:	20000644 	.word	0x20000644

080047a0 <openmode_to_posix(int)>:
 80047a0:	b084      	sub	sp, #16
 80047a2:	9001      	str	r0, [sp, #4]
 80047a4:	9b01      	ldr	r3, [sp, #4]
 80047a6:	9303      	str	r3, [sp, #12]
 80047a8:	9b03      	ldr	r3, [sp, #12]
 80047aa:	4618      	mov	r0, r3
 80047ac:	b004      	add	sp, #16
 80047ae:	4770      	bx	lr

080047b0 <_open>:
 80047b0:	b510      	push	{r4, lr}
 80047b2:	b08a      	sub	sp, #40	; 0x28
 80047b4:	9001      	str	r0, [sp, #4]
 80047b6:	9100      	str	r1, [sp, #0]
 80047b8:	9801      	ldr	r0, [sp, #4]
 80047ba:	4948      	ldr	r1, [pc, #288]	; (80048dc <_open+0x12c>)
 80047bc:	f001 fdfb 	bl	80063b6 <strcmp>
 80047c0:	4603      	mov	r3, r0
 80047c2:	2b00      	cmp	r3, #0
 80047c4:	d103      	bne.n	80047ce <_open+0x1e>
 80047c6:	f7ff ffdb 	bl	8004780 <init_serial()>
 80047ca:	2300      	movs	r3, #0
 80047cc:	e083      	b.n	80048d6 <_open+0x126>
 80047ce:	9801      	ldr	r0, [sp, #4]
 80047d0:	4943      	ldr	r1, [pc, #268]	; (80048e0 <_open+0x130>)
 80047d2:	f001 fdf0 	bl	80063b6 <strcmp>
 80047d6:	4603      	mov	r3, r0
 80047d8:	2b00      	cmp	r3, #0
 80047da:	d103      	bne.n	80047e4 <_open+0x34>
 80047dc:	f7ff ffd0 	bl	8004780 <init_serial()>
 80047e0:	2301      	movs	r3, #1
 80047e2:	e078      	b.n	80048d6 <_open+0x126>
 80047e4:	9801      	ldr	r0, [sp, #4]
 80047e6:	493f      	ldr	r1, [pc, #252]	; (80048e4 <_open+0x134>)
 80047e8:	f001 fde5 	bl	80063b6 <strcmp>
 80047ec:	4603      	mov	r3, r0
 80047ee:	2b00      	cmp	r3, #0
 80047f0:	d103      	bne.n	80047fa <_open+0x4a>
 80047f2:	f7ff ffc5 	bl	8004780 <init_serial()>
 80047f6:	2302      	movs	r3, #2
 80047f8:	e06d      	b.n	80048d6 <_open+0x126>
 80047fa:	2300      	movs	r3, #0
 80047fc:	9309      	str	r3, [sp, #36]	; 0x24
 80047fe:	e009      	b.n	8004814 <_open+0x64>
 8004800:	4a39      	ldr	r2, [pc, #228]	; (80048e8 <_open+0x138>)
 8004802:	9b09      	ldr	r3, [sp, #36]	; 0x24
 8004804:	f852 3023 	ldr.w	r3, [r2, r3, lsl #2]
 8004808:	2b00      	cmp	r3, #0
 800480a:	d100      	bne.n	800480e <_open+0x5e>
 800480c:	e006      	b.n	800481c <_open+0x6c>
 800480e:	9b09      	ldr	r3, [sp, #36]	; 0x24
 8004810:	3301      	adds	r3, #1
 8004812:	9309      	str	r3, [sp, #36]	; 0x24
 8004814:	2240      	movs	r2, #64	; 0x40
 8004816:	9b09      	ldr	r3, [sp, #36]	; 0x24
 8004818:	429a      	cmp	r2, r3
 800481a:	d8f1      	bhi.n	8004800 <_open+0x50>
 800481c:	2240      	movs	r2, #64	; 0x40
 800481e:	9b09      	ldr	r3, [sp, #36]	; 0x24
 8004820:	429a      	cmp	r2, r3
 8004822:	d802      	bhi.n	800482a <_open+0x7a>
 8004824:	f04f 33ff 	mov.w	r3, #4294967295
 8004828:	e055      	b.n	80048d6 <_open+0x126>
 800482a:	9b01      	ldr	r3, [sp, #4]
 800482c:	781b      	ldrb	r3, [r3, #0]
 800482e:	2b3a      	cmp	r3, #58	; 0x3a
 8004830:	d108      	bne.n	8004844 <_open+0x94>
 8004832:	ab05      	add	r3, sp, #20
 8004834:	9801      	ldr	r0, [sp, #4]
 8004836:	492d      	ldr	r1, [pc, #180]	; (80048ec <_open+0x13c>)
 8004838:	461a      	mov	r2, r3
 800483a:	f001 fd4d 	bl	80062d8 <siscanf>
 800483e:	9b05      	ldr	r3, [sp, #20]
 8004840:	9308      	str	r3, [sp, #32]
 8004842:	e03b      	b.n	80048bc <_open+0x10c>
 8004844:	ab03      	add	r3, sp, #12
 8004846:	4618      	mov	r0, r3
 8004848:	9901      	ldr	r1, [sp, #4]
 800484a:	f7ff fe7b 	bl	8004544 <mbed::FilePath::FilePath(char const*)>
 800484e:	ab03      	add	r3, sp, #12
 8004850:	4618      	mov	r0, r3
 8004852:	f7ff ff1f 	bl	8004694 <mbed::FilePath::exists()>
 8004856:	4603      	mov	r3, r0
 8004858:	f083 0301 	eor.w	r3, r3, #1
 800485c:	b2db      	uxtb	r3, r3
 800485e:	2b00      	cmp	r3, #0
 8004860:	d002      	beq.n	8004868 <_open+0xb8>
 8004862:	f04f 33ff 	mov.w	r3, #4294967295
 8004866:	e036      	b.n	80048d6 <_open+0x126>
 8004868:	ab03      	add	r3, sp, #12
 800486a:	4618      	mov	r0, r3
 800486c:	f7ff fee2 	bl	8004634 <mbed::FilePath::isFile()>
 8004870:	4603      	mov	r3, r0
 8004872:	2b00      	cmp	r3, #0
 8004874:	d005      	beq.n	8004882 <_open+0xd2>
 8004876:	ab03      	add	r3, sp, #12
 8004878:	4618      	mov	r0, r3
 800487a:	f7ff fef3 	bl	8004664 <mbed::FilePath::file()>
 800487e:	9008      	str	r0, [sp, #32]
 8004880:	e01c      	b.n	80048bc <_open+0x10c>
 8004882:	ab03      	add	r3, sp, #12
 8004884:	4618      	mov	r0, r3
 8004886:	f7ff fec3 	bl	8004610 <mbed::FilePath::fileSystem()>
 800488a:	9007      	str	r0, [sp, #28]
 800488c:	9b07      	ldr	r3, [sp, #28]
 800488e:	2b00      	cmp	r3, #0
 8004890:	d102      	bne.n	8004898 <_open+0xe8>
 8004892:	f04f 33ff 	mov.w	r3, #4294967295
 8004896:	e01e      	b.n	80048d6 <_open+0x126>
 8004898:	9800      	ldr	r0, [sp, #0]
 800489a:	f7ff ff81 	bl	80047a0 <openmode_to_posix(int)>
 800489e:	9006      	str	r0, [sp, #24]
 80048a0:	9b07      	ldr	r3, [sp, #28]
 80048a2:	681b      	ldr	r3, [r3, #0]
 80048a4:	3308      	adds	r3, #8
 80048a6:	681c      	ldr	r4, [r3, #0]
 80048a8:	ab03      	add	r3, sp, #12
 80048aa:	4618      	mov	r0, r3
 80048ac:	f7ff fe90 	bl	80045d0 <mbed::FilePath::fileName()>
 80048b0:	4603      	mov	r3, r0
 80048b2:	9807      	ldr	r0, [sp, #28]
 80048b4:	4619      	mov	r1, r3
 80048b6:	9a06      	ldr	r2, [sp, #24]
 80048b8:	47a0      	blx	r4
 80048ba:	9008      	str	r0, [sp, #32]
 80048bc:	9b08      	ldr	r3, [sp, #32]
 80048be:	2b00      	cmp	r3, #0
 80048c0:	d102      	bne.n	80048c8 <_open+0x118>
 80048c2:	f04f 33ff 	mov.w	r3, #4294967295
 80048c6:	e006      	b.n	80048d6 <_open+0x126>
 80048c8:	4907      	ldr	r1, [pc, #28]	; (80048e8 <_open+0x138>)
 80048ca:	9b09      	ldr	r3, [sp, #36]	; 0x24
 80048cc:	9a08      	ldr	r2, [sp, #32]
 80048ce:	f841 2023 	str.w	r2, [r1, r3, lsl #2]
 80048d2:	9b09      	ldr	r3, [sp, #36]	; 0x24
 80048d4:	3303      	adds	r3, #3
 80048d6:	4618      	mov	r0, r3
 80048d8:	b00a      	add	sp, #40	; 0x28
 80048da:	bd10      	pop	{r4, pc}
 80048dc:	080077b0 	.word	0x080077b0
 80048e0:	080077b8 	.word	0x080077b8
 80048e4:	080077c0 	.word	0x080077c0
 80048e8:	200004c0 	.word	0x200004c0
 80048ec:	080077c8 	.word	0x080077c8

080048f0 <_close>:
 80048f0:	b500      	push	{lr}
 80048f2:	b085      	sub	sp, #20
 80048f4:	9001      	str	r0, [sp, #4]
 80048f6:	9b01      	ldr	r3, [sp, #4]
 80048f8:	2b02      	cmp	r3, #2
 80048fa:	dc01      	bgt.n	8004900 <_close+0x10>
 80048fc:	2300      	movs	r3, #0
 80048fe:	e018      	b.n	8004932 <_close+0x42>
 8004900:	9b01      	ldr	r3, [sp, #4]
 8004902:	3b03      	subs	r3, #3
 8004904:	4a0d      	ldr	r2, [pc, #52]	; (800493c <_close+0x4c>)
 8004906:	f852 3023 	ldr.w	r3, [r2, r3, lsl #2]
 800490a:	9303      	str	r3, [sp, #12]
 800490c:	9b01      	ldr	r3, [sp, #4]
 800490e:	3b03      	subs	r3, #3
 8004910:	4a0a      	ldr	r2, [pc, #40]	; (800493c <_close+0x4c>)
 8004912:	2100      	movs	r1, #0
 8004914:	f842 1023 	str.w	r1, [r2, r3, lsl #2]
 8004918:	9b03      	ldr	r3, [sp, #12]
 800491a:	2b00      	cmp	r3, #0
 800491c:	d102      	bne.n	8004924 <_close+0x34>
 800491e:	f04f 33ff 	mov.w	r3, #4294967295
 8004922:	e006      	b.n	8004932 <_close+0x42>
 8004924:	9b03      	ldr	r3, [sp, #12]
 8004926:	681b      	ldr	r3, [r3, #0]
 8004928:	3304      	adds	r3, #4
 800492a:	681b      	ldr	r3, [r3, #0]
 800492c:	9803      	ldr	r0, [sp, #12]
 800492e:	4798      	blx	r3
 8004930:	4603      	mov	r3, r0
 8004932:	4618      	mov	r0, r3
 8004934:	b005      	add	sp, #20
 8004936:	f85d fb04 	ldr.w	pc, [sp], #4
 800493a:	bf00      	nop
 800493c:	200004c0 	.word	0x200004c0

08004940 <_write>:
 8004940:	b500      	push	{lr}
 8004942:	b089      	sub	sp, #36	; 0x24
 8004944:	9003      	str	r0, [sp, #12]
 8004946:	9102      	str	r1, [sp, #8]
 8004948:	9201      	str	r2, [sp, #4]
 800494a:	9300      	str	r3, [sp, #0]
 800494c:	9b03      	ldr	r3, [sp, #12]
 800494e:	2b02      	cmp	r3, #2
 8004950:	dc1a      	bgt.n	8004988 <_write+0x48>
 8004952:	4b1a      	ldr	r3, [pc, #104]	; (80049bc <_write+0x7c>)
 8004954:	681b      	ldr	r3, [r3, #0]
 8004956:	2b00      	cmp	r3, #0
 8004958:	d101      	bne.n	800495e <_write+0x1e>
 800495a:	f7ff ff11 	bl	8004780 <init_serial()>
 800495e:	2300      	movs	r3, #0
 8004960:	9306      	str	r3, [sp, #24]
 8004962:	e00a      	b.n	800497a <_write+0x3a>
 8004964:	9a02      	ldr	r2, [sp, #8]
 8004966:	9b06      	ldr	r3, [sp, #24]
 8004968:	4413      	add	r3, r2
 800496a:	781b      	ldrb	r3, [r3, #0]
 800496c:	4814      	ldr	r0, [pc, #80]	; (80049c0 <_write+0x80>)
 800496e:	4619      	mov	r1, r3
 8004970:	f7ff fb3e 	bl	8003ff0 <serial_putc>
 8004974:	9b06      	ldr	r3, [sp, #24]
 8004976:	3301      	adds	r3, #1
 8004978:	9306      	str	r3, [sp, #24]
 800497a:	9a06      	ldr	r2, [sp, #24]
 800497c:	9b01      	ldr	r3, [sp, #4]
 800497e:	429a      	cmp	r2, r3
 8004980:	d3f0      	bcc.n	8004964 <_write+0x24>
 8004982:	9b01      	ldr	r3, [sp, #4]
 8004984:	9307      	str	r3, [sp, #28]
 8004986:	e013      	b.n	80049b0 <_write+0x70>
 8004988:	9b03      	ldr	r3, [sp, #12]
 800498a:	3b03      	subs	r3, #3
 800498c:	4a0d      	ldr	r2, [pc, #52]	; (80049c4 <_write+0x84>)
 800498e:	f852 3023 	ldr.w	r3, [r2, r3, lsl #2]
 8004992:	9305      	str	r3, [sp, #20]
 8004994:	9b05      	ldr	r3, [sp, #20]
 8004996:	2b00      	cmp	r3, #0
 8004998:	d102      	bne.n	80049a0 <_write+0x60>
 800499a:	f04f 33ff 	mov.w	r3, #4294967295
 800499e:	e008      	b.n	80049b2 <_write+0x72>
 80049a0:	9b05      	ldr	r3, [sp, #20]
 80049a2:	681b      	ldr	r3, [r3, #0]
 80049a4:	681b      	ldr	r3, [r3, #0]
 80049a6:	9805      	ldr	r0, [sp, #20]
 80049a8:	9902      	ldr	r1, [sp, #8]
 80049aa:	9a01      	ldr	r2, [sp, #4]
 80049ac:	4798      	blx	r3
 80049ae:	9007      	str	r0, [sp, #28]
 80049b0:	9b07      	ldr	r3, [sp, #28]
 80049b2:	4618      	mov	r0, r3
 80049b4:	b009      	add	sp, #36	; 0x24
 80049b6:	f85d fb04 	ldr.w	pc, [sp], #4
 80049ba:	bf00      	nop
 80049bc:	20000478 	.word	0x20000478
 80049c0:	20000644 	.word	0x20000644
 80049c4:	200004c0 	.word	0x200004c0

080049c8 <_read>:
 80049c8:	b500      	push	{lr}
 80049ca:	b087      	sub	sp, #28
 80049cc:	9003      	str	r0, [sp, #12]
 80049ce:	9102      	str	r1, [sp, #8]
 80049d0:	9201      	str	r2, [sp, #4]
 80049d2:	9300      	str	r3, [sp, #0]
 80049d4:	9b03      	ldr	r3, [sp, #12]
 80049d6:	2b02      	cmp	r3, #2
 80049d8:	dc0f      	bgt.n	80049fa <_read+0x32>
 80049da:	4b15      	ldr	r3, [pc, #84]	; (8004a30 <_read+0x68>)
 80049dc:	681b      	ldr	r3, [r3, #0]
 80049de:	2b00      	cmp	r3, #0
 80049e0:	d101      	bne.n	80049e6 <_read+0x1e>
 80049e2:	f7ff fecd 	bl	8004780 <init_serial()>
 80049e6:	4813      	ldr	r0, [pc, #76]	; (8004a34 <_read+0x6c>)
 80049e8:	f7ff faec 	bl	8003fc4 <serial_getc>
 80049ec:	4603      	mov	r3, r0
 80049ee:	b2da      	uxtb	r2, r3
 80049f0:	9b02      	ldr	r3, [sp, #8]
 80049f2:	701a      	strb	r2, [r3, #0]
 80049f4:	2301      	movs	r3, #1
 80049f6:	9305      	str	r3, [sp, #20]
 80049f8:	e014      	b.n	8004a24 <_read+0x5c>
 80049fa:	9b03      	ldr	r3, [sp, #12]
 80049fc:	3b03      	subs	r3, #3
 80049fe:	4a0e      	ldr	r2, [pc, #56]	; (8004a38 <_read+0x70>)
 8004a00:	f852 3023 	ldr.w	r3, [r2, r3, lsl #2]
 8004a04:	9304      	str	r3, [sp, #16]
 8004a06:	9b04      	ldr	r3, [sp, #16]
 8004a08:	2b00      	cmp	r3, #0
 8004a0a:	d102      	bne.n	8004a12 <_read+0x4a>
 8004a0c:	f04f 33ff 	mov.w	r3, #4294967295
 8004a10:	e009      	b.n	8004a26 <_read+0x5e>
 8004a12:	9b04      	ldr	r3, [sp, #16]
 8004a14:	681b      	ldr	r3, [r3, #0]
 8004a16:	3308      	adds	r3, #8
 8004a18:	681b      	ldr	r3, [r3, #0]
 8004a1a:	9804      	ldr	r0, [sp, #16]
 8004a1c:	9902      	ldr	r1, [sp, #8]
 8004a1e:	9a01      	ldr	r2, [sp, #4]
 8004a20:	4798      	blx	r3
 8004a22:	9005      	str	r0, [sp, #20]
 8004a24:	9b05      	ldr	r3, [sp, #20]
 8004a26:	4618      	mov	r0, r3
 8004a28:	b007      	add	sp, #28
 8004a2a:	f85d fb04 	ldr.w	pc, [sp], #4
 8004a2e:	bf00      	nop
 8004a30:	20000478 	.word	0x20000478
 8004a34:	20000644 	.word	0x20000644
 8004a38:	200004c0 	.word	0x200004c0

08004a3c <_isatty>:
 8004a3c:	b500      	push	{lr}
 8004a3e:	b085      	sub	sp, #20
 8004a40:	9001      	str	r0, [sp, #4]
 8004a42:	9b01      	ldr	r3, [sp, #4]
 8004a44:	2b02      	cmp	r3, #2
 8004a46:	dc01      	bgt.n	8004a4c <_isatty+0x10>
 8004a48:	2301      	movs	r3, #1
 8004a4a:	e012      	b.n	8004a72 <_isatty+0x36>
 8004a4c:	9b01      	ldr	r3, [sp, #4]
 8004a4e:	3b03      	subs	r3, #3
 8004a50:	4a0a      	ldr	r2, [pc, #40]	; (8004a7c <_isatty+0x40>)
 8004a52:	f852 3023 	ldr.w	r3, [r2, r3, lsl #2]
 8004a56:	9303      	str	r3, [sp, #12]
 8004a58:	9b03      	ldr	r3, [sp, #12]
 8004a5a:	2b00      	cmp	r3, #0
 8004a5c:	d102      	bne.n	8004a64 <_isatty+0x28>
 8004a5e:	f04f 33ff 	mov.w	r3, #4294967295
 8004a62:	e006      	b.n	8004a72 <_isatty+0x36>
 8004a64:	9b03      	ldr	r3, [sp, #12]
 8004a66:	681b      	ldr	r3, [r3, #0]
 8004a68:	330c      	adds	r3, #12
 8004a6a:	681b      	ldr	r3, [r3, #0]
 8004a6c:	9803      	ldr	r0, [sp, #12]
 8004a6e:	4798      	blx	r3
 8004a70:	4603      	mov	r3, r0
 8004a72:	4618      	mov	r0, r3
 8004a74:	b005      	add	sp, #20
 8004a76:	f85d fb04 	ldr.w	pc, [sp], #4
 8004a7a:	bf00      	nop
 8004a7c:	200004c0 	.word	0x200004c0

08004a80 <_lseek>:
 8004a80:	b500      	push	{lr}
 8004a82:	b087      	sub	sp, #28
 8004a84:	9003      	str	r0, [sp, #12]
 8004a86:	9102      	str	r1, [sp, #8]
 8004a88:	9201      	str	r2, [sp, #4]
 8004a8a:	9b03      	ldr	r3, [sp, #12]
 8004a8c:	2b02      	cmp	r3, #2
 8004a8e:	dc01      	bgt.n	8004a94 <_lseek+0x14>
 8004a90:	2300      	movs	r3, #0
 8004a92:	e014      	b.n	8004abe <_lseek+0x3e>
 8004a94:	9b03      	ldr	r3, [sp, #12]
 8004a96:	3b03      	subs	r3, #3
 8004a98:	4a0b      	ldr	r2, [pc, #44]	; (8004ac8 <_lseek+0x48>)
 8004a9a:	f852 3023 	ldr.w	r3, [r2, r3, lsl #2]
 8004a9e:	9305      	str	r3, [sp, #20]
 8004aa0:	9b05      	ldr	r3, [sp, #20]
 8004aa2:	2b00      	cmp	r3, #0
 8004aa4:	d102      	bne.n	8004aac <_lseek+0x2c>
 8004aa6:	f04f 33ff 	mov.w	r3, #4294967295
 8004aaa:	e008      	b.n	8004abe <_lseek+0x3e>
 8004aac:	9b05      	ldr	r3, [sp, #20]
 8004aae:	681b      	ldr	r3, [r3, #0]
 8004ab0:	3310      	adds	r3, #16
 8004ab2:	681b      	ldr	r3, [r3, #0]
 8004ab4:	9805      	ldr	r0, [sp, #20]
 8004ab6:	9902      	ldr	r1, [sp, #8]
 8004ab8:	9a01      	ldr	r2, [sp, #4]
 8004aba:	4798      	blx	r3
 8004abc:	4603      	mov	r3, r0
 8004abe:	4618      	mov	r0, r3
 8004ac0:	b007      	add	sp, #28
 8004ac2:	f85d fb04 	ldr.w	pc, [sp], #4
 8004ac6:	bf00      	nop
 8004ac8:	200004c0 	.word	0x200004c0

08004acc <_fstat>:
 8004acc:	b500      	push	{lr}
 8004ace:	b083      	sub	sp, #12
 8004ad0:	9001      	str	r0, [sp, #4]
 8004ad2:	9100      	str	r1, [sp, #0]
 8004ad4:	9b01      	ldr	r3, [sp, #4]
 8004ad6:	2b01      	cmp	r3, #1
 8004ad8:	d005      	beq.n	8004ae6 <_fstat+0x1a>
 8004ada:	9b01      	ldr	r3, [sp, #4]
 8004adc:	2b02      	cmp	r3, #2
 8004ade:	d002      	beq.n	8004ae6 <_fstat+0x1a>
 8004ae0:	9b01      	ldr	r3, [sp, #4]
 8004ae2:	2b00      	cmp	r3, #0
 8004ae4:	d105      	bne.n	8004af2 <_fstat+0x26>
 8004ae6:	9b00      	ldr	r3, [sp, #0]
 8004ae8:	f44f 5200 	mov.w	r2, #8192	; 0x2000
 8004aec:	605a      	str	r2, [r3, #4]
 8004aee:	2300      	movs	r3, #0
 8004af0:	e006      	b.n	8004b00 <_fstat+0x34>
 8004af2:	f000 fa85 	bl	8005000 <__errno>
 8004af6:	4602      	mov	r2, r0
 8004af8:	2309      	movs	r3, #9
 8004afa:	6013      	str	r3, [r2, #0]
 8004afc:	f04f 33ff 	mov.w	r3, #4294967295
 8004b00:	4618      	mov	r0, r3
 8004b02:	b003      	add	sp, #12
 8004b04:	f85d fb04 	ldr.w	pc, [sp], #4

08004b08 <mbed_main>:
 8004b08:	4770      	bx	lr
 8004b0a:	bf00      	nop

08004b0c <__wrap_main>:
 8004b0c:	b508      	push	{r3, lr}
 8004b0e:	f7ff f845 	bl	8003b9c <mbed_sdk_init>
 8004b12:	f7ff fff9 	bl	8004b08 <mbed_main>
 8004b16:	f7fb fc0b 	bl	8000330 <main>
 8004b1a:	4603      	mov	r3, r0
 8004b1c:	4618      	mov	r0, r3
 8004b1e:	bd08      	pop	{r3, pc}

08004b20 <_sbrk>:
 8004b20:	b410      	push	{r4}
 8004b22:	b085      	sub	sp, #20
 8004b24:	9001      	str	r0, [sp, #4]
 8004b26:	4b12      	ldr	r3, [pc, #72]	; (8004b70 <_sbrk+0x50>)
 8004b28:	681b      	ldr	r3, [r3, #0]
 8004b2a:	9303      	str	r3, [sp, #12]
 8004b2c:	4b10      	ldr	r3, [pc, #64]	; (8004b70 <_sbrk+0x50>)
 8004b2e:	681a      	ldr	r2, [r3, #0]
 8004b30:	9b01      	ldr	r3, [sp, #4]
 8004b32:	4413      	add	r3, r2
 8004b34:	9302      	str	r3, [sp, #8]
 8004b36:	f3ef 8308 	mrs	r3, MSP
 8004b3a:	461c      	mov	r4, r3
 8004b3c:	4623      	mov	r3, r4
 8004b3e:	461a      	mov	r2, r3
 8004b40:	9b02      	ldr	r3, [sp, #8]
 8004b42:	429a      	cmp	r2, r3
 8004b44:	bf94      	ite	ls
 8004b46:	2301      	movls	r3, #1
 8004b48:	2300      	movhi	r3, #0
 8004b4a:	b2db      	uxtb	r3, r3
 8004b4c:	2b00      	cmp	r3, #0
 8004b4e:	d005      	beq.n	8004b5c <_sbrk+0x3c>
 8004b50:	4b08      	ldr	r3, [pc, #32]	; (8004b74 <_sbrk+0x54>)
 8004b52:	220c      	movs	r2, #12
 8004b54:	601a      	str	r2, [r3, #0]
 8004b56:	f04f 33ff 	mov.w	r3, #4294967295
 8004b5a:	e003      	b.n	8004b64 <_sbrk+0x44>
 8004b5c:	4a04      	ldr	r2, [pc, #16]	; (8004b70 <_sbrk+0x50>)
 8004b5e:	9b02      	ldr	r3, [sp, #8]
 8004b60:	6013      	str	r3, [r2, #0]
 8004b62:	9b03      	ldr	r3, [sp, #12]
 8004b64:	4618      	mov	r0, r3
 8004b66:	b005      	add	sp, #20
 8004b68:	f85d 4b04 	ldr.w	r4, [sp], #4
 8004b6c:	4770      	bx	lr
 8004b6e:	bf00      	nop
 8004b70:	2000019c 	.word	0x2000019c
 8004b74:	20000660 	.word	0x20000660

08004b78 <_exit>:
 8004b78:	b500      	push	{lr}
 8004b7a:	b083      	sub	sp, #12
 8004b7c:	9001      	str	r0, [sp, #4]
 8004b7e:	4b09      	ldr	r3, [pc, #36]	; (8004ba4 <_exit+0x2c>)
 8004b80:	681b      	ldr	r3, [r3, #0]
 8004b82:	689b      	ldr	r3, [r3, #8]
 8004b84:	4618      	mov	r0, r3
 8004b86:	f000 fb5d 	bl	8005244 <fflush>
 8004b8a:	4b06      	ldr	r3, [pc, #24]	; (8004ba4 <_exit+0x2c>)
 8004b8c:	681b      	ldr	r3, [r3, #0]
 8004b8e:	68db      	ldr	r3, [r3, #12]
 8004b90:	4618      	mov	r0, r3
 8004b92:	f000 fb57 	bl	8005244 <fflush>
 8004b96:	9b01      	ldr	r3, [sp, #4]
 8004b98:	2b00      	cmp	r3, #0
 8004b9a:	d001      	beq.n	8004ba0 <_exit+0x28>
 8004b9c:	f7fd f9e4 	bl	8001f68 <mbed_die>
 8004ba0:	e7fe      	b.n	8004ba0 <_exit+0x28>
 8004ba2:	bf00      	nop
 8004ba4:	20000200 	.word	0x20000200

08004ba8 <mbed::mbed_set_unbuffered_stream(__sFILE*)>:
 8004ba8:	b500      	push	{lr}
 8004baa:	b083      	sub	sp, #12
 8004bac:	9001      	str	r0, [sp, #4]
 8004bae:	9801      	ldr	r0, [sp, #4]
 8004bb0:	2100      	movs	r1, #0
 8004bb2:	f001 fadd 	bl	8006170 <setbuf>
 8004bb6:	b003      	add	sp, #12
 8004bb8:	f85d fb04 	ldr.w	pc, [sp], #4

08004bbc <mbed::Serial::Serial(PinName, PinName, char const*)>:
 8004bbc:	b500      	push	{lr}
 8004bbe:	b085      	sub	sp, #20
 8004bc0:	9003      	str	r0, [sp, #12]
 8004bc2:	9301      	str	r3, [sp, #4]
 8004bc4:	460b      	mov	r3, r1
 8004bc6:	f88d 300b 	strb.w	r3, [sp, #11]
 8004bca:	4613      	mov	r3, r2
 8004bcc:	f88d 300a 	strb.w	r3, [sp, #10]
 8004bd0:	9903      	ldr	r1, [sp, #12]
 8004bd2:	f99d 200b 	ldrsb.w	r2, [sp, #11]
 8004bd6:	f99d 300a 	ldrsb.w	r3, [sp, #10]
 8004bda:	4608      	mov	r0, r1
 8004bdc:	4611      	mov	r1, r2
 8004bde:	461a      	mov	r2, r3
 8004be0:	f000 f83c 	bl	8004c5c <mbed::SerialBase::SerialBase(PinName, PinName)>
 8004be4:	9b03      	ldr	r3, [sp, #12]
 8004be6:	335c      	adds	r3, #92	; 0x5c
 8004be8:	4618      	mov	r0, r3
 8004bea:	9901      	ldr	r1, [sp, #4]
 8004bec:	f000 f8ce 	bl	8004d8c <mbed::Stream::Stream(char const*)>
 8004bf0:	9b03      	ldr	r3, [sp, #12]
 8004bf2:	4a06      	ldr	r2, [pc, #24]	; (8004c0c <mbed::Serial::Serial(PinName, PinName, char const*)+0x50>)
 8004bf4:	601a      	str	r2, [r3, #0]
 8004bf6:	9b03      	ldr	r3, [sp, #12]
 8004bf8:	4a05      	ldr	r2, [pc, #20]	; (8004c10 <mbed::Serial::Serial(PinName, PinName, char const*)+0x54>)
 8004bfa:	65da      	str	r2, [r3, #92]	; 0x5c
 8004bfc:	9b03      	ldr	r3, [sp, #12]
 8004bfe:	4a05      	ldr	r2, [pc, #20]	; (8004c14 <mbed::Serial::Serial(PinName, PinName, char const*)+0x58>)
 8004c00:	661a      	str	r2, [r3, #96]	; 0x60
 8004c02:	9b03      	ldr	r3, [sp, #12]
 8004c04:	4618      	mov	r0, r3
 8004c06:	b005      	add	sp, #20
 8004c08:	f85d fb04 	ldr.w	pc, [sp], #4
 8004c0c:	08007810 	.word	0x08007810
 8004c10:	08007828 	.word	0x08007828
 8004c14:	0800785c 	.word	0x0800785c

08004c18 <mbed::Serial::_getc()>:
 8004c18:	b500      	push	{lr}
 8004c1a:	b083      	sub	sp, #12
 8004c1c:	9001      	str	r0, [sp, #4]
 8004c1e:	9b01      	ldr	r3, [sp, #4]
 8004c20:	4618      	mov	r0, r3
 8004c22:	f000 f895 	bl	8004d50 <mbed::SerialBase::_base_getc()>
 8004c26:	4603      	mov	r3, r0
 8004c28:	4618      	mov	r0, r3
 8004c2a:	b003      	add	sp, #12
 8004c2c:	f85d fb04 	ldr.w	pc, [sp], #4

08004c30 <non-virtual thunk to mbed::Serial::_getc()>:
 8004c30:	f1a0 005c 	sub.w	r0, r0, #92	; 0x5c
 8004c34:	f7ff bff0 	b.w	8004c18 <mbed::Serial::_getc()>

08004c38 <mbed::Serial::_putc(int)>:
 8004c38:	b500      	push	{lr}
 8004c3a:	b083      	sub	sp, #12
 8004c3c:	9001      	str	r0, [sp, #4]
 8004c3e:	9100      	str	r1, [sp, #0]
 8004c40:	9b01      	ldr	r3, [sp, #4]
 8004c42:	4618      	mov	r0, r3
 8004c44:	9900      	ldr	r1, [sp, #0]
 8004c46:	f000 f891 	bl	8004d6c <mbed::SerialBase::_base_putc(int)>
 8004c4a:	4603      	mov	r3, r0
 8004c4c:	4618      	mov	r0, r3
 8004c4e:	b003      	add	sp, #12
 8004c50:	f85d fb04 	ldr.w	pc, [sp], #4

08004c54 <non-virtual thunk to mbed::Serial::_putc(int)>:
 8004c54:	f1a0 005c 	sub.w	r0, r0, #92	; 0x5c
 8004c58:	f7ff bfee 	b.w	8004c38 <mbed::Serial::_putc(int)>

08004c5c <mbed::SerialBase::SerialBase(PinName, PinName)>:
 8004c5c:	b530      	push	{r4, r5, lr}
 8004c5e:	b083      	sub	sp, #12
 8004c60:	9001      	str	r0, [sp, #4]
 8004c62:	460b      	mov	r3, r1
 8004c64:	f88d 3003 	strb.w	r3, [sp, #3]
 8004c68:	4613      	mov	r3, r2
 8004c6a:	f88d 3002 	strb.w	r3, [sp, #2]
 8004c6e:	9b01      	ldr	r3, [sp, #4]
 8004c70:	4a21      	ldr	r2, [pc, #132]	; (8004cf8 <mbed::SerialBase::SerialBase(PinName, PinName)+0x9c>)
 8004c72:	601a      	str	r2, [r3, #0]
 8004c74:	9b01      	ldr	r3, [sp, #4]
 8004c76:	2200      	movs	r2, #0
 8004c78:	605a      	str	r2, [r3, #4]
 8004c7a:	9b01      	ldr	r3, [sp, #4]
 8004c7c:	2200      	movs	r2, #0
 8004c7e:	609a      	str	r2, [r3, #8]
 8004c80:	9b01      	ldr	r3, [sp, #4]
 8004c82:	2200      	movs	r2, #0
 8004c84:	60da      	str	r2, [r3, #12]
 8004c86:	9b01      	ldr	r3, [sp, #4]
 8004c88:	2200      	movs	r2, #0
 8004c8a:	611a      	str	r2, [r3, #16]
 8004c8c:	9b01      	ldr	r3, [sp, #4]
 8004c8e:	2200      	movs	r2, #0
 8004c90:	615a      	str	r2, [r3, #20]
 8004c92:	9b01      	ldr	r3, [sp, #4]
 8004c94:	2200      	movs	r2, #0
 8004c96:	619a      	str	r2, [r3, #24]
 8004c98:	9b01      	ldr	r3, [sp, #4]
 8004c9a:	2200      	movs	r2, #0
 8004c9c:	771a      	strb	r2, [r3, #28]
 8004c9e:	9b01      	ldr	r3, [sp, #4]
 8004ca0:	2200      	movs	r2, #0
 8004ca2:	775a      	strb	r2, [r3, #29]
 8004ca4:	9b01      	ldr	r3, [sp, #4]
 8004ca6:	3320      	adds	r3, #32
 8004ca8:	2401      	movs	r4, #1
 8004caa:	461d      	mov	r5, r3
 8004cac:	e005      	b.n	8004cba <mbed::SerialBase::SerialBase(PinName, PinName)+0x5e>
 8004cae:	4628      	mov	r0, r5
 8004cb0:	2100      	movs	r1, #0
 8004cb2:	f7ff fcfb 	bl	80046ac <mbed::FunctionPointer::FunctionPointer(void (*)())>
 8004cb6:	351c      	adds	r5, #28
 8004cb8:	3c01      	subs	r4, #1
 8004cba:	f1b4 3fff 	cmp.w	r4, #4294967295
 8004cbe:	d1f6      	bne.n	8004cae <mbed::SerialBase::SerialBase(PinName, PinName)+0x52>
 8004cc0:	9b01      	ldr	r3, [sp, #4]
 8004cc2:	f44f 5216 	mov.w	r2, #9600	; 0x2580
 8004cc6:	659a      	str	r2, [r3, #88]	; 0x58
 8004cc8:	9b01      	ldr	r3, [sp, #4]
 8004cca:	1d19      	adds	r1, r3, #4
 8004ccc:	f99d 2003 	ldrsb.w	r2, [sp, #3]
 8004cd0:	f99d 3002 	ldrsb.w	r3, [sp, #2]
 8004cd4:	4608      	mov	r0, r1
 8004cd6:	4611      	mov	r1, r2
 8004cd8:	461a      	mov	r2, r3
 8004cda:	f7ff f8a1 	bl	8003e20 <serial_init>
 8004cde:	9b01      	ldr	r3, [sp, #4]
 8004ce0:	1d1a      	adds	r2, r3, #4
 8004ce2:	9b01      	ldr	r3, [sp, #4]
 8004ce4:	4610      	mov	r0, r2
 8004ce6:	4905      	ldr	r1, [pc, #20]	; (8004cfc <mbed::SerialBase::SerialBase(PinName, PinName)+0xa0>)
 8004ce8:	461a      	mov	r2, r3
 8004cea:	f7ff f957 	bl	8003f9c <serial_irq_handler>
 8004cee:	9b01      	ldr	r3, [sp, #4]
 8004cf0:	4618      	mov	r0, r3
 8004cf2:	b003      	add	sp, #12
 8004cf4:	bd30      	pop	{r4, r5, pc}
 8004cf6:	bf00      	nop
 8004cf8:	08007088 	.word	0x08007088
 8004cfc:	08004d21 	.word	0x08004d21

08004d00 <mbed::SerialBase::baud(int)>:
 8004d00:	b500      	push	{lr}
 8004d02:	b083      	sub	sp, #12
 8004d04:	9001      	str	r0, [sp, #4]
 8004d06:	9100      	str	r1, [sp, #0]
 8004d08:	9b01      	ldr	r3, [sp, #4]
 8004d0a:	3304      	adds	r3, #4
 8004d0c:	4618      	mov	r0, r3
 8004d0e:	9900      	ldr	r1, [sp, #0]
 8004d10:	f7ff f936 	bl	8003f80 <serial_baud>
 8004d14:	9b01      	ldr	r3, [sp, #4]
 8004d16:	9a00      	ldr	r2, [sp, #0]
 8004d18:	659a      	str	r2, [r3, #88]	; 0x58
 8004d1a:	b003      	add	sp, #12
 8004d1c:	f85d fb04 	ldr.w	pc, [sp], #4

08004d20 <mbed::SerialBase::_irq_handler(unsigned long, SerialIrq)>:
 8004d20:	b500      	push	{lr}
 8004d22:	b085      	sub	sp, #20
 8004d24:	9001      	str	r0, [sp, #4]
 8004d26:	460b      	mov	r3, r1
 8004d28:	f88d 3003 	strb.w	r3, [sp, #3]
 8004d2c:	9b01      	ldr	r3, [sp, #4]
 8004d2e:	9303      	str	r3, [sp, #12]
 8004d30:	f89d 2003 	ldrb.w	r2, [sp, #3]
 8004d34:	4613      	mov	r3, r2
 8004d36:	00db      	lsls	r3, r3, #3
 8004d38:	1a9b      	subs	r3, r3, r2
 8004d3a:	009b      	lsls	r3, r3, #2
 8004d3c:	3320      	adds	r3, #32
 8004d3e:	9a03      	ldr	r2, [sp, #12]
 8004d40:	4413      	add	r3, r2
 8004d42:	4618      	mov	r0, r3
 8004d44:	f7ff fcd4 	bl	80046f0 <mbed::FunctionPointer::call()>
 8004d48:	b005      	add	sp, #20
 8004d4a:	f85d fb04 	ldr.w	pc, [sp], #4
 8004d4e:	bf00      	nop

08004d50 <mbed::SerialBase::_base_getc()>:
 8004d50:	b500      	push	{lr}
 8004d52:	b083      	sub	sp, #12
 8004d54:	9001      	str	r0, [sp, #4]
 8004d56:	9b01      	ldr	r3, [sp, #4]
 8004d58:	3304      	adds	r3, #4
 8004d5a:	4618      	mov	r0, r3
 8004d5c:	f7ff f932 	bl	8003fc4 <serial_getc>
 8004d60:	4603      	mov	r3, r0
 8004d62:	4618      	mov	r0, r3
 8004d64:	b003      	add	sp, #12
 8004d66:	f85d fb04 	ldr.w	pc, [sp], #4
 8004d6a:	bf00      	nop

08004d6c <mbed::SerialBase::_base_putc(int)>:
 8004d6c:	b500      	push	{lr}
 8004d6e:	b083      	sub	sp, #12
 8004d70:	9001      	str	r0, [sp, #4]
 8004d72:	9100      	str	r1, [sp, #0]
 8004d74:	9b01      	ldr	r3, [sp, #4]
 8004d76:	3304      	adds	r3, #4
 8004d78:	4618      	mov	r0, r3
 8004d7a:	9900      	ldr	r1, [sp, #0]
 8004d7c:	f7ff f938 	bl	8003ff0 <serial_putc>
 8004d80:	9b00      	ldr	r3, [sp, #0]
 8004d82:	4618      	mov	r0, r3
 8004d84:	b003      	add	sp, #12
 8004d86:	f85d fb04 	ldr.w	pc, [sp], #4
 8004d8a:	bf00      	nop

08004d8c <mbed::Stream::Stream(char const*)>:
 8004d8c:	b500      	push	{lr}
 8004d8e:	b087      	sub	sp, #28
 8004d90:	9001      	str	r0, [sp, #4]
 8004d92:	9100      	str	r1, [sp, #0]
 8004d94:	9b01      	ldr	r3, [sp, #4]
 8004d96:	4618      	mov	r0, r3
 8004d98:	9900      	ldr	r1, [sp, #0]
 8004d9a:	f7ff fb93 	bl	80044c4 <mbed::FileLike::FileLike(char const*)>
 8004d9e:	9b01      	ldr	r3, [sp, #4]
 8004da0:	4a0f      	ldr	r2, [pc, #60]	; (8004de0 <mbed::Stream::Stream(char const*)+0x54>)
 8004da2:	601a      	str	r2, [r3, #0]
 8004da4:	9b01      	ldr	r3, [sp, #4]
 8004da6:	4a0f      	ldr	r2, [pc, #60]	; (8004de4 <mbed::Stream::Stream(char const*)+0x58>)
 8004da8:	605a      	str	r2, [r3, #4]
 8004daa:	9b01      	ldr	r3, [sp, #4]
 8004dac:	2200      	movs	r2, #0
 8004dae:	615a      	str	r2, [r3, #20]
 8004db0:	ab03      	add	r3, sp, #12
 8004db2:	4618      	mov	r0, r3
 8004db4:	490c      	ldr	r1, [pc, #48]	; (8004de8 <mbed::Stream::Stream(char const*)+0x5c>)
 8004db6:	9a01      	ldr	r2, [sp, #4]
 8004db8:	f001 fa6a 	bl	8006290 <siprintf>
 8004dbc:	ab03      	add	r3, sp, #12
 8004dbe:	4618      	mov	r0, r3
 8004dc0:	490a      	ldr	r1, [pc, #40]	; (8004dec <mbed::Stream::Stream(char const*)+0x60>)
 8004dc2:	f000 fb3d 	bl	8005440 <fopen>
 8004dc6:	4602      	mov	r2, r0
 8004dc8:	9b01      	ldr	r3, [sp, #4]
 8004dca:	615a      	str	r2, [r3, #20]
 8004dcc:	9b01      	ldr	r3, [sp, #4]
 8004dce:	695b      	ldr	r3, [r3, #20]
 8004dd0:	4618      	mov	r0, r3
 8004dd2:	f7ff fee9 	bl	8004ba8 <mbed::mbed_set_unbuffered_stream(__sFILE*)>
 8004dd6:	9b01      	ldr	r3, [sp, #4]
 8004dd8:	4618      	mov	r0, r3
 8004dda:	b007      	add	sp, #28
 8004ddc:	f85d fb04 	ldr.w	pc, [sp], #4
 8004de0:	08007878 	.word	0x08007878
 8004de4:	080078ac 	.word	0x080078ac
 8004de8:	08007868 	.word	0x08007868
 8004dec:	0800786c 	.word	0x0800786c

08004df0 <mbed::Stream::~Stream()>:
 8004df0:	b500      	push	{lr}
 8004df2:	b083      	sub	sp, #12
 8004df4:	9001      	str	r0, [sp, #4]
 8004df6:	9b01      	ldr	r3, [sp, #4]
 8004df8:	4a0c      	ldr	r2, [pc, #48]	; (8004e2c <mbed::Stream::~Stream()+0x3c>)
 8004dfa:	601a      	str	r2, [r3, #0]
 8004dfc:	9b01      	ldr	r3, [sp, #4]
 8004dfe:	4a0c      	ldr	r2, [pc, #48]	; (8004e30 <mbed::Stream::~Stream()+0x40>)
 8004e00:	605a      	str	r2, [r3, #4]
 8004e02:	9b01      	ldr	r3, [sp, #4]
 8004e04:	695b      	ldr	r3, [r3, #20]
 8004e06:	4618      	mov	r0, r3
 8004e08:	f000 f966 	bl	80050d8 <fclose>
 8004e0c:	9b01      	ldr	r3, [sp, #4]
 8004e0e:	4618      	mov	r0, r3
 8004e10:	f7ff fb76 	bl	8004500 <mbed::FileLike::~FileLike()>
 8004e14:	2300      	movs	r3, #0
 8004e16:	2b00      	cmp	r3, #0
 8004e18:	d002      	beq.n	8004e20 <mbed::Stream::~Stream()+0x30>
 8004e1a:	9801      	ldr	r0, [sp, #4]
 8004e1c:	f000 f8d2 	bl	8004fc4 <operator delete(void*)>
 8004e20:	9b01      	ldr	r3, [sp, #4]
 8004e22:	4618      	mov	r0, r3
 8004e24:	b003      	add	sp, #12
 8004e26:	f85d fb04 	ldr.w	pc, [sp], #4
 8004e2a:	bf00      	nop
 8004e2c:	08007878 	.word	0x08007878
 8004e30:	080078ac 	.word	0x080078ac

08004e34 <mbed::Stream::close()>:
 8004e34:	b082      	sub	sp, #8
 8004e36:	9001      	str	r0, [sp, #4]
 8004e38:	2300      	movs	r3, #0
 8004e3a:	4618      	mov	r0, r3
 8004e3c:	b002      	add	sp, #8
 8004e3e:	4770      	bx	lr

08004e40 <mbed::Stream::write(void const*, unsigned int)>:
 8004e40:	b500      	push	{lr}
 8004e42:	b087      	sub	sp, #28
 8004e44:	9003      	str	r0, [sp, #12]
 8004e46:	9102      	str	r1, [sp, #8]
 8004e48:	9201      	str	r2, [sp, #4]
 8004e4a:	9b02      	ldr	r3, [sp, #8]
 8004e4c:	9305      	str	r3, [sp, #20]
 8004e4e:	9a05      	ldr	r2, [sp, #20]
 8004e50:	9b01      	ldr	r3, [sp, #4]
 8004e52:	4413      	add	r3, r2
 8004e54:	9304      	str	r3, [sp, #16]
 8004e56:	e014      	b.n	8004e82 <mbed::Stream::write(void const*, unsigned int)+0x42>
 8004e58:	9b03      	ldr	r3, [sp, #12]
 8004e5a:	681b      	ldr	r3, [r3, #0]
 8004e5c:	3324      	adds	r3, #36	; 0x24
 8004e5e:	681a      	ldr	r2, [r3, #0]
 8004e60:	9b05      	ldr	r3, [sp, #20]
 8004e62:	1c59      	adds	r1, r3, #1
 8004e64:	9105      	str	r1, [sp, #20]
 8004e66:	781b      	ldrb	r3, [r3, #0]
 8004e68:	9803      	ldr	r0, [sp, #12]
 8004e6a:	4619      	mov	r1, r3
 8004e6c:	4790      	blx	r2
 8004e6e:	4603      	mov	r3, r0
 8004e70:	f1b3 3fff 	cmp.w	r3, #4294967295
 8004e74:	bf0c      	ite	eq
 8004e76:	2301      	moveq	r3, #1
 8004e78:	2300      	movne	r3, #0
 8004e7a:	b2db      	uxtb	r3, r3
 8004e7c:	2b00      	cmp	r3, #0
 8004e7e:	d000      	beq.n	8004e82 <mbed::Stream::write(void const*, unsigned int)+0x42>
 8004e80:	e003      	b.n	8004e8a <mbed::Stream::write(void const*, unsigned int)+0x4a>
 8004e82:	9a05      	ldr	r2, [sp, #20]
 8004e84:	9b04      	ldr	r3, [sp, #16]
 8004e86:	429a      	cmp	r2, r3
 8004e88:	d1e6      	bne.n	8004e58 <mbed::Stream::write(void const*, unsigned int)+0x18>
 8004e8a:	9a05      	ldr	r2, [sp, #20]
 8004e8c:	9b02      	ldr	r3, [sp, #8]
 8004e8e:	1ad3      	subs	r3, r2, r3
 8004e90:	4618      	mov	r0, r3
 8004e92:	b007      	add	sp, #28
 8004e94:	f85d fb04 	ldr.w	pc, [sp], #4

08004e98 <mbed::Stream::read(void*, unsigned int)>:
 8004e98:	b500      	push	{lr}
 8004e9a:	b089      	sub	sp, #36	; 0x24
 8004e9c:	9003      	str	r0, [sp, #12]
 8004e9e:	9102      	str	r1, [sp, #8]
 8004ea0:	9201      	str	r2, [sp, #4]
 8004ea2:	9b02      	ldr	r3, [sp, #8]
 8004ea4:	9307      	str	r3, [sp, #28]
 8004ea6:	9a07      	ldr	r2, [sp, #28]
 8004ea8:	9b01      	ldr	r3, [sp, #4]
 8004eaa:	4413      	add	r3, r2
 8004eac:	9306      	str	r3, [sp, #24]
 8004eae:	e011      	b.n	8004ed4 <mbed::Stream::read(void*, unsigned int)+0x3c>
 8004eb0:	9b03      	ldr	r3, [sp, #12]
 8004eb2:	681b      	ldr	r3, [r3, #0]
 8004eb4:	3328      	adds	r3, #40	; 0x28
 8004eb6:	681b      	ldr	r3, [r3, #0]
 8004eb8:	9803      	ldr	r0, [sp, #12]
 8004eba:	4798      	blx	r3
 8004ebc:	9005      	str	r0, [sp, #20]
 8004ebe:	9b05      	ldr	r3, [sp, #20]
 8004ec0:	f1b3 3fff 	cmp.w	r3, #4294967295
 8004ec4:	d100      	bne.n	8004ec8 <mbed::Stream::read(void*, unsigned int)+0x30>
 8004ec6:	e009      	b.n	8004edc <mbed::Stream::read(void*, unsigned int)+0x44>
 8004ec8:	9b07      	ldr	r3, [sp, #28]
 8004eca:	1c5a      	adds	r2, r3, #1
 8004ecc:	9207      	str	r2, [sp, #28]
 8004ece:	9a05      	ldr	r2, [sp, #20]
 8004ed0:	b2d2      	uxtb	r2, r2
 8004ed2:	701a      	strb	r2, [r3, #0]
 8004ed4:	9a07      	ldr	r2, [sp, #28]
 8004ed6:	9b06      	ldr	r3, [sp, #24]
 8004ed8:	429a      	cmp	r2, r3
 8004eda:	d1e9      	bne.n	8004eb0 <mbed::Stream::read(void*, unsigned int)+0x18>
 8004edc:	9a07      	ldr	r2, [sp, #28]
 8004ede:	9b02      	ldr	r3, [sp, #8]
 8004ee0:	1ad3      	subs	r3, r2, r3
 8004ee2:	4618      	mov	r0, r3
 8004ee4:	b009      	add	sp, #36	; 0x24
 8004ee6:	f85d fb04 	ldr.w	pc, [sp], #4
 8004eea:	bf00      	nop

08004eec <mbed::Stream::lseek(long, int)>:
 8004eec:	b084      	sub	sp, #16
 8004eee:	9003      	str	r0, [sp, #12]
 8004ef0:	9102      	str	r1, [sp, #8]
 8004ef2:	9201      	str	r2, [sp, #4]
 8004ef4:	2300      	movs	r3, #0
 8004ef6:	4618      	mov	r0, r3
 8004ef8:	b004      	add	sp, #16
 8004efa:	4770      	bx	lr

08004efc <mbed::Stream::isatty()>:
 8004efc:	b082      	sub	sp, #8
 8004efe:	9001      	str	r0, [sp, #4]
 8004f00:	2300      	movs	r3, #0
 8004f02:	4618      	mov	r0, r3
 8004f04:	b002      	add	sp, #8
 8004f06:	4770      	bx	lr

08004f08 <mbed::Stream::fsync()>:
 8004f08:	b082      	sub	sp, #8
 8004f0a:	9001      	str	r0, [sp, #4]
 8004f0c:	2300      	movs	r3, #0
 8004f0e:	4618      	mov	r0, r3
 8004f10:	b002      	add	sp, #8
 8004f12:	4770      	bx	lr

08004f14 <mbed::Stream::flen()>:
 8004f14:	b082      	sub	sp, #8
 8004f16:	9001      	str	r0, [sp, #4]
 8004f18:	2300      	movs	r3, #0
 8004f1a:	4618      	mov	r0, r3
 8004f1c:	b002      	add	sp, #8
 8004f1e:	4770      	bx	lr

08004f20 <mbed::Stream::printf(char const*, ...)>:
 8004f20:	b40e      	push	{r1, r2, r3}
 8004f22:	b500      	push	{lr}
 8004f24:	b084      	sub	sp, #16
 8004f26:	9001      	str	r0, [sp, #4]
 8004f28:	ab06      	add	r3, sp, #24
 8004f2a:	9302      	str	r3, [sp, #8]
 8004f2c:	9b01      	ldr	r3, [sp, #4]
 8004f2e:	695b      	ldr	r3, [r3, #20]
 8004f30:	4618      	mov	r0, r3
 8004f32:	f000 f987 	bl	8005244 <fflush>
 8004f36:	9b01      	ldr	r3, [sp, #4]
 8004f38:	695b      	ldr	r3, [r3, #20]
 8004f3a:	4618      	mov	r0, r3
 8004f3c:	9905      	ldr	r1, [sp, #20]
 8004f3e:	9a02      	ldr	r2, [sp, #8]
 8004f40:	f000 fdd2 	bl	8005ae8 <vfiprintf>
 8004f44:	9003      	str	r0, [sp, #12]
 8004f46:	9b03      	ldr	r3, [sp, #12]
 8004f48:	4618      	mov	r0, r3
 8004f4a:	b004      	add	sp, #16
 8004f4c:	f85d eb04 	ldr.w	lr, [sp], #4
 8004f50:	b003      	add	sp, #12
 8004f52:	4770      	bx	lr

08004f54 <Reset_Handler>:
 8004f54:	f8df d030 	ldr.w	sp, [pc, #48]	; 8004f88 <LoopFillZerobss+0x10>
 8004f58:	2100      	movs	r1, #0
 8004f5a:	e003      	b.n	8004f64 <LoopCopyDataInit>

08004f5c <CopyDataInit>:
 8004f5c:	4b0b      	ldr	r3, [pc, #44]	; (8004f8c <LoopFillZerobss+0x14>)
 8004f5e:	585b      	ldr	r3, [r3, r1]
 8004f60:	5043      	str	r3, [r0, r1]
 8004f62:	3104      	adds	r1, #4

08004f64 <LoopCopyDataInit>:
 8004f64:	480a      	ldr	r0, [pc, #40]	; (8004f90 <LoopFillZerobss+0x18>)
 8004f66:	4b0b      	ldr	r3, [pc, #44]	; (8004f94 <LoopFillZerobss+0x1c>)
 8004f68:	1842      	adds	r2, r0, r1
 8004f6a:	429a      	cmp	r2, r3
 8004f6c:	d3f6      	bcc.n	8004f5c <CopyDataInit>
 8004f6e:	4a0a      	ldr	r2, [pc, #40]	; (8004f98 <LoopFillZerobss+0x20>)
 8004f70:	e002      	b.n	8004f78 <LoopFillZerobss>

08004f72 <FillZerobss>:
 8004f72:	2300      	movs	r3, #0
 8004f74:	f842 3b04 	str.w	r3, [r2], #4

08004f78 <LoopFillZerobss>:
 8004f78:	4b08      	ldr	r3, [pc, #32]	; (8004f9c <LoopFillZerobss+0x24>)
 8004f7a:	429a      	cmp	r2, r3
 8004f7c:	d3f9      	bcc.n	8004f72 <FillZerobss>
 8004f7e:	f7fe fc03 	bl	8003788 <SystemInit>
 8004f82:	f7fc ff81 	bl	8001e88 <_start>
 8004f86:	4770      	bx	lr
 8004f88:	20018000 	.word	0x20018000
 8004f8c:	08007aa8 	.word	0x08007aa8
 8004f90:	20000194 	.word	0x20000194
 8004f94:	20000218 	.word	0x20000218
 8004f98:	20000218 	.word	0x20000218
 8004f9c:	20000664 	.word	0x20000664

08004fa0 <ADC_IRQHandler>:
 8004fa0:	e7fe      	b.n	8004fa0 <ADC_IRQHandler>

08004fa2 <operator new(unsigned int)>:
 8004fa2:	b510      	push	{r4, lr}
 8004fa4:	2800      	cmp	r0, #0
 8004fa6:	bf14      	ite	ne
 8004fa8:	4604      	movne	r4, r0
 8004faa:	2401      	moveq	r4, #1
 8004fac:	4620      	mov	r0, r4
 8004fae:	f7fc ff9f 	bl	8001ef0 <__wrap_malloc>
 8004fb2:	b930      	cbnz	r0, 8004fc2 <operator new(unsigned int)+0x20>
 8004fb4:	f000 f808 	bl	8004fc8 <std::get_new_handler()>
 8004fb8:	b908      	cbnz	r0, 8004fbe <operator new(unsigned int)+0x1c>
 8004fba:	f7fc ffb3 	bl	8001f24 <abort>
 8004fbe:	4780      	blx	r0
 8004fc0:	e7f4      	b.n	8004fac <operator new(unsigned int)+0xa>
 8004fc2:	bd10      	pop	{r4, pc}

08004fc4 <operator delete(void*)>:
 8004fc4:	f7fc bfa2 	b.w	8001f0c <__wrap_free>

08004fc8 <std::get_new_handler()>:
 8004fc8:	4b02      	ldr	r3, [pc, #8]	; (8004fd4 <std::get_new_handler()+0xc>)
 8004fca:	6818      	ldr	r0, [r3, #0]
 8004fcc:	f3bf 8f5f 	dmb	sy
 8004fd0:	4770      	bx	lr
 8004fd2:	bf00      	nop
 8004fd4:	200005c0 	.word	0x200005c0

08004fd8 <__aeabi_atexit>:
 8004fd8:	4603      	mov	r3, r0
 8004fda:	4608      	mov	r0, r1
 8004fdc:	4619      	mov	r1, r3
 8004fde:	f000 b801 	b.w	8004fe4 <__cxa_atexit>
	...

08004fe4 <__cxa_atexit>:
 8004fe4:	b538      	push	{r3, r4, r5, lr}
 8004fe6:	4605      	mov	r5, r0
 8004fe8:	4804      	ldr	r0, [pc, #16]	; (8004ffc <__cxa_atexit+0x18>)
 8004fea:	460c      	mov	r4, r1
 8004fec:	4613      	mov	r3, r2
 8004fee:	b120      	cbz	r0, 8004ffa <__cxa_atexit+0x16>
 8004ff0:	2002      	movs	r0, #2
 8004ff2:	4629      	mov	r1, r5
 8004ff4:	4622      	mov	r2, r4
 8004ff6:	f3af 8000 	nop.w
 8004ffa:	bd38      	pop	{r3, r4, r5, pc}
 8004ffc:	00000000 	.word	0x00000000

08005000 <__errno>:
 8005000:	4b01      	ldr	r3, [pc, #4]	; (8005008 <__errno+0x8>)
 8005002:	6818      	ldr	r0, [r3, #0]
 8005004:	4770      	bx	lr
 8005006:	bf00      	nop
 8005008:	20000200 	.word	0x20000200

0800500c <exit>:
 800500c:	b508      	push	{r3, lr}
 800500e:	4b07      	ldr	r3, [pc, #28]	; (800502c <exit+0x20>)
 8005010:	4604      	mov	r4, r0
 8005012:	b113      	cbz	r3, 800501a <exit+0xe>
 8005014:	2100      	movs	r1, #0
 8005016:	f3af 8000 	nop.w
 800501a:	4b05      	ldr	r3, [pc, #20]	; (8005030 <exit+0x24>)
 800501c:	6818      	ldr	r0, [r3, #0]
 800501e:	6a83      	ldr	r3, [r0, #40]	; 0x28
 8005020:	b103      	cbz	r3, 8005024 <exit+0x18>
 8005022:	4798      	blx	r3
 8005024:	4620      	mov	r0, r4
 8005026:	f7ff fda7 	bl	8004b78 <_exit>
 800502a:	bf00      	nop
 800502c:	00000000 	.word	0x00000000
 8005030:	0800791c 	.word	0x0800791c

08005034 <_fclose_r>:
 8005034:	b570      	push	{r4, r5, r6, lr}
 8005036:	4605      	mov	r5, r0
 8005038:	460c      	mov	r4, r1
 800503a:	b909      	cbnz	r1, 8005040 <_fclose_r+0xc>
 800503c:	2000      	movs	r0, #0
 800503e:	bd70      	pop	{r4, r5, r6, pc}
 8005040:	b118      	cbz	r0, 800504a <_fclose_r+0x16>
 8005042:	6983      	ldr	r3, [r0, #24]
 8005044:	b90b      	cbnz	r3, 800504a <_fclose_r+0x16>
 8005046:	f000 f94f 	bl	80052e8 <__sinit>
 800504a:	4b20      	ldr	r3, [pc, #128]	; (80050cc <_fclose_r+0x98>)
 800504c:	429c      	cmp	r4, r3
 800504e:	d101      	bne.n	8005054 <_fclose_r+0x20>
 8005050:	686c      	ldr	r4, [r5, #4]
 8005052:	e008      	b.n	8005066 <_fclose_r+0x32>
 8005054:	4b1e      	ldr	r3, [pc, #120]	; (80050d0 <_fclose_r+0x9c>)
 8005056:	429c      	cmp	r4, r3
 8005058:	d101      	bne.n	800505e <_fclose_r+0x2a>
 800505a:	68ac      	ldr	r4, [r5, #8]
 800505c:	e003      	b.n	8005066 <_fclose_r+0x32>
 800505e:	4b1d      	ldr	r3, [pc, #116]	; (80050d4 <_fclose_r+0xa0>)
 8005060:	429c      	cmp	r4, r3
 8005062:	bf08      	it	eq
 8005064:	68ec      	ldreq	r4, [r5, #12]
 8005066:	f9b4 300c 	ldrsh.w	r3, [r4, #12]
 800506a:	2b00      	cmp	r3, #0
 800506c:	d0e6      	beq.n	800503c <_fclose_r+0x8>
 800506e:	4628      	mov	r0, r5
 8005070:	4621      	mov	r1, r4
 8005072:	f000 f839 	bl	80050e8 <__sflush_r>
 8005076:	6b23      	ldr	r3, [r4, #48]	; 0x30
 8005078:	4606      	mov	r6, r0
 800507a:	b133      	cbz	r3, 800508a <_fclose_r+0x56>
 800507c:	4628      	mov	r0, r5
 800507e:	6a21      	ldr	r1, [r4, #32]
 8005080:	4798      	blx	r3
 8005082:	2800      	cmp	r0, #0
 8005084:	bfb8      	it	lt
 8005086:	f04f 36ff 	movlt.w	r6, #4294967295
 800508a:	89a3      	ldrh	r3, [r4, #12]
 800508c:	061b      	lsls	r3, r3, #24
 800508e:	d503      	bpl.n	8005098 <_fclose_r+0x64>
 8005090:	4628      	mov	r0, r5
 8005092:	6921      	ldr	r1, [r4, #16]
 8005094:	f000 fb5e 	bl	8005754 <_free_r>
 8005098:	6b61      	ldr	r1, [r4, #52]	; 0x34
 800509a:	b141      	cbz	r1, 80050ae <_fclose_r+0x7a>
 800509c:	f104 0344 	add.w	r3, r4, #68	; 0x44
 80050a0:	4299      	cmp	r1, r3
 80050a2:	d002      	beq.n	80050aa <_fclose_r+0x76>
 80050a4:	4628      	mov	r0, r5
 80050a6:	f000 fb55 	bl	8005754 <_free_r>
 80050aa:	2300      	movs	r3, #0
 80050ac:	6363      	str	r3, [r4, #52]	; 0x34
 80050ae:	6ca1      	ldr	r1, [r4, #72]	; 0x48
 80050b0:	b121      	cbz	r1, 80050bc <_fclose_r+0x88>
 80050b2:	4628      	mov	r0, r5
 80050b4:	f000 fb4e 	bl	8005754 <_free_r>
 80050b8:	2300      	movs	r3, #0
 80050ba:	64a3      	str	r3, [r4, #72]	; 0x48
 80050bc:	f000 f97e 	bl	80053bc <__sfp_lock_acquire>
 80050c0:	2300      	movs	r3, #0
 80050c2:	81a3      	strh	r3, [r4, #12]
 80050c4:	f000 f97b 	bl	80053be <__sfp_lock_release>
 80050c8:	4630      	mov	r0, r6
 80050ca:	bd70      	pop	{r4, r5, r6, pc}
 80050cc:	080078b8 	.word	0x080078b8
 80050d0:	080078d8 	.word	0x080078d8
 80050d4:	080078f8 	.word	0x080078f8

080050d8 <fclose>:
 80050d8:	4b02      	ldr	r3, [pc, #8]	; (80050e4 <fclose+0xc>)
 80050da:	4601      	mov	r1, r0
 80050dc:	6818      	ldr	r0, [r3, #0]
 80050de:	f7ff bfa9 	b.w	8005034 <_fclose_r>
 80050e2:	bf00      	nop
 80050e4:	20000200 	.word	0x20000200

080050e8 <__sflush_r>:
 80050e8:	898a      	ldrh	r2, [r1, #12]
 80050ea:	e92d 41f0 	stmdb	sp!, {r4, r5, r6, r7, r8, lr}
 80050ee:	4605      	mov	r5, r0
 80050f0:	0710      	lsls	r0, r2, #28
 80050f2:	460c      	mov	r4, r1
 80050f4:	d457      	bmi.n	80051a6 <__sflush_r+0xbe>
 80050f6:	684b      	ldr	r3, [r1, #4]
 80050f8:	2b00      	cmp	r3, #0
 80050fa:	dc02      	bgt.n	8005102 <__sflush_r+0x1a>
 80050fc:	6c0b      	ldr	r3, [r1, #64]	; 0x40
 80050fe:	2b00      	cmp	r3, #0
 8005100:	dd18      	ble.n	8005134 <__sflush_r+0x4c>
 8005102:	6ae6      	ldr	r6, [r4, #44]	; 0x2c
 8005104:	b1b6      	cbz	r6, 8005134 <__sflush_r+0x4c>
 8005106:	f402 5280 	and.w	r2, r2, #4096	; 0x1000
 800510a:	2300      	movs	r3, #0
 800510c:	b292      	uxth	r2, r2
 800510e:	682f      	ldr	r7, [r5, #0]
 8005110:	602b      	str	r3, [r5, #0]
 8005112:	b10a      	cbz	r2, 8005118 <__sflush_r+0x30>
 8005114:	6d62      	ldr	r2, [r4, #84]	; 0x54
 8005116:	e010      	b.n	800513a <__sflush_r+0x52>
 8005118:	6a21      	ldr	r1, [r4, #32]
 800511a:	4628      	mov	r0, r5
 800511c:	2301      	movs	r3, #1
 800511e:	47b0      	blx	r6
 8005120:	1c41      	adds	r1, r0, #1
 8005122:	4602      	mov	r2, r0
 8005124:	d109      	bne.n	800513a <__sflush_r+0x52>
 8005126:	682b      	ldr	r3, [r5, #0]
 8005128:	b13b      	cbz	r3, 800513a <__sflush_r+0x52>
 800512a:	2b1d      	cmp	r3, #29
 800512c:	d001      	beq.n	8005132 <__sflush_r+0x4a>
 800512e:	2b16      	cmp	r3, #22
 8005130:	d147      	bne.n	80051c2 <__sflush_r+0xda>
 8005132:	602f      	str	r7, [r5, #0]
 8005134:	2000      	movs	r0, #0
 8005136:	e8bd 81f0 	ldmia.w	sp!, {r4, r5, r6, r7, r8, pc}
 800513a:	89a3      	ldrh	r3, [r4, #12]
 800513c:	075b      	lsls	r3, r3, #29
 800513e:	d505      	bpl.n	800514c <__sflush_r+0x64>
 8005140:	6863      	ldr	r3, [r4, #4]
 8005142:	1ad2      	subs	r2, r2, r3
 8005144:	6b63      	ldr	r3, [r4, #52]	; 0x34
 8005146:	b10b      	cbz	r3, 800514c <__sflush_r+0x64>
 8005148:	6c23      	ldr	r3, [r4, #64]	; 0x40
 800514a:	1ad2      	subs	r2, r2, r3
 800514c:	6ae6      	ldr	r6, [r4, #44]	; 0x2c
 800514e:	6a21      	ldr	r1, [r4, #32]
 8005150:	2300      	movs	r3, #0
 8005152:	4628      	mov	r0, r5
 8005154:	47b0      	blx	r6
 8005156:	1c46      	adds	r6, r0, #1
 8005158:	89a3      	ldrh	r3, [r4, #12]
 800515a:	d105      	bne.n	8005168 <__sflush_r+0x80>
 800515c:	682a      	ldr	r2, [r5, #0]
 800515e:	b11a      	cbz	r2, 8005168 <__sflush_r+0x80>
 8005160:	2a1d      	cmp	r2, #29
 8005162:	d001      	beq.n	8005168 <__sflush_r+0x80>
 8005164:	2a16      	cmp	r2, #22
 8005166:	d119      	bne.n	800519c <__sflush_r+0xb4>
 8005168:	2200      	movs	r2, #0
 800516a:	6062      	str	r2, [r4, #4]
 800516c:	04d9      	lsls	r1, r3, #19
 800516e:	6922      	ldr	r2, [r4, #16]
 8005170:	6022      	str	r2, [r4, #0]
 8005172:	d504      	bpl.n	800517e <__sflush_r+0x96>
 8005174:	1c42      	adds	r2, r0, #1
 8005176:	d101      	bne.n	800517c <__sflush_r+0x94>
 8005178:	682b      	ldr	r3, [r5, #0]
 800517a:	b903      	cbnz	r3, 800517e <__sflush_r+0x96>
 800517c:	6560      	str	r0, [r4, #84]	; 0x54
 800517e:	6b61      	ldr	r1, [r4, #52]	; 0x34
 8005180:	602f      	str	r7, [r5, #0]
 8005182:	2900      	cmp	r1, #0
 8005184:	d0d6      	beq.n	8005134 <__sflush_r+0x4c>
 8005186:	f104 0344 	add.w	r3, r4, #68	; 0x44
 800518a:	4299      	cmp	r1, r3
 800518c:	d002      	beq.n	8005194 <__sflush_r+0xac>
 800518e:	4628      	mov	r0, r5
 8005190:	f000 fae0 	bl	8005754 <_free_r>
 8005194:	2000      	movs	r0, #0
 8005196:	6360      	str	r0, [r4, #52]	; 0x34
 8005198:	e8bd 81f0 	ldmia.w	sp!, {r4, r5, r6, r7, r8, pc}
 800519c:	f043 0340 	orr.w	r3, r3, #64	; 0x40
 80051a0:	81a3      	strh	r3, [r4, #12]
 80051a2:	e8bd 81f0 	ldmia.w	sp!, {r4, r5, r6, r7, r8, pc}
 80051a6:	690f      	ldr	r7, [r1, #16]
 80051a8:	2f00      	cmp	r7, #0
 80051aa:	d0c3      	beq.n	8005134 <__sflush_r+0x4c>
 80051ac:	0793      	lsls	r3, r2, #30
 80051ae:	680e      	ldr	r6, [r1, #0]
 80051b0:	bf08      	it	eq
 80051b2:	694b      	ldreq	r3, [r1, #20]
 80051b4:	600f      	str	r7, [r1, #0]
 80051b6:	bf18      	it	ne
 80051b8:	2300      	movne	r3, #0
 80051ba:	ebc7 0806 	rsb	r8, r7, r6
 80051be:	608b      	str	r3, [r1, #8]
 80051c0:	e012      	b.n	80051e8 <__sflush_r+0x100>
 80051c2:	89a3      	ldrh	r3, [r4, #12]
 80051c4:	f043 0340 	orr.w	r3, r3, #64	; 0x40
 80051c8:	81a3      	strh	r3, [r4, #12]
 80051ca:	f04f 30ff 	mov.w	r0, #4294967295
 80051ce:	e8bd 81f0 	ldmia.w	sp!, {r4, r5, r6, r7, r8, pc}
 80051d2:	4628      	mov	r0, r5
 80051d4:	6a21      	ldr	r1, [r4, #32]
 80051d6:	6aa6      	ldr	r6, [r4, #40]	; 0x28
 80051d8:	463a      	mov	r2, r7
 80051da:	4643      	mov	r3, r8
 80051dc:	47b0      	blx	r6
 80051de:	2800      	cmp	r0, #0
 80051e0:	ddef      	ble.n	80051c2 <__sflush_r+0xda>
 80051e2:	4407      	add	r7, r0
 80051e4:	ebc0 0808 	rsb	r8, r0, r8
 80051e8:	f1b8 0f00 	cmp.w	r8, #0
 80051ec:	dcf1      	bgt.n	80051d2 <__sflush_r+0xea>
 80051ee:	e7a1      	b.n	8005134 <__sflush_r+0x4c>

080051f0 <_fflush_r>:
 80051f0:	b538      	push	{r3, r4, r5, lr}
 80051f2:	690b      	ldr	r3, [r1, #16]
 80051f4:	4605      	mov	r5, r0
 80051f6:	460c      	mov	r4, r1
 80051f8:	b1db      	cbz	r3, 8005232 <_fflush_r+0x42>
 80051fa:	b118      	cbz	r0, 8005204 <_fflush_r+0x14>
 80051fc:	6983      	ldr	r3, [r0, #24]
 80051fe:	b90b      	cbnz	r3, 8005204 <_fflush_r+0x14>
 8005200:	f000 f872 	bl	80052e8 <__sinit>
 8005204:	4b0c      	ldr	r3, [pc, #48]	; (8005238 <_fflush_r+0x48>)
 8005206:	429c      	cmp	r4, r3
 8005208:	d101      	bne.n	800520e <_fflush_r+0x1e>
 800520a:	686c      	ldr	r4, [r5, #4]
 800520c:	e008      	b.n	8005220 <_fflush_r+0x30>
 800520e:	4b0b      	ldr	r3, [pc, #44]	; (800523c <_fflush_r+0x4c>)
 8005210:	429c      	cmp	r4, r3
 8005212:	d101      	bne.n	8005218 <_fflush_r+0x28>
 8005214:	68ac      	ldr	r4, [r5, #8]
 8005216:	e003      	b.n	8005220 <_fflush_r+0x30>
 8005218:	4b09      	ldr	r3, [pc, #36]	; (8005240 <_fflush_r+0x50>)
 800521a:	429c      	cmp	r4, r3
 800521c:	bf08      	it	eq
 800521e:	68ec      	ldreq	r4, [r5, #12]
 8005220:	f9b4 300c 	ldrsh.w	r3, [r4, #12]
 8005224:	b12b      	cbz	r3, 8005232 <_fflush_r+0x42>
 8005226:	4628      	mov	r0, r5
 8005228:	4621      	mov	r1, r4
 800522a:	e8bd 4038 	ldmia.w	sp!, {r3, r4, r5, lr}
 800522e:	f7ff bf5b 	b.w	80050e8 <__sflush_r>
 8005232:	2000      	movs	r0, #0
 8005234:	bd38      	pop	{r3, r4, r5, pc}
 8005236:	bf00      	nop
 8005238:	080078b8 	.word	0x080078b8
 800523c:	080078d8 	.word	0x080078d8
 8005240:	080078f8 	.word	0x080078f8

08005244 <fflush>:
 8005244:	4601      	mov	r1, r0
 8005246:	b920      	cbnz	r0, 8005252 <fflush+0xe>
 8005248:	4b04      	ldr	r3, [pc, #16]	; (800525c <fflush+0x18>)
 800524a:	4905      	ldr	r1, [pc, #20]	; (8005260 <fflush+0x1c>)
 800524c:	6818      	ldr	r0, [r3, #0]
 800524e:	f000 b9a1 	b.w	8005594 <_fwalk_reent>
 8005252:	4b04      	ldr	r3, [pc, #16]	; (8005264 <fflush+0x20>)
 8005254:	6818      	ldr	r0, [r3, #0]
 8005256:	f7ff bfcb 	b.w	80051f0 <_fflush_r>
 800525a:	bf00      	nop
 800525c:	0800791c 	.word	0x0800791c
 8005260:	080051f1 	.word	0x080051f1
 8005264:	20000200 	.word	0x20000200

08005268 <_cleanup_r>:
 8005268:	4901      	ldr	r1, [pc, #4]	; (8005270 <_cleanup_r+0x8>)
 800526a:	f000 b993 	b.w	8005594 <_fwalk_reent>
 800526e:	bf00      	nop
 8005270:	080051f1 	.word	0x080051f1

08005274 <std.isra.0>:
 8005274:	2300      	movs	r3, #0
 8005276:	b510      	push	{r4, lr}
 8005278:	4604      	mov	r4, r0
 800527a:	6003      	str	r3, [r0, #0]
 800527c:	6043      	str	r3, [r0, #4]
 800527e:	6083      	str	r3, [r0, #8]
 8005280:	8181      	strh	r1, [r0, #12]
 8005282:	6643      	str	r3, [r0, #100]	; 0x64
 8005284:	81c2      	strh	r2, [r0, #14]
 8005286:	6103      	str	r3, [r0, #16]
 8005288:	6143      	str	r3, [r0, #20]
 800528a:	6183      	str	r3, [r0, #24]
 800528c:	4619      	mov	r1, r3
 800528e:	305c      	adds	r0, #92	; 0x5c
 8005290:	2208      	movs	r2, #8
 8005292:	f000 fa56 	bl	8005742 <memset>
 8005296:	4b05      	ldr	r3, [pc, #20]	; (80052ac <std.isra.0+0x38>)
 8005298:	6263      	str	r3, [r4, #36]	; 0x24
 800529a:	4b05      	ldr	r3, [pc, #20]	; (80052b0 <std.isra.0+0x3c>)
 800529c:	62a3      	str	r3, [r4, #40]	; 0x28
 800529e:	4b05      	ldr	r3, [pc, #20]	; (80052b4 <std.isra.0+0x40>)
 80052a0:	62e3      	str	r3, [r4, #44]	; 0x2c
 80052a2:	4b05      	ldr	r3, [pc, #20]	; (80052b8 <std.isra.0+0x44>)
 80052a4:	6224      	str	r4, [r4, #32]
 80052a6:	6323      	str	r3, [r4, #48]	; 0x30
 80052a8:	bd10      	pop	{r4, pc}
 80052aa:	bf00      	nop
 80052ac:	0800632d 	.word	0x0800632d
 80052b0:	08006353 	.word	0x08006353
 80052b4:	0800638b 	.word	0x0800638b
 80052b8:	080063af 	.word	0x080063af

080052bc <__sfmoreglue>:
 80052bc:	b570      	push	{r4, r5, r6, lr}
 80052be:	2368      	movs	r3, #104	; 0x68
 80052c0:	1e4d      	subs	r5, r1, #1
 80052c2:	435d      	muls	r5, r3
 80052c4:	460e      	mov	r6, r1
 80052c6:	f105 0174 	add.w	r1, r5, #116	; 0x74
 80052ca:	f000 fa87 	bl	80057dc <_malloc_r>
 80052ce:	4604      	mov	r4, r0
 80052d0:	b140      	cbz	r0, 80052e4 <__sfmoreglue+0x28>
 80052d2:	2100      	movs	r1, #0
 80052d4:	e880 0042 	stmia.w	r0, {r1, r6}
 80052d8:	300c      	adds	r0, #12
 80052da:	60a0      	str	r0, [r4, #8]
 80052dc:	f105 0268 	add.w	r2, r5, #104	; 0x68
 80052e0:	f000 fa2f 	bl	8005742 <memset>
 80052e4:	4620      	mov	r0, r4
 80052e6:	bd70      	pop	{r4, r5, r6, pc}

080052e8 <__sinit>:
 80052e8:	6983      	ldr	r3, [r0, #24]
 80052ea:	b510      	push	{r4, lr}
 80052ec:	4604      	mov	r4, r0
 80052ee:	bb33      	cbnz	r3, 800533e <__sinit+0x56>
 80052f0:	6483      	str	r3, [r0, #72]	; 0x48
 80052f2:	64c3      	str	r3, [r0, #76]	; 0x4c
 80052f4:	6503      	str	r3, [r0, #80]	; 0x50
 80052f6:	4b12      	ldr	r3, [pc, #72]	; (8005340 <__sinit+0x58>)
 80052f8:	4a12      	ldr	r2, [pc, #72]	; (8005344 <__sinit+0x5c>)
 80052fa:	681b      	ldr	r3, [r3, #0]
 80052fc:	6282      	str	r2, [r0, #40]	; 0x28
 80052fe:	4298      	cmp	r0, r3
 8005300:	bf04      	itt	eq
 8005302:	2301      	moveq	r3, #1
 8005304:	6183      	streq	r3, [r0, #24]
 8005306:	f000 f81f 	bl	8005348 <__sfp>
 800530a:	6060      	str	r0, [r4, #4]
 800530c:	4620      	mov	r0, r4
 800530e:	f000 f81b 	bl	8005348 <__sfp>
 8005312:	60a0      	str	r0, [r4, #8]
 8005314:	4620      	mov	r0, r4
 8005316:	f000 f817 	bl	8005348 <__sfp>
 800531a:	2104      	movs	r1, #4
 800531c:	60e0      	str	r0, [r4, #12]
 800531e:	2200      	movs	r2, #0
 8005320:	6860      	ldr	r0, [r4, #4]
 8005322:	f7ff ffa7 	bl	8005274 <std.isra.0>
 8005326:	68a0      	ldr	r0, [r4, #8]
 8005328:	2109      	movs	r1, #9
 800532a:	2201      	movs	r2, #1
 800532c:	f7ff ffa2 	bl	8005274 <std.isra.0>
 8005330:	68e0      	ldr	r0, [r4, #12]
 8005332:	2112      	movs	r1, #18
 8005334:	2202      	movs	r2, #2
 8005336:	f7ff ff9d 	bl	8005274 <std.isra.0>
 800533a:	2301      	movs	r3, #1
 800533c:	61a3      	str	r3, [r4, #24]
 800533e:	bd10      	pop	{r4, pc}
 8005340:	0800791c 	.word	0x0800791c
 8005344:	08005269 	.word	0x08005269

08005348 <__sfp>:
 8005348:	b5f8      	push	{r3, r4, r5, r6, r7, lr}
 800534a:	4b1b      	ldr	r3, [pc, #108]	; (80053b8 <__sfp+0x70>)
 800534c:	681e      	ldr	r6, [r3, #0]
 800534e:	69b3      	ldr	r3, [r6, #24]
 8005350:	4607      	mov	r7, r0
 8005352:	b913      	cbnz	r3, 800535a <__sfp+0x12>
 8005354:	4630      	mov	r0, r6
 8005356:	f7ff ffc7 	bl	80052e8 <__sinit>
 800535a:	3648      	adds	r6, #72	; 0x48
 800535c:	68b4      	ldr	r4, [r6, #8]
 800535e:	6873      	ldr	r3, [r6, #4]
 8005360:	3b01      	subs	r3, #1
 8005362:	d404      	bmi.n	800536e <__sfp+0x26>
 8005364:	f9b4 500c 	ldrsh.w	r5, [r4, #12]
 8005368:	b175      	cbz	r5, 8005388 <__sfp+0x40>
 800536a:	3468      	adds	r4, #104	; 0x68
 800536c:	e7f8      	b.n	8005360 <__sfp+0x18>
 800536e:	6833      	ldr	r3, [r6, #0]
 8005370:	b92b      	cbnz	r3, 800537e <__sfp+0x36>
 8005372:	4638      	mov	r0, r7
 8005374:	2104      	movs	r1, #4
 8005376:	f7ff ffa1 	bl	80052bc <__sfmoreglue>
 800537a:	6030      	str	r0, [r6, #0]
 800537c:	b108      	cbz	r0, 8005382 <__sfp+0x3a>
 800537e:	6836      	ldr	r6, [r6, #0]
 8005380:	e7ec      	b.n	800535c <__sfp+0x14>
 8005382:	230c      	movs	r3, #12
 8005384:	603b      	str	r3, [r7, #0]
 8005386:	bdf8      	pop	{r3, r4, r5, r6, r7, pc}
 8005388:	f64f 73ff 	movw	r3, #65535	; 0xffff
 800538c:	81e3      	strh	r3, [r4, #14]
 800538e:	2301      	movs	r3, #1
 8005390:	81a3      	strh	r3, [r4, #12]
 8005392:	6665      	str	r5, [r4, #100]	; 0x64
 8005394:	6025      	str	r5, [r4, #0]
 8005396:	60a5      	str	r5, [r4, #8]
 8005398:	6065      	str	r5, [r4, #4]
 800539a:	6125      	str	r5, [r4, #16]
 800539c:	6165      	str	r5, [r4, #20]
 800539e:	61a5      	str	r5, [r4, #24]
 80053a0:	f104 005c 	add.w	r0, r4, #92	; 0x5c
 80053a4:	4629      	mov	r1, r5
 80053a6:	2208      	movs	r2, #8
 80053a8:	f000 f9cb 	bl	8005742 <memset>
 80053ac:	6365      	str	r5, [r4, #52]	; 0x34
 80053ae:	63a5      	str	r5, [r4, #56]	; 0x38
 80053b0:	64a5      	str	r5, [r4, #72]	; 0x48
 80053b2:	64e5      	str	r5, [r4, #76]	; 0x4c
 80053b4:	4620      	mov	r0, r4
 80053b6:	bdf8      	pop	{r3, r4, r5, r6, r7, pc}
 80053b8:	0800791c 	.word	0x0800791c

080053bc <__sfp_lock_acquire>:
 80053bc:	4770      	bx	lr

080053be <__sfp_lock_release>:
 80053be:	4770      	bx	lr

080053c0 <_fopen_r>:
 80053c0:	b5f7      	push	{r0, r1, r2, r4, r5, r6, r7, lr}
 80053c2:	460f      	mov	r7, r1
 80053c4:	4611      	mov	r1, r2
 80053c6:	aa01      	add	r2, sp, #4
 80053c8:	4605      	mov	r5, r0
 80053ca:	f001 fa41 	bl	8006850 <__sflags>
 80053ce:	4606      	mov	r6, r0
 80053d0:	b908      	cbnz	r0, 80053d6 <_fopen_r+0x16>
 80053d2:	2000      	movs	r0, #0
 80053d4:	e029      	b.n	800542a <_fopen_r+0x6a>
 80053d6:	4628      	mov	r0, r5
 80053d8:	f7ff ffb6 	bl	8005348 <__sfp>
 80053dc:	4604      	mov	r4, r0
 80053de:	2800      	cmp	r0, #0
 80053e0:	d0f7      	beq.n	80053d2 <_fopen_r+0x12>
 80053e2:	4628      	mov	r0, r5
 80053e4:	4639      	mov	r1, r7
 80053e6:	9a01      	ldr	r2, [sp, #4]
 80053e8:	f44f 73db 	mov.w	r3, #438	; 0x1b6
 80053ec:	f000 fe6c 	bl	80060c8 <_open_r>
 80053f0:	2800      	cmp	r0, #0
 80053f2:	da06      	bge.n	8005402 <_fopen_r+0x42>
 80053f4:	2500      	movs	r5, #0
 80053f6:	f7ff ffe1 	bl	80053bc <__sfp_lock_acquire>
 80053fa:	81a5      	strh	r5, [r4, #12]
 80053fc:	f7ff ffdf 	bl	80053be <__sfp_lock_release>
 8005400:	e7e7      	b.n	80053d2 <_fopen_r+0x12>
 8005402:	4b0b      	ldr	r3, [pc, #44]	; (8005430 <_fopen_r+0x70>)
 8005404:	6263      	str	r3, [r4, #36]	; 0x24
 8005406:	4b0b      	ldr	r3, [pc, #44]	; (8005434 <_fopen_r+0x74>)
 8005408:	62a3      	str	r3, [r4, #40]	; 0x28
 800540a:	4b0b      	ldr	r3, [pc, #44]	; (8005438 <_fopen_r+0x78>)
 800540c:	62e3      	str	r3, [r4, #44]	; 0x2c
 800540e:	4b0b      	ldr	r3, [pc, #44]	; (800543c <_fopen_r+0x7c>)
 8005410:	6323      	str	r3, [r4, #48]	; 0x30
 8005412:	05f3      	lsls	r3, r6, #23
 8005414:	81e0      	strh	r0, [r4, #14]
 8005416:	81a6      	strh	r6, [r4, #12]
 8005418:	6224      	str	r4, [r4, #32]
 800541a:	d505      	bpl.n	8005428 <_fopen_r+0x68>
 800541c:	4628      	mov	r0, r5
 800541e:	4621      	mov	r1, r4
 8005420:	2200      	movs	r2, #0
 8005422:	2302      	movs	r3, #2
 8005424:	f000 f828 	bl	8005478 <_fseek_r>
 8005428:	4620      	mov	r0, r4
 800542a:	b003      	add	sp, #12
 800542c:	bdf0      	pop	{r4, r5, r6, r7, pc}
 800542e:	bf00      	nop
 8005430:	0800632d 	.word	0x0800632d
 8005434:	08006353 	.word	0x08006353
 8005438:	0800638b 	.word	0x0800638b
 800543c:	080063af 	.word	0x080063af

08005440 <fopen>:
 8005440:	460a      	mov	r2, r1
 8005442:	4903      	ldr	r1, [pc, #12]	; (8005450 <fopen+0x10>)
 8005444:	4603      	mov	r3, r0
 8005446:	6808      	ldr	r0, [r1, #0]
 8005448:	4619      	mov	r1, r3
 800544a:	f7ff bfb9 	b.w	80053c0 <_fopen_r>
 800544e:	bf00      	nop
 8005450:	20000200 	.word	0x20000200

08005454 <fiprintf>:
 8005454:	b40e      	push	{r1, r2, r3}
 8005456:	b503      	push	{r0, r1, lr}
 8005458:	4601      	mov	r1, r0
 800545a:	ab03      	add	r3, sp, #12
 800545c:	4805      	ldr	r0, [pc, #20]	; (8005474 <fiprintf+0x20>)
 800545e:	f853 2b04 	ldr.w	r2, [r3], #4
 8005462:	6800      	ldr	r0, [r0, #0]
 8005464:	9301      	str	r3, [sp, #4]
 8005466:	f000 fa37 	bl	80058d8 <_vfiprintf_r>
 800546a:	b002      	add	sp, #8
 800546c:	f85d eb04 	ldr.w	lr, [sp], #4
 8005470:	b003      	add	sp, #12
 8005472:	4770      	bx	lr
 8005474:	20000200 	.word	0x20000200

08005478 <_fseek_r>:
 8005478:	f000 b800 	b.w	800547c <_fseeko_r>

0800547c <_fseeko_r>:
 800547c:	e92d 43f8 	stmdb	sp!, {r3, r4, r5, r6, r7, r8, r9, lr}
 8005480:	460c      	mov	r4, r1
 8005482:	4690      	mov	r8, r2
 8005484:	461e      	mov	r6, r3
 8005486:	4605      	mov	r5, r0
 8005488:	b118      	cbz	r0, 8005492 <_fseeko_r+0x16>
 800548a:	6983      	ldr	r3, [r0, #24]
 800548c:	b90b      	cbnz	r3, 8005492 <_fseeko_r+0x16>
 800548e:	f7ff ff2b 	bl	80052e8 <__sinit>
 8005492:	4b3d      	ldr	r3, [pc, #244]	; (8005588 <_fseeko_r+0x10c>)
 8005494:	429c      	cmp	r4, r3
 8005496:	d101      	bne.n	800549c <_fseeko_r+0x20>
 8005498:	686c      	ldr	r4, [r5, #4]
 800549a:	e008      	b.n	80054ae <_fseeko_r+0x32>
 800549c:	4b3b      	ldr	r3, [pc, #236]	; (800558c <_fseeko_r+0x110>)
 800549e:	429c      	cmp	r4, r3
 80054a0:	d101      	bne.n	80054a6 <_fseeko_r+0x2a>
 80054a2:	68ac      	ldr	r4, [r5, #8]
 80054a4:	e003      	b.n	80054ae <_fseeko_r+0x32>
 80054a6:	4b3a      	ldr	r3, [pc, #232]	; (8005590 <_fseeko_r+0x114>)
 80054a8:	429c      	cmp	r4, r3
 80054aa:	bf08      	it	eq
 80054ac:	68ec      	ldreq	r4, [r5, #12]
 80054ae:	89a3      	ldrh	r3, [r4, #12]
 80054b0:	f403 7384 	and.w	r3, r3, #264	; 0x108
 80054b4:	f5b3 7f84 	cmp.w	r3, #264	; 0x108
 80054b8:	d103      	bne.n	80054c2 <_fseeko_r+0x46>
 80054ba:	4628      	mov	r0, r5
 80054bc:	4621      	mov	r1, r4
 80054be:	f7ff fe97 	bl	80051f0 <_fflush_r>
 80054c2:	6ae7      	ldr	r7, [r4, #44]	; 0x2c
 80054c4:	b90f      	cbnz	r7, 80054ca <_fseeko_r+0x4e>
 80054c6:	231d      	movs	r3, #29
 80054c8:	e02b      	b.n	8005522 <_fseeko_r+0xa6>
 80054ca:	2e01      	cmp	r6, #1
 80054cc:	d004      	beq.n	80054d8 <_fseeko_r+0x5c>
 80054ce:	2e02      	cmp	r6, #2
 80054d0:	d02b      	beq.n	800552a <_fseeko_r+0xae>
 80054d2:	b356      	cbz	r6, 800552a <_fseeko_r+0xae>
 80054d4:	2316      	movs	r3, #22
 80054d6:	e024      	b.n	8005522 <_fseeko_r+0xa6>
 80054d8:	4628      	mov	r0, r5
 80054da:	4621      	mov	r1, r4
 80054dc:	f7ff fe88 	bl	80051f0 <_fflush_r>
 80054e0:	89a2      	ldrh	r2, [r4, #12]
 80054e2:	f402 5280 	and.w	r2, r2, #4096	; 0x1000
 80054e6:	b292      	uxth	r2, r2
 80054e8:	b10a      	cbz	r2, 80054ee <_fseeko_r+0x72>
 80054ea:	6d60      	ldr	r0, [r4, #84]	; 0x54
 80054ec:	e005      	b.n	80054fa <_fseeko_r+0x7e>
 80054ee:	6a21      	ldr	r1, [r4, #32]
 80054f0:	4628      	mov	r0, r5
 80054f2:	4633      	mov	r3, r6
 80054f4:	47b8      	blx	r7
 80054f6:	1c41      	adds	r1, r0, #1
 80054f8:	d014      	beq.n	8005524 <_fseeko_r+0xa8>
 80054fa:	89a3      	ldrh	r3, [r4, #12]
 80054fc:	075a      	lsls	r2, r3, #29
 80054fe:	d506      	bpl.n	800550e <_fseeko_r+0x92>
 8005500:	6863      	ldr	r3, [r4, #4]
 8005502:	1ac0      	subs	r0, r0, r3
 8005504:	6b63      	ldr	r3, [r4, #52]	; 0x34
 8005506:	b14b      	cbz	r3, 800551c <_fseeko_r+0xa0>
 8005508:	6c23      	ldr	r3, [r4, #64]	; 0x40
 800550a:	1ac0      	subs	r0, r0, r3
 800550c:	e006      	b.n	800551c <_fseeko_r+0xa0>
 800550e:	071b      	lsls	r3, r3, #28
 8005510:	d504      	bpl.n	800551c <_fseeko_r+0xa0>
 8005512:	6823      	ldr	r3, [r4, #0]
 8005514:	b113      	cbz	r3, 800551c <_fseeko_r+0xa0>
 8005516:	6922      	ldr	r2, [r4, #16]
 8005518:	1a9b      	subs	r3, r3, r2
 800551a:	4418      	add	r0, r3
 800551c:	4480      	add	r8, r0
 800551e:	2600      	movs	r6, #0
 8005520:	e003      	b.n	800552a <_fseeko_r+0xae>
 8005522:	602b      	str	r3, [r5, #0]
 8005524:	f04f 39ff 	mov.w	r9, #4294967295
 8005528:	e02b      	b.n	8005582 <_fseeko_r+0x106>
 800552a:	6923      	ldr	r3, [r4, #16]
 800552c:	b91b      	cbnz	r3, 8005536 <_fseeko_r+0xba>
 800552e:	4628      	mov	r0, r5
 8005530:	4621      	mov	r1, r4
 8005532:	f000 f873 	bl	800561c <__smakebuf_r>
 8005536:	4628      	mov	r0, r5
 8005538:	4621      	mov	r1, r4
 800553a:	f7ff fe59 	bl	80051f0 <_fflush_r>
 800553e:	4681      	mov	r9, r0
 8005540:	2800      	cmp	r0, #0
 8005542:	d1ef      	bne.n	8005524 <_fseeko_r+0xa8>
 8005544:	4628      	mov	r0, r5
 8005546:	6a21      	ldr	r1, [r4, #32]
 8005548:	4642      	mov	r2, r8
 800554a:	4633      	mov	r3, r6
 800554c:	47b8      	blx	r7
 800554e:	3001      	adds	r0, #1
 8005550:	d0e8      	beq.n	8005524 <_fseeko_r+0xa8>
 8005552:	6b61      	ldr	r1, [r4, #52]	; 0x34
 8005554:	b141      	cbz	r1, 8005568 <_fseeko_r+0xec>
 8005556:	f104 0344 	add.w	r3, r4, #68	; 0x44
 800555a:	4299      	cmp	r1, r3
 800555c:	d002      	beq.n	8005564 <_fseeko_r+0xe8>
 800555e:	4628      	mov	r0, r5
 8005560:	f000 f8f8 	bl	8005754 <_free_r>
 8005564:	2300      	movs	r3, #0
 8005566:	6363      	str	r3, [r4, #52]	; 0x34
 8005568:	6923      	ldr	r3, [r4, #16]
 800556a:	6023      	str	r3, [r4, #0]
 800556c:	89a3      	ldrh	r3, [r4, #12]
 800556e:	2100      	movs	r1, #0
 8005570:	f423 6302 	bic.w	r3, r3, #2080	; 0x820
 8005574:	6061      	str	r1, [r4, #4]
 8005576:	81a3      	strh	r3, [r4, #12]
 8005578:	f104 005c 	add.w	r0, r4, #92	; 0x5c
 800557c:	2208      	movs	r2, #8
 800557e:	f000 f8e0 	bl	8005742 <memset>
 8005582:	4648      	mov	r0, r9
 8005584:	e8bd 83f8 	ldmia.w	sp!, {r3, r4, r5, r6, r7, r8, r9, pc}
 8005588:	080078b8 	.word	0x080078b8
 800558c:	080078d8 	.word	0x080078d8
 8005590:	080078f8 	.word	0x080078f8

08005594 <_fwalk_reent>:
 8005594:	e92d 43f8 	stmdb	sp!, {r3, r4, r5, r6, r7, r8, r9, lr}
 8005598:	4680      	mov	r8, r0
 800559a:	4689      	mov	r9, r1
 800559c:	f100 0448 	add.w	r4, r0, #72	; 0x48
 80055a0:	2600      	movs	r6, #0
 80055a2:	b194      	cbz	r4, 80055ca <_fwalk_reent+0x36>
 80055a4:	68a5      	ldr	r5, [r4, #8]
 80055a6:	6867      	ldr	r7, [r4, #4]
 80055a8:	3f01      	subs	r7, #1
 80055aa:	d40c      	bmi.n	80055c6 <_fwalk_reent+0x32>
 80055ac:	89ab      	ldrh	r3, [r5, #12]
 80055ae:	2b01      	cmp	r3, #1
 80055b0:	d907      	bls.n	80055c2 <_fwalk_reent+0x2e>
 80055b2:	f9b5 300e 	ldrsh.w	r3, [r5, #14]
 80055b6:	3301      	adds	r3, #1
 80055b8:	d003      	beq.n	80055c2 <_fwalk_reent+0x2e>
 80055ba:	4640      	mov	r0, r8
 80055bc:	4629      	mov	r1, r5
 80055be:	47c8      	blx	r9
 80055c0:	4306      	orrs	r6, r0
 80055c2:	3568      	adds	r5, #104	; 0x68
 80055c4:	e7f0      	b.n	80055a8 <_fwalk_reent+0x14>
 80055c6:	6824      	ldr	r4, [r4, #0]
 80055c8:	e7eb      	b.n	80055a2 <_fwalk_reent+0xe>
 80055ca:	4630      	mov	r0, r6
 80055cc:	e8bd 83f8 	ldmia.w	sp!, {r3, r4, r5, r6, r7, r8, r9, pc}

080055d0 <__libc_init_array>:
 80055d0:	b570      	push	{r4, r5, r6, lr}
 80055d2:	4b0e      	ldr	r3, [pc, #56]	; (800560c <__libc_init_array+0x3c>)
 80055d4:	4c0e      	ldr	r4, [pc, #56]	; (8005610 <__libc_init_array+0x40>)
 80055d6:	1ae4      	subs	r4, r4, r3
 80055d8:	10a4      	asrs	r4, r4, #2
 80055da:	2500      	movs	r5, #0
 80055dc:	461e      	mov	r6, r3
 80055de:	42a5      	cmp	r5, r4
 80055e0:	d004      	beq.n	80055ec <__libc_init_array+0x1c>
 80055e2:	f856 3025 	ldr.w	r3, [r6, r5, lsl #2]
 80055e6:	4798      	blx	r3
 80055e8:	3501      	adds	r5, #1
 80055ea:	e7f8      	b.n	80055de <__libc_init_array+0xe>
 80055ec:	f001 fcd2 	bl	8006f94 <_init>
 80055f0:	4c08      	ldr	r4, [pc, #32]	; (8005614 <__libc_init_array+0x44>)
 80055f2:	4b09      	ldr	r3, [pc, #36]	; (8005618 <__libc_init_array+0x48>)
 80055f4:	1ae4      	subs	r4, r4, r3
 80055f6:	10a4      	asrs	r4, r4, #2
 80055f8:	2500      	movs	r5, #0
 80055fa:	461e      	mov	r6, r3
 80055fc:	42a5      	cmp	r5, r4
 80055fe:	d004      	beq.n	800560a <__libc_init_array+0x3a>
 8005600:	f856 3025 	ldr.w	r3, [r6, r5, lsl #2]
 8005604:	4798      	blx	r3
 8005606:	3501      	adds	r5, #1
 8005608:	e7f8      	b.n	80055fc <__libc_init_array+0x2c>
 800560a:	bd70      	pop	{r4, r5, r6, pc}
 800560c:	20000208 	.word	0x20000208
 8005610:	20000208 	.word	0x20000208
 8005614:	20000210 	.word	0x20000210
 8005618:	20000208 	.word	0x20000208

0800561c <__smakebuf_r>:
 800561c:	b5f0      	push	{r4, r5, r6, r7, lr}
 800561e:	898b      	ldrh	r3, [r1, #12]
 8005620:	079d      	lsls	r5, r3, #30
 8005622:	b091      	sub	sp, #68	; 0x44
 8005624:	4606      	mov	r6, r0
 8005626:	460c      	mov	r4, r1
 8005628:	d426      	bmi.n	8005678 <__smakebuf_r+0x5c>
 800562a:	f9b1 100e 	ldrsh.w	r1, [r1, #14]
 800562e:	2900      	cmp	r1, #0
 8005630:	da09      	bge.n	8005646 <__smakebuf_r+0x2a>
 8005632:	89a3      	ldrh	r3, [r4, #12]
 8005634:	f013 0f80 	tst.w	r3, #128	; 0x80
 8005638:	f04f 0500 	mov.w	r5, #0
 800563c:	bf14      	ite	ne
 800563e:	2740      	movne	r7, #64	; 0x40
 8005640:	f44f 6780 	moveq.w	r7, #1024	; 0x400
 8005644:	e00d      	b.n	8005662 <__smakebuf_r+0x46>
 8005646:	aa01      	add	r2, sp, #4
 8005648:	f001 f93a 	bl	80068c0 <_fstat_r>
 800564c:	2800      	cmp	r0, #0
 800564e:	dbf0      	blt.n	8005632 <__smakebuf_r+0x16>
 8005650:	9d02      	ldr	r5, [sp, #8]
 8005652:	f405 4570 	and.w	r5, r5, #61440	; 0xf000
 8005656:	f5a5 5100 	sub.w	r1, r5, #8192	; 0x2000
 800565a:	424d      	negs	r5, r1
 800565c:	414d      	adcs	r5, r1
 800565e:	f44f 6780 	mov.w	r7, #1024	; 0x400
 8005662:	4630      	mov	r0, r6
 8005664:	4639      	mov	r1, r7
 8005666:	f000 f8b9 	bl	80057dc <_malloc_r>
 800566a:	b960      	cbnz	r0, 8005686 <__smakebuf_r+0x6a>
 800566c:	89a3      	ldrh	r3, [r4, #12]
 800566e:	059a      	lsls	r2, r3, #22
 8005670:	d41d      	bmi.n	80056ae <__smakebuf_r+0x92>
 8005672:	f043 0302 	orr.w	r3, r3, #2
 8005676:	81a3      	strh	r3, [r4, #12]
 8005678:	f104 0347 	add.w	r3, r4, #71	; 0x47
 800567c:	6023      	str	r3, [r4, #0]
 800567e:	6123      	str	r3, [r4, #16]
 8005680:	2301      	movs	r3, #1
 8005682:	6163      	str	r3, [r4, #20]
 8005684:	e013      	b.n	80056ae <__smakebuf_r+0x92>
 8005686:	4b0b      	ldr	r3, [pc, #44]	; (80056b4 <__smakebuf_r+0x98>)
 8005688:	62b3      	str	r3, [r6, #40]	; 0x28
 800568a:	89a3      	ldrh	r3, [r4, #12]
 800568c:	6020      	str	r0, [r4, #0]
 800568e:	f043 0380 	orr.w	r3, r3, #128	; 0x80
 8005692:	81a3      	strh	r3, [r4, #12]
 8005694:	6120      	str	r0, [r4, #16]
 8005696:	6167      	str	r7, [r4, #20]
 8005698:	b14d      	cbz	r5, 80056ae <__smakebuf_r+0x92>
 800569a:	4630      	mov	r0, r6
 800569c:	f9b4 100e 	ldrsh.w	r1, [r4, #14]
 80056a0:	f001 f920 	bl	80068e4 <_isatty_r>
 80056a4:	b118      	cbz	r0, 80056ae <__smakebuf_r+0x92>
 80056a6:	89a3      	ldrh	r3, [r4, #12]
 80056a8:	f043 0301 	orr.w	r3, r3, #1
 80056ac:	81a3      	strh	r3, [r4, #12]
 80056ae:	b011      	add	sp, #68	; 0x44
 80056b0:	bdf0      	pop	{r4, r5, r6, r7, pc}
 80056b2:	bf00      	nop
 80056b4:	08005269 	.word	0x08005269

080056b8 <malloc>:
 80056b8:	4b02      	ldr	r3, [pc, #8]	; (80056c4 <malloc+0xc>)
 80056ba:	4601      	mov	r1, r0
 80056bc:	6818      	ldr	r0, [r3, #0]
 80056be:	f000 b88d 	b.w	80057dc <_malloc_r>
 80056c2:	bf00      	nop
 80056c4:	20000200 	.word	0x20000200

080056c8 <free>:
 80056c8:	4b02      	ldr	r3, [pc, #8]	; (80056d4 <free+0xc>)
 80056ca:	4601      	mov	r1, r0
 80056cc:	6818      	ldr	r0, [r3, #0]
 80056ce:	f000 b841 	b.w	8005754 <_free_r>
 80056d2:	bf00      	nop
 80056d4:	20000200 	.word	0x20000200

080056d8 <memchr>:
 80056d8:	b510      	push	{r4, lr}
 80056da:	b2c9      	uxtb	r1, r1
 80056dc:	4402      	add	r2, r0
 80056de:	4290      	cmp	r0, r2
 80056e0:	4603      	mov	r3, r0
 80056e2:	d006      	beq.n	80056f2 <memchr+0x1a>
 80056e4:	781c      	ldrb	r4, [r3, #0]
 80056e6:	428c      	cmp	r4, r1
 80056e8:	f100 0001 	add.w	r0, r0, #1
 80056ec:	d1f7      	bne.n	80056de <memchr+0x6>
 80056ee:	4618      	mov	r0, r3
 80056f0:	bd10      	pop	{r4, pc}
 80056f2:	2000      	movs	r0, #0
 80056f4:	bd10      	pop	{r4, pc}

080056f6 <memcpy>:
 80056f6:	b510      	push	{r4, lr}
 80056f8:	1e43      	subs	r3, r0, #1
 80056fa:	440a      	add	r2, r1
 80056fc:	4291      	cmp	r1, r2
 80056fe:	d004      	beq.n	800570a <memcpy+0x14>
 8005700:	f811 4b01 	ldrb.w	r4, [r1], #1
 8005704:	f803 4f01 	strb.w	r4, [r3, #1]!
 8005708:	e7f8      	b.n	80056fc <memcpy+0x6>
 800570a:	bd10      	pop	{r4, pc}

0800570c <memmove>:
 800570c:	4281      	cmp	r1, r0
 800570e:	b510      	push	{r4, lr}
 8005710:	eb01 0302 	add.w	r3, r1, r2
 8005714:	d301      	bcc.n	800571a <memmove+0xe>
 8005716:	1e42      	subs	r2, r0, #1
 8005718:	e00b      	b.n	8005732 <memmove+0x26>
 800571a:	4298      	cmp	r0, r3
 800571c:	d2fb      	bcs.n	8005716 <memmove+0xa>
 800571e:	1881      	adds	r1, r0, r2
 8005720:	1ad2      	subs	r2, r2, r3
 8005722:	42d3      	cmn	r3, r2
 8005724:	d004      	beq.n	8005730 <memmove+0x24>
 8005726:	f813 4d01 	ldrb.w	r4, [r3, #-1]!
 800572a:	f801 4d01 	strb.w	r4, [r1, #-1]!
 800572e:	e7f8      	b.n	8005722 <memmove+0x16>
 8005730:	bd10      	pop	{r4, pc}
 8005732:	4299      	cmp	r1, r3
 8005734:	d004      	beq.n	8005740 <memmove+0x34>
 8005736:	f811 4b01 	ldrb.w	r4, [r1], #1
 800573a:	f802 4f01 	strb.w	r4, [r2, #1]!
 800573e:	e7f8      	b.n	8005732 <memmove+0x26>
 8005740:	bd10      	pop	{r4, pc}

08005742 <memset>:
 8005742:	4402      	add	r2, r0
 8005744:	4603      	mov	r3, r0
 8005746:	4293      	cmp	r3, r2
 8005748:	d002      	beq.n	8005750 <memset+0xe>
 800574a:	f803 1b01 	strb.w	r1, [r3], #1
 800574e:	e7fa      	b.n	8005746 <memset+0x4>
 8005750:	4770      	bx	lr
	...

08005754 <_free_r>:
 8005754:	b530      	push	{r4, r5, lr}
 8005756:	2900      	cmp	r1, #0
 8005758:	d03d      	beq.n	80057d6 <_free_r+0x82>
 800575a:	f851 2c04 	ldr.w	r2, [r1, #-4]
 800575e:	1f0b      	subs	r3, r1, #4
 8005760:	491d      	ldr	r1, [pc, #116]	; (80057d8 <_free_r+0x84>)
 8005762:	2a00      	cmp	r2, #0
 8005764:	bfb8      	it	lt
 8005766:	189b      	addlt	r3, r3, r2
 8005768:	680a      	ldr	r2, [r1, #0]
 800576a:	460c      	mov	r4, r1
 800576c:	b912      	cbnz	r2, 8005774 <_free_r+0x20>
 800576e:	605a      	str	r2, [r3, #4]
 8005770:	600b      	str	r3, [r1, #0]
 8005772:	bd30      	pop	{r4, r5, pc}
 8005774:	4293      	cmp	r3, r2
 8005776:	d20d      	bcs.n	8005794 <_free_r+0x40>
 8005778:	6819      	ldr	r1, [r3, #0]
 800577a:	1858      	adds	r0, r3, r1
 800577c:	4290      	cmp	r0, r2
 800577e:	bf01      	itttt	eq
 8005780:	585a      	ldreq	r2, [r3, r1]
 8005782:	1852      	addeq	r2, r2, r1
 8005784:	601a      	streq	r2, [r3, #0]
 8005786:	6842      	ldreq	r2, [r0, #4]
 8005788:	605a      	str	r2, [r3, #4]
 800578a:	6023      	str	r3, [r4, #0]
 800578c:	bd30      	pop	{r4, r5, pc}
 800578e:	4299      	cmp	r1, r3
 8005790:	d803      	bhi.n	800579a <_free_r+0x46>
 8005792:	460a      	mov	r2, r1
 8005794:	6851      	ldr	r1, [r2, #4]
 8005796:	2900      	cmp	r1, #0
 8005798:	d1f9      	bne.n	800578e <_free_r+0x3a>
 800579a:	6814      	ldr	r4, [r2, #0]
 800579c:	1915      	adds	r5, r2, r4
 800579e:	429d      	cmp	r5, r3
 80057a0:	d10a      	bne.n	80057b8 <_free_r+0x64>
 80057a2:	681b      	ldr	r3, [r3, #0]
 80057a4:	4423      	add	r3, r4
 80057a6:	18d0      	adds	r0, r2, r3
 80057a8:	4288      	cmp	r0, r1
 80057aa:	6013      	str	r3, [r2, #0]
 80057ac:	d113      	bne.n	80057d6 <_free_r+0x82>
 80057ae:	6808      	ldr	r0, [r1, #0]
 80057b0:	4403      	add	r3, r0
 80057b2:	6013      	str	r3, [r2, #0]
 80057b4:	684b      	ldr	r3, [r1, #4]
 80057b6:	e00d      	b.n	80057d4 <_free_r+0x80>
 80057b8:	d902      	bls.n	80057c0 <_free_r+0x6c>
 80057ba:	230c      	movs	r3, #12
 80057bc:	6003      	str	r3, [r0, #0]
 80057be:	bd30      	pop	{r4, r5, pc}
 80057c0:	681c      	ldr	r4, [r3, #0]
 80057c2:	1918      	adds	r0, r3, r4
 80057c4:	4288      	cmp	r0, r1
 80057c6:	bf04      	itt	eq
 80057c8:	6808      	ldreq	r0, [r1, #0]
 80057ca:	6849      	ldreq	r1, [r1, #4]
 80057cc:	6059      	str	r1, [r3, #4]
 80057ce:	bf04      	itt	eq
 80057d0:	1900      	addeq	r0, r0, r4
 80057d2:	6018      	streq	r0, [r3, #0]
 80057d4:	6053      	str	r3, [r2, #4]
 80057d6:	bd30      	pop	{r4, r5, pc}
 80057d8:	200005c8 	.word	0x200005c8

080057dc <_malloc_r>:
 80057dc:	b570      	push	{r4, r5, r6, lr}
 80057de:	1ccc      	adds	r4, r1, #3
 80057e0:	f024 0403 	bic.w	r4, r4, #3
 80057e4:	3408      	adds	r4, #8
 80057e6:	2c0c      	cmp	r4, #12
 80057e8:	bf38      	it	cc
 80057ea:	240c      	movcc	r4, #12
 80057ec:	2c00      	cmp	r4, #0
 80057ee:	4606      	mov	r6, r0
 80057f0:	da03      	bge.n	80057fa <_malloc_r+0x1e>
 80057f2:	230c      	movs	r3, #12
 80057f4:	6033      	str	r3, [r6, #0]
 80057f6:	2000      	movs	r0, #0
 80057f8:	bd70      	pop	{r4, r5, r6, pc}
 80057fa:	428c      	cmp	r4, r1
 80057fc:	d3f9      	bcc.n	80057f2 <_malloc_r+0x16>
 80057fe:	4a20      	ldr	r2, [pc, #128]	; (8005880 <_malloc_r+0xa4>)
 8005800:	6813      	ldr	r3, [r2, #0]
 8005802:	4610      	mov	r0, r2
 8005804:	4619      	mov	r1, r3
 8005806:	b1a1      	cbz	r1, 8005832 <_malloc_r+0x56>
 8005808:	680a      	ldr	r2, [r1, #0]
 800580a:	1b12      	subs	r2, r2, r4
 800580c:	d40e      	bmi.n	800582c <_malloc_r+0x50>
 800580e:	2a0b      	cmp	r2, #11
 8005810:	d903      	bls.n	800581a <_malloc_r+0x3e>
 8005812:	600a      	str	r2, [r1, #0]
 8005814:	188b      	adds	r3, r1, r2
 8005816:	508c      	str	r4, [r1, r2]
 8005818:	e01f      	b.n	800585a <_malloc_r+0x7e>
 800581a:	428b      	cmp	r3, r1
 800581c:	bf0d      	iteet	eq
 800581e:	685a      	ldreq	r2, [r3, #4]
 8005820:	684a      	ldrne	r2, [r1, #4]
 8005822:	605a      	strne	r2, [r3, #4]
 8005824:	6002      	streq	r2, [r0, #0]
 8005826:	bf18      	it	ne
 8005828:	460b      	movne	r3, r1
 800582a:	e016      	b.n	800585a <_malloc_r+0x7e>
 800582c:	460b      	mov	r3, r1
 800582e:	6849      	ldr	r1, [r1, #4]
 8005830:	e7e9      	b.n	8005806 <_malloc_r+0x2a>
 8005832:	4d14      	ldr	r5, [pc, #80]	; (8005884 <_malloc_r+0xa8>)
 8005834:	682b      	ldr	r3, [r5, #0]
 8005836:	b91b      	cbnz	r3, 8005840 <_malloc_r+0x64>
 8005838:	4630      	mov	r0, r6
 800583a:	f000 fc57 	bl	80060ec <_sbrk_r>
 800583e:	6028      	str	r0, [r5, #0]
 8005840:	4630      	mov	r0, r6
 8005842:	4621      	mov	r1, r4
 8005844:	f000 fc52 	bl	80060ec <_sbrk_r>
 8005848:	1c42      	adds	r2, r0, #1
 800584a:	4603      	mov	r3, r0
 800584c:	d0d1      	beq.n	80057f2 <_malloc_r+0x16>
 800584e:	1cc5      	adds	r5, r0, #3
 8005850:	f025 0503 	bic.w	r5, r5, #3
 8005854:	4285      	cmp	r5, r0
 8005856:	d10a      	bne.n	800586e <_malloc_r+0x92>
 8005858:	601c      	str	r4, [r3, #0]
 800585a:	f103 000b 	add.w	r0, r3, #11
 800585e:	1d1a      	adds	r2, r3, #4
 8005860:	f020 0007 	bic.w	r0, r0, #7
 8005864:	1a82      	subs	r2, r0, r2
 8005866:	d00a      	beq.n	800587e <_malloc_r+0xa2>
 8005868:	4251      	negs	r1, r2
 800586a:	5099      	str	r1, [r3, r2]
 800586c:	bd70      	pop	{r4, r5, r6, pc}
 800586e:	4630      	mov	r0, r6
 8005870:	1ae9      	subs	r1, r5, r3
 8005872:	f000 fc3b 	bl	80060ec <_sbrk_r>
 8005876:	3001      	adds	r0, #1
 8005878:	d0bb      	beq.n	80057f2 <_malloc_r+0x16>
 800587a:	462b      	mov	r3, r5
 800587c:	e7ec      	b.n	8005858 <_malloc_r+0x7c>
 800587e:	bd70      	pop	{r4, r5, r6, pc}
 8005880:	200005c8 	.word	0x200005c8
 8005884:	200005c4 	.word	0x200005c4

08005888 <__sfputc_r>:
 8005888:	6893      	ldr	r3, [r2, #8]
 800588a:	3b01      	subs	r3, #1
 800588c:	2b00      	cmp	r3, #0
 800588e:	b510      	push	{r4, lr}
 8005890:	6093      	str	r3, [r2, #8]
 8005892:	da09      	bge.n	80058a8 <__sfputc_r+0x20>
 8005894:	6994      	ldr	r4, [r2, #24]
 8005896:	42a3      	cmp	r3, r4
 8005898:	db02      	blt.n	80058a0 <__sfputc_r+0x18>
 800589a:	b2cb      	uxtb	r3, r1
 800589c:	2b0a      	cmp	r3, #10
 800589e:	d103      	bne.n	80058a8 <__sfputc_r+0x20>
 80058a0:	e8bd 4010 	ldmia.w	sp!, {r4, lr}
 80058a4:	f000 bef2 	b.w	800668c <__swbuf_r>
 80058a8:	6813      	ldr	r3, [r2, #0]
 80058aa:	1c58      	adds	r0, r3, #1
 80058ac:	6010      	str	r0, [r2, #0]
 80058ae:	7019      	strb	r1, [r3, #0]
 80058b0:	b2c8      	uxtb	r0, r1
 80058b2:	bd10      	pop	{r4, pc}

080058b4 <__sfputs_r>:
 80058b4:	b5f8      	push	{r3, r4, r5, r6, r7, lr}
 80058b6:	4606      	mov	r6, r0
 80058b8:	460f      	mov	r7, r1
 80058ba:	4614      	mov	r4, r2
 80058bc:	18d5      	adds	r5, r2, r3
 80058be:	42ac      	cmp	r4, r5
 80058c0:	d008      	beq.n	80058d4 <__sfputs_r+0x20>
 80058c2:	4630      	mov	r0, r6
 80058c4:	f814 1b01 	ldrb.w	r1, [r4], #1
 80058c8:	463a      	mov	r2, r7
 80058ca:	f7ff ffdd 	bl	8005888 <__sfputc_r>
 80058ce:	1c43      	adds	r3, r0, #1
 80058d0:	d1f5      	bne.n	80058be <__sfputs_r+0xa>
 80058d2:	e000      	b.n	80058d6 <__sfputs_r+0x22>
 80058d4:	2000      	movs	r0, #0
 80058d6:	bdf8      	pop	{r3, r4, r5, r6, r7, pc}

080058d8 <_vfiprintf_r>:
 80058d8:	e92d 43f0 	stmdb	sp!, {r4, r5, r6, r7, r8, r9, lr}
 80058dc:	b09d      	sub	sp, #116	; 0x74
 80058de:	460d      	mov	r5, r1
 80058e0:	4690      	mov	r8, r2
 80058e2:	9303      	str	r3, [sp, #12]
 80058e4:	4606      	mov	r6, r0
 80058e6:	b118      	cbz	r0, 80058f0 <_vfiprintf_r+0x18>
 80058e8:	6983      	ldr	r3, [r0, #24]
 80058ea:	b90b      	cbnz	r3, 80058f0 <_vfiprintf_r+0x18>
 80058ec:	f7ff fcfc 	bl	80052e8 <__sinit>
 80058f0:	4b75      	ldr	r3, [pc, #468]	; (8005ac8 <_vfiprintf_r+0x1f0>)
 80058f2:	429d      	cmp	r5, r3
 80058f4:	d101      	bne.n	80058fa <_vfiprintf_r+0x22>
 80058f6:	6875      	ldr	r5, [r6, #4]
 80058f8:	e008      	b.n	800590c <_vfiprintf_r+0x34>
 80058fa:	4b74      	ldr	r3, [pc, #464]	; (8005acc <_vfiprintf_r+0x1f4>)
 80058fc:	429d      	cmp	r5, r3
 80058fe:	d101      	bne.n	8005904 <_vfiprintf_r+0x2c>
 8005900:	68b5      	ldr	r5, [r6, #8]
 8005902:	e003      	b.n	800590c <_vfiprintf_r+0x34>
 8005904:	4b72      	ldr	r3, [pc, #456]	; (8005ad0 <_vfiprintf_r+0x1f8>)
 8005906:	429d      	cmp	r5, r3
 8005908:	bf08      	it	eq
 800590a:	68f5      	ldreq	r5, [r6, #12]
 800590c:	89ab      	ldrh	r3, [r5, #12]
 800590e:	071c      	lsls	r4, r3, #28
 8005910:	d50a      	bpl.n	8005928 <_vfiprintf_r+0x50>
 8005912:	692b      	ldr	r3, [r5, #16]
 8005914:	b143      	cbz	r3, 8005928 <_vfiprintf_r+0x50>
 8005916:	2300      	movs	r3, #0
 8005918:	9309      	str	r3, [sp, #36]	; 0x24
 800591a:	2320      	movs	r3, #32
 800591c:	f88d 3029 	strb.w	r3, [sp, #41]	; 0x29
 8005920:	2330      	movs	r3, #48	; 0x30
 8005922:	f88d 302a 	strb.w	r3, [sp, #42]	; 0x2a
 8005926:	e041      	b.n	80059ac <_vfiprintf_r+0xd4>
 8005928:	4630      	mov	r0, r6
 800592a:	4629      	mov	r1, r5
 800592c:	f000 ff14 	bl	8006758 <__swsetup_r>
 8005930:	2800      	cmp	r0, #0
 8005932:	d0f0      	beq.n	8005916 <_vfiprintf_r+0x3e>
 8005934:	f04f 30ff 	mov.w	r0, #4294967295
 8005938:	e0c2      	b.n	8005ac0 <_vfiprintf_r+0x1e8>
 800593a:	9a03      	ldr	r2, [sp, #12]
 800593c:	1d11      	adds	r1, r2, #4
 800593e:	6812      	ldr	r2, [r2, #0]
 8005940:	9103      	str	r1, [sp, #12]
 8005942:	2a00      	cmp	r2, #0
 8005944:	bfbb      	ittet	lt
 8005946:	4252      	neglt	r2, r2
 8005948:	f043 0302 	orrlt.w	r3, r3, #2
 800594c:	9207      	strge	r2, [sp, #28]
 800594e:	9207      	strlt	r2, [sp, #28]
 8005950:	bfb8      	it	lt
 8005952:	9304      	strlt	r3, [sp, #16]
 8005954:	3401      	adds	r4, #1
 8005956:	7823      	ldrb	r3, [r4, #0]
 8005958:	2b2e      	cmp	r3, #46	; 0x2e
 800595a:	d07b      	beq.n	8005a54 <_vfiprintf_r+0x17c>
 800595c:	f8df 8180 	ldr.w	r8, [pc, #384]	; 8005ae0 <_vfiprintf_r+0x208>
 8005960:	7821      	ldrb	r1, [r4, #0]
 8005962:	4640      	mov	r0, r8
 8005964:	2203      	movs	r2, #3
 8005966:	f7ff feb7 	bl	80056d8 <memchr>
 800596a:	b138      	cbz	r0, 800597c <_vfiprintf_r+0xa4>
 800596c:	9a04      	ldr	r2, [sp, #16]
 800596e:	ebc8 0000 	rsb	r0, r8, r0
 8005972:	2340      	movs	r3, #64	; 0x40
 8005974:	4083      	lsls	r3, r0
 8005976:	4313      	orrs	r3, r2
 8005978:	9304      	str	r3, [sp, #16]
 800597a:	3401      	adds	r4, #1
 800597c:	7821      	ldrb	r1, [r4, #0]
 800597e:	4855      	ldr	r0, [pc, #340]	; (8005ad4 <_vfiprintf_r+0x1fc>)
 8005980:	f88d 1028 	strb.w	r1, [sp, #40]	; 0x28
 8005984:	2206      	movs	r2, #6
 8005986:	f104 0801 	add.w	r8, r4, #1
 800598a:	f7ff fea5 	bl	80056d8 <memchr>
 800598e:	2800      	cmp	r0, #0
 8005990:	f000 8085 	beq.w	8005a9e <_vfiprintf_r+0x1c6>
 8005994:	4b50      	ldr	r3, [pc, #320]	; (8005ad8 <_vfiprintf_r+0x200>)
 8005996:	2b00      	cmp	r3, #0
 8005998:	d178      	bne.n	8005a8c <_vfiprintf_r+0x1b4>
 800599a:	9b03      	ldr	r3, [sp, #12]
 800599c:	3307      	adds	r3, #7
 800599e:	f023 0307 	bic.w	r3, r3, #7
 80059a2:	3308      	adds	r3, #8
 80059a4:	9303      	str	r3, [sp, #12]
 80059a6:	9b09      	ldr	r3, [sp, #36]	; 0x24
 80059a8:	443b      	add	r3, r7
 80059aa:	9309      	str	r3, [sp, #36]	; 0x24
 80059ac:	4643      	mov	r3, r8
 80059ae:	461c      	mov	r4, r3
 80059b0:	f813 2b01 	ldrb.w	r2, [r3], #1
 80059b4:	b91a      	cbnz	r2, 80059be <_vfiprintf_r+0xe6>
 80059b6:	ebb4 0908 	subs.w	r9, r4, r8
 80059ba:	d00e      	beq.n	80059da <_vfiprintf_r+0x102>
 80059bc:	e002      	b.n	80059c4 <_vfiprintf_r+0xec>
 80059be:	2a25      	cmp	r2, #37	; 0x25
 80059c0:	d1f5      	bne.n	80059ae <_vfiprintf_r+0xd6>
 80059c2:	e7f8      	b.n	80059b6 <_vfiprintf_r+0xde>
 80059c4:	4630      	mov	r0, r6
 80059c6:	4629      	mov	r1, r5
 80059c8:	4642      	mov	r2, r8
 80059ca:	464b      	mov	r3, r9
 80059cc:	f7ff ff72 	bl	80058b4 <__sfputs_r>
 80059d0:	3001      	adds	r0, #1
 80059d2:	d070      	beq.n	8005ab6 <_vfiprintf_r+0x1de>
 80059d4:	9b09      	ldr	r3, [sp, #36]	; 0x24
 80059d6:	444b      	add	r3, r9
 80059d8:	9309      	str	r3, [sp, #36]	; 0x24
 80059da:	7823      	ldrb	r3, [r4, #0]
 80059dc:	2b00      	cmp	r3, #0
 80059de:	d06a      	beq.n	8005ab6 <_vfiprintf_r+0x1de>
 80059e0:	2300      	movs	r3, #0
 80059e2:	f04f 32ff 	mov.w	r2, #4294967295
 80059e6:	9304      	str	r3, [sp, #16]
 80059e8:	9307      	str	r3, [sp, #28]
 80059ea:	9205      	str	r2, [sp, #20]
 80059ec:	9306      	str	r3, [sp, #24]
 80059ee:	f88d 3053 	strb.w	r3, [sp, #83]	; 0x53
 80059f2:	931a      	str	r3, [sp, #104]	; 0x68
 80059f4:	f104 0801 	add.w	r8, r4, #1
 80059f8:	4644      	mov	r4, r8
 80059fa:	f8df 90e8 	ldr.w	r9, [pc, #232]	; 8005ae4 <_vfiprintf_r+0x20c>
 80059fe:	7821      	ldrb	r1, [r4, #0]
 8005a00:	4648      	mov	r0, r9
 8005a02:	2205      	movs	r2, #5
 8005a04:	f7ff fe68 	bl	80056d8 <memchr>
 8005a08:	f108 0801 	add.w	r8, r8, #1
 8005a0c:	9b04      	ldr	r3, [sp, #16]
 8005a0e:	b130      	cbz	r0, 8005a1e <_vfiprintf_r+0x146>
 8005a10:	ebc9 0000 	rsb	r0, r9, r0
 8005a14:	2201      	movs	r2, #1
 8005a16:	4082      	lsls	r2, r0
 8005a18:	4313      	orrs	r3, r2
 8005a1a:	9304      	str	r3, [sp, #16]
 8005a1c:	e7ec      	b.n	80059f8 <_vfiprintf_r+0x120>
 8005a1e:	06d8      	lsls	r0, r3, #27
 8005a20:	bf44      	itt	mi
 8005a22:	2220      	movmi	r2, #32
 8005a24:	f88d 2053 	strbmi.w	r2, [sp, #83]	; 0x53
 8005a28:	0719      	lsls	r1, r3, #28
 8005a2a:	bf44      	itt	mi
 8005a2c:	222b      	movmi	r2, #43	; 0x2b
 8005a2e:	f88d 2053 	strbmi.w	r2, [sp, #83]	; 0x53
 8005a32:	7822      	ldrb	r2, [r4, #0]
 8005a34:	2a2a      	cmp	r2, #42	; 0x2a
 8005a36:	d080      	beq.n	800593a <_vfiprintf_r+0x62>
 8005a38:	9907      	ldr	r1, [sp, #28]
 8005a3a:	4623      	mov	r3, r4
 8005a3c:	461c      	mov	r4, r3
 8005a3e:	3301      	adds	r3, #1
 8005a40:	7822      	ldrb	r2, [r4, #0]
 8005a42:	3a30      	subs	r2, #48	; 0x30
 8005a44:	2a09      	cmp	r2, #9
 8005a46:	d803      	bhi.n	8005a50 <_vfiprintf_r+0x178>
 8005a48:	200a      	movs	r0, #10
 8005a4a:	fb00 2101 	mla	r1, r0, r1, r2
 8005a4e:	e7f5      	b.n	8005a3c <_vfiprintf_r+0x164>
 8005a50:	9107      	str	r1, [sp, #28]
 8005a52:	e780      	b.n	8005956 <_vfiprintf_r+0x7e>
 8005a54:	7863      	ldrb	r3, [r4, #1]
 8005a56:	2b2a      	cmp	r3, #42	; 0x2a
 8005a58:	d10a      	bne.n	8005a70 <_vfiprintf_r+0x198>
 8005a5a:	9b03      	ldr	r3, [sp, #12]
 8005a5c:	1d1a      	adds	r2, r3, #4
 8005a5e:	681b      	ldr	r3, [r3, #0]
 8005a60:	9203      	str	r2, [sp, #12]
 8005a62:	2b00      	cmp	r3, #0
 8005a64:	bfb8      	it	lt
 8005a66:	f04f 33ff 	movlt.w	r3, #4294967295
 8005a6a:	3402      	adds	r4, #2
 8005a6c:	9305      	str	r3, [sp, #20]
 8005a6e:	e775      	b.n	800595c <_vfiprintf_r+0x84>
 8005a70:	1c61      	adds	r1, r4, #1
 8005a72:	2200      	movs	r2, #0
 8005a74:	460c      	mov	r4, r1
 8005a76:	3101      	adds	r1, #1
 8005a78:	7823      	ldrb	r3, [r4, #0]
 8005a7a:	3b30      	subs	r3, #48	; 0x30
 8005a7c:	2b09      	cmp	r3, #9
 8005a7e:	d803      	bhi.n	8005a88 <_vfiprintf_r+0x1b0>
 8005a80:	200a      	movs	r0, #10
 8005a82:	fb00 3202 	mla	r2, r0, r2, r3
 8005a86:	e7f5      	b.n	8005a74 <_vfiprintf_r+0x19c>
 8005a88:	9205      	str	r2, [sp, #20]
 8005a8a:	e767      	b.n	800595c <_vfiprintf_r+0x84>
 8005a8c:	ab03      	add	r3, sp, #12
 8005a8e:	9300      	str	r3, [sp, #0]
 8005a90:	4630      	mov	r0, r6
 8005a92:	a904      	add	r1, sp, #16
 8005a94:	462a      	mov	r2, r5
 8005a96:	4b11      	ldr	r3, [pc, #68]	; (8005adc <_vfiprintf_r+0x204>)
 8005a98:	f3af 8000 	nop.w
 8005a9c:	e007      	b.n	8005aae <_vfiprintf_r+0x1d6>
 8005a9e:	ab03      	add	r3, sp, #12
 8005aa0:	9300      	str	r3, [sp, #0]
 8005aa2:	4630      	mov	r0, r6
 8005aa4:	a904      	add	r1, sp, #16
 8005aa6:	462a      	mov	r2, r5
 8005aa8:	4b0c      	ldr	r3, [pc, #48]	; (8005adc <_vfiprintf_r+0x204>)
 8005aaa:	f000 f8a1 	bl	8005bf0 <_printf_i>
 8005aae:	1c42      	adds	r2, r0, #1
 8005ab0:	4607      	mov	r7, r0
 8005ab2:	f47f af78 	bne.w	80059a6 <_vfiprintf_r+0xce>
 8005ab6:	89ab      	ldrh	r3, [r5, #12]
 8005ab8:	065b      	lsls	r3, r3, #25
 8005aba:	f53f af3b 	bmi.w	8005934 <_vfiprintf_r+0x5c>
 8005abe:	9809      	ldr	r0, [sp, #36]	; 0x24
 8005ac0:	b01d      	add	sp, #116	; 0x74
 8005ac2:	e8bd 83f0 	ldmia.w	sp!, {r4, r5, r6, r7, r8, r9, pc}
 8005ac6:	bf00      	nop
 8005ac8:	080078b8 	.word	0x080078b8
 8005acc:	080078d8 	.word	0x080078d8
 8005ad0:	080078f8 	.word	0x080078f8
 8005ad4:	0800792a 	.word	0x0800792a
 8005ad8:	00000000 	.word	0x00000000
 8005adc:	080058b5 	.word	0x080058b5
 8005ae0:	08007926 	.word	0x08007926
 8005ae4:	08007920 	.word	0x08007920

08005ae8 <vfiprintf>:
 8005ae8:	b530      	push	{r4, r5, lr}
 8005aea:	4613      	mov	r3, r2
 8005aec:	4a04      	ldr	r2, [pc, #16]	; (8005b00 <vfiprintf+0x18>)
 8005aee:	4605      	mov	r5, r0
 8005af0:	460c      	mov	r4, r1
 8005af2:	6810      	ldr	r0, [r2, #0]
 8005af4:	4629      	mov	r1, r5
 8005af6:	4622      	mov	r2, r4
 8005af8:	e8bd 4030 	ldmia.w	sp!, {r4, r5, lr}
 8005afc:	f7ff beec 	b.w	80058d8 <_vfiprintf_r>
 8005b00:	20000200 	.word	0x20000200

08005b04 <_printf_common>:
 8005b04:	e92d 43f8 	stmdb	sp!, {r3, r4, r5, r6, r7, r8, r9, lr}
 8005b08:	4691      	mov	r9, r2
 8005b0a:	461f      	mov	r7, r3
 8005b0c:	688a      	ldr	r2, [r1, #8]
 8005b0e:	690b      	ldr	r3, [r1, #16]
 8005b10:	f8dd 8020 	ldr.w	r8, [sp, #32]
 8005b14:	4293      	cmp	r3, r2
 8005b16:	bfb8      	it	lt
 8005b18:	4613      	movlt	r3, r2
 8005b1a:	f8c9 3000 	str.w	r3, [r9]
 8005b1e:	f891 2043 	ldrb.w	r2, [r1, #67]	; 0x43
 8005b22:	4606      	mov	r6, r0
 8005b24:	460c      	mov	r4, r1
 8005b26:	b112      	cbz	r2, 8005b2e <_printf_common+0x2a>
 8005b28:	3301      	adds	r3, #1
 8005b2a:	f8c9 3000 	str.w	r3, [r9]
 8005b2e:	6823      	ldr	r3, [r4, #0]
 8005b30:	0699      	lsls	r1, r3, #26
 8005b32:	bf42      	ittt	mi
 8005b34:	f8d9 3000 	ldrmi.w	r3, [r9]
 8005b38:	3302      	addmi	r3, #2
 8005b3a:	f8c9 3000 	strmi.w	r3, [r9]
 8005b3e:	6825      	ldr	r5, [r4, #0]
 8005b40:	f015 0506 	ands.w	r5, r5, #6
 8005b44:	d01c      	beq.n	8005b80 <_printf_common+0x7c>
 8005b46:	f894 3043 	ldrb.w	r3, [r4, #67]	; 0x43
 8005b4a:	6822      	ldr	r2, [r4, #0]
 8005b4c:	3300      	adds	r3, #0
 8005b4e:	bf18      	it	ne
 8005b50:	2301      	movne	r3, #1
 8005b52:	0692      	lsls	r2, r2, #26
 8005b54:	d51f      	bpl.n	8005b96 <_printf_common+0x92>
 8005b56:	18e1      	adds	r1, r4, r3
 8005b58:	1c5a      	adds	r2, r3, #1
 8005b5a:	2030      	movs	r0, #48	; 0x30
 8005b5c:	f881 0043 	strb.w	r0, [r1, #67]	; 0x43
 8005b60:	4422      	add	r2, r4
 8005b62:	f894 1045 	ldrb.w	r1, [r4, #69]	; 0x45
 8005b66:	f882 1043 	strb.w	r1, [r2, #67]	; 0x43
 8005b6a:	3302      	adds	r3, #2
 8005b6c:	e013      	b.n	8005b96 <_printf_common+0x92>
 8005b6e:	4630      	mov	r0, r6
 8005b70:	4639      	mov	r1, r7
 8005b72:	f104 0219 	add.w	r2, r4, #25
 8005b76:	2301      	movs	r3, #1
 8005b78:	47c0      	blx	r8
 8005b7a:	3001      	adds	r0, #1
 8005b7c:	d007      	beq.n	8005b8e <_printf_common+0x8a>
 8005b7e:	3501      	adds	r5, #1
 8005b80:	68e3      	ldr	r3, [r4, #12]
 8005b82:	f8d9 2000 	ldr.w	r2, [r9]
 8005b86:	1a9b      	subs	r3, r3, r2
 8005b88:	429d      	cmp	r5, r3
 8005b8a:	dbf0      	blt.n	8005b6e <_printf_common+0x6a>
 8005b8c:	e7db      	b.n	8005b46 <_printf_common+0x42>
 8005b8e:	f04f 30ff 	mov.w	r0, #4294967295
 8005b92:	e8bd 83f8 	ldmia.w	sp!, {r3, r4, r5, r6, r7, r8, r9, pc}
 8005b96:	4630      	mov	r0, r6
 8005b98:	4639      	mov	r1, r7
 8005b9a:	f104 0243 	add.w	r2, r4, #67	; 0x43
 8005b9e:	47c0      	blx	r8
 8005ba0:	3001      	adds	r0, #1
 8005ba2:	d0f4      	beq.n	8005b8e <_printf_common+0x8a>
 8005ba4:	6822      	ldr	r2, [r4, #0]
 8005ba6:	f8d9 5000 	ldr.w	r5, [r9]
 8005baa:	68e3      	ldr	r3, [r4, #12]
 8005bac:	f002 0206 	and.w	r2, r2, #6
 8005bb0:	2a04      	cmp	r2, #4
 8005bb2:	bf08      	it	eq
 8005bb4:	1b5d      	subeq	r5, r3, r5
 8005bb6:	6922      	ldr	r2, [r4, #16]
 8005bb8:	68a3      	ldr	r3, [r4, #8]
 8005bba:	bf0c      	ite	eq
 8005bbc:	ea25 75e5 	biceq.w	r5, r5, r5, asr #31
 8005bc0:	2500      	movne	r5, #0
 8005bc2:	4293      	cmp	r3, r2
 8005bc4:	bfc4      	itt	gt
 8005bc6:	1a9b      	subgt	r3, r3, r2
 8005bc8:	18ed      	addgt	r5, r5, r3
 8005bca:	f04f 0900 	mov.w	r9, #0
 8005bce:	45a9      	cmp	r9, r5
 8005bd0:	da0a      	bge.n	8005be8 <_printf_common+0xe4>
 8005bd2:	4630      	mov	r0, r6
 8005bd4:	4639      	mov	r1, r7
 8005bd6:	f104 021a 	add.w	r2, r4, #26
 8005bda:	2301      	movs	r3, #1
 8005bdc:	47c0      	blx	r8
 8005bde:	3001      	adds	r0, #1
 8005be0:	d0d5      	beq.n	8005b8e <_printf_common+0x8a>
 8005be2:	f109 0901 	add.w	r9, r9, #1
 8005be6:	e7f2      	b.n	8005bce <_printf_common+0xca>
 8005be8:	2000      	movs	r0, #0
 8005bea:	e8bd 83f8 	ldmia.w	sp!, {r3, r4, r5, r6, r7, r8, r9, pc}
	...

08005bf0 <_printf_i>:
 8005bf0:	e92d 41ff 	stmdb	sp!, {r0, r1, r2, r3, r4, r5, r6, r7, r8, lr}
 8005bf4:	460c      	mov	r4, r1
 8005bf6:	4617      	mov	r7, r2
 8005bf8:	7e22      	ldrb	r2, [r4, #24]
 8005bfa:	2a6e      	cmp	r2, #110	; 0x6e
 8005bfc:	4698      	mov	r8, r3
 8005bfe:	4606      	mov	r6, r0
 8005c00:	9b0a      	ldr	r3, [sp, #40]	; 0x28
 8005c02:	f101 0143 	add.w	r1, r1, #67	; 0x43
 8005c06:	f000 80a9 	beq.w	8005d5c <_printf_i+0x16c>
 8005c0a:	d812      	bhi.n	8005c32 <_printf_i+0x42>
 8005c0c:	2a63      	cmp	r2, #99	; 0x63
 8005c0e:	d023      	beq.n	8005c58 <_printf_i+0x68>
 8005c10:	d80a      	bhi.n	8005c28 <_printf_i+0x38>
 8005c12:	2a00      	cmp	r2, #0
 8005c14:	f000 80b6 	beq.w	8005d84 <_printf_i+0x194>
 8005c18:	2a58      	cmp	r2, #88	; 0x58
 8005c1a:	f040 80c5 	bne.w	8005da8 <_printf_i+0x1b8>
 8005c1e:	f884 2045 	strb.w	r2, [r4, #69]	; 0x45
 8005c22:	f8df e1f8 	ldr.w	lr, [pc, #504]	; 8005e1c <_printf_i+0x22c>
 8005c26:	e051      	b.n	8005ccc <_printf_i+0xdc>
 8005c28:	2a64      	cmp	r2, #100	; 0x64
 8005c2a:	d01e      	beq.n	8005c6a <_printf_i+0x7a>
 8005c2c:	2a69      	cmp	r2, #105	; 0x69
 8005c2e:	d01c      	beq.n	8005c6a <_printf_i+0x7a>
 8005c30:	e0ba      	b.n	8005da8 <_printf_i+0x1b8>
 8005c32:	2a73      	cmp	r2, #115	; 0x73
 8005c34:	f000 80aa 	beq.w	8005d8c <_printf_i+0x19c>
 8005c38:	d809      	bhi.n	8005c4e <_printf_i+0x5e>
 8005c3a:	2a6f      	cmp	r2, #111	; 0x6f
 8005c3c:	d02b      	beq.n	8005c96 <_printf_i+0xa6>
 8005c3e:	2a70      	cmp	r2, #112	; 0x70
 8005c40:	f040 80b2 	bne.w	8005da8 <_printf_i+0x1b8>
 8005c44:	6822      	ldr	r2, [r4, #0]
 8005c46:	f042 0220 	orr.w	r2, r2, #32
 8005c4a:	6022      	str	r2, [r4, #0]
 8005c4c:	e039      	b.n	8005cc2 <_printf_i+0xd2>
 8005c4e:	2a75      	cmp	r2, #117	; 0x75
 8005c50:	d021      	beq.n	8005c96 <_printf_i+0xa6>
 8005c52:	2a78      	cmp	r2, #120	; 0x78
 8005c54:	d035      	beq.n	8005cc2 <_printf_i+0xd2>
 8005c56:	e0a7      	b.n	8005da8 <_printf_i+0x1b8>
 8005c58:	681a      	ldr	r2, [r3, #0]
 8005c5a:	1d11      	adds	r1, r2, #4
 8005c5c:	6019      	str	r1, [r3, #0]
 8005c5e:	6813      	ldr	r3, [r2, #0]
 8005c60:	f884 3042 	strb.w	r3, [r4, #66]	; 0x42
 8005c64:	f104 0542 	add.w	r5, r4, #66	; 0x42
 8005c68:	e0a2      	b.n	8005db0 <_printf_i+0x1c0>
 8005c6a:	6820      	ldr	r0, [r4, #0]
 8005c6c:	681a      	ldr	r2, [r3, #0]
 8005c6e:	f010 0f80 	tst.w	r0, #128	; 0x80
 8005c72:	d003      	beq.n	8005c7c <_printf_i+0x8c>
 8005c74:	1d10      	adds	r0, r2, #4
 8005c76:	6018      	str	r0, [r3, #0]
 8005c78:	6813      	ldr	r3, [r2, #0]
 8005c7a:	e005      	b.n	8005c88 <_printf_i+0x98>
 8005c7c:	0645      	lsls	r5, r0, #25
 8005c7e:	d5f9      	bpl.n	8005c74 <_printf_i+0x84>
 8005c80:	1d10      	adds	r0, r2, #4
 8005c82:	6018      	str	r0, [r3, #0]
 8005c84:	f9b2 3000 	ldrsh.w	r3, [r2]
 8005c88:	2b00      	cmp	r3, #0
 8005c8a:	da3b      	bge.n	8005d04 <_printf_i+0x114>
 8005c8c:	222d      	movs	r2, #45	; 0x2d
 8005c8e:	425b      	negs	r3, r3
 8005c90:	f884 2043 	strb.w	r2, [r4, #67]	; 0x43
 8005c94:	e036      	b.n	8005d04 <_printf_i+0x114>
 8005c96:	6820      	ldr	r0, [r4, #0]
 8005c98:	681a      	ldr	r2, [r3, #0]
 8005c9a:	f010 0f80 	tst.w	r0, #128	; 0x80
 8005c9e:	d003      	beq.n	8005ca8 <_printf_i+0xb8>
 8005ca0:	1d10      	adds	r0, r2, #4
 8005ca2:	6018      	str	r0, [r3, #0]
 8005ca4:	6813      	ldr	r3, [r2, #0]
 8005ca6:	e004      	b.n	8005cb2 <_printf_i+0xc2>
 8005ca8:	0640      	lsls	r0, r0, #25
 8005caa:	d5f9      	bpl.n	8005ca0 <_printf_i+0xb0>
 8005cac:	1d10      	adds	r0, r2, #4
 8005cae:	6018      	str	r0, [r3, #0]
 8005cb0:	8813      	ldrh	r3, [r2, #0]
 8005cb2:	7e22      	ldrb	r2, [r4, #24]
 8005cb4:	f8df e164 	ldr.w	lr, [pc, #356]	; 8005e1c <_printf_i+0x22c>
 8005cb8:	2a6f      	cmp	r2, #111	; 0x6f
 8005cba:	bf0c      	ite	eq
 8005cbc:	2208      	moveq	r2, #8
 8005cbe:	220a      	movne	r2, #10
 8005cc0:	e01c      	b.n	8005cfc <_printf_i+0x10c>
 8005cc2:	2278      	movs	r2, #120	; 0x78
 8005cc4:	f8df e158 	ldr.w	lr, [pc, #344]	; 8005e20 <_printf_i+0x230>
 8005cc8:	f884 2045 	strb.w	r2, [r4, #69]	; 0x45
 8005ccc:	6822      	ldr	r2, [r4, #0]
 8005cce:	6818      	ldr	r0, [r3, #0]
 8005cd0:	f012 0f80 	tst.w	r2, #128	; 0x80
 8005cd4:	f100 0504 	add.w	r5, r0, #4
 8005cd8:	601d      	str	r5, [r3, #0]
 8005cda:	d001      	beq.n	8005ce0 <_printf_i+0xf0>
 8005cdc:	6803      	ldr	r3, [r0, #0]
 8005cde:	e002      	b.n	8005ce6 <_printf_i+0xf6>
 8005ce0:	0655      	lsls	r5, r2, #25
 8005ce2:	d5fb      	bpl.n	8005cdc <_printf_i+0xec>
 8005ce4:	8803      	ldrh	r3, [r0, #0]
 8005ce6:	07d0      	lsls	r0, r2, #31
 8005ce8:	bf44      	itt	mi
 8005cea:	f042 0220 	orrmi.w	r2, r2, #32
 8005cee:	6022      	strmi	r2, [r4, #0]
 8005cf0:	b91b      	cbnz	r3, 8005cfa <_printf_i+0x10a>
 8005cf2:	6822      	ldr	r2, [r4, #0]
 8005cf4:	f022 0220 	bic.w	r2, r2, #32
 8005cf8:	6022      	str	r2, [r4, #0]
 8005cfa:	2210      	movs	r2, #16
 8005cfc:	2000      	movs	r0, #0
 8005cfe:	f884 0043 	strb.w	r0, [r4, #67]	; 0x43
 8005d02:	e002      	b.n	8005d0a <_printf_i+0x11a>
 8005d04:	f8df e114 	ldr.w	lr, [pc, #276]	; 8005e1c <_printf_i+0x22c>
 8005d08:	220a      	movs	r2, #10
 8005d0a:	6865      	ldr	r5, [r4, #4]
 8005d0c:	60a5      	str	r5, [r4, #8]
 8005d0e:	2d00      	cmp	r5, #0
 8005d10:	bfa2      	ittt	ge
 8005d12:	6820      	ldrge	r0, [r4, #0]
 8005d14:	f020 0004 	bicge.w	r0, r0, #4
 8005d18:	6020      	strge	r0, [r4, #0]
 8005d1a:	b903      	cbnz	r3, 8005d1e <_printf_i+0x12e>
 8005d1c:	b165      	cbz	r5, 8005d38 <_printf_i+0x148>
 8005d1e:	460d      	mov	r5, r1
 8005d20:	fbb3 f0f2 	udiv	r0, r3, r2
 8005d24:	fb02 3310 	mls	r3, r2, r0, r3
 8005d28:	f81e 3003 	ldrb.w	r3, [lr, r3]
 8005d2c:	f805 3d01 	strb.w	r3, [r5, #-1]!
 8005d30:	4603      	mov	r3, r0
 8005d32:	2800      	cmp	r0, #0
 8005d34:	d1f4      	bne.n	8005d20 <_printf_i+0x130>
 8005d36:	e000      	b.n	8005d3a <_printf_i+0x14a>
 8005d38:	460d      	mov	r5, r1
 8005d3a:	2a08      	cmp	r2, #8
 8005d3c:	d10b      	bne.n	8005d56 <_printf_i+0x166>
 8005d3e:	6823      	ldr	r3, [r4, #0]
 8005d40:	07da      	lsls	r2, r3, #31
 8005d42:	d508      	bpl.n	8005d56 <_printf_i+0x166>
 8005d44:	6923      	ldr	r3, [r4, #16]
 8005d46:	6862      	ldr	r2, [r4, #4]
 8005d48:	429a      	cmp	r2, r3
 8005d4a:	bfde      	ittt	le
 8005d4c:	2330      	movle	r3, #48	; 0x30
 8005d4e:	f805 3c01 	strble.w	r3, [r5, #-1]
 8005d52:	f105 35ff 	addle.w	r5, r5, #4294967295
 8005d56:	1b49      	subs	r1, r1, r5
 8005d58:	6121      	str	r1, [r4, #16]
 8005d5a:	e02e      	b.n	8005dba <_printf_i+0x1ca>
 8005d5c:	6825      	ldr	r5, [r4, #0]
 8005d5e:	681a      	ldr	r2, [r3, #0]
 8005d60:	6960      	ldr	r0, [r4, #20]
 8005d62:	f015 0f80 	tst.w	r5, #128	; 0x80
 8005d66:	d003      	beq.n	8005d70 <_printf_i+0x180>
 8005d68:	1d15      	adds	r5, r2, #4
 8005d6a:	601d      	str	r5, [r3, #0]
 8005d6c:	6813      	ldr	r3, [r2, #0]
 8005d6e:	e008      	b.n	8005d82 <_printf_i+0x192>
 8005d70:	f015 0f40 	tst.w	r5, #64	; 0x40
 8005d74:	f102 0504 	add.w	r5, r2, #4
 8005d78:	601d      	str	r5, [r3, #0]
 8005d7a:	6813      	ldr	r3, [r2, #0]
 8005d7c:	d001      	beq.n	8005d82 <_printf_i+0x192>
 8005d7e:	8018      	strh	r0, [r3, #0]
 8005d80:	e000      	b.n	8005d84 <_printf_i+0x194>
 8005d82:	6018      	str	r0, [r3, #0]
 8005d84:	2300      	movs	r3, #0
 8005d86:	6123      	str	r3, [r4, #16]
 8005d88:	460d      	mov	r5, r1
 8005d8a:	e016      	b.n	8005dba <_printf_i+0x1ca>
 8005d8c:	681a      	ldr	r2, [r3, #0]
 8005d8e:	1d11      	adds	r1, r2, #4
 8005d90:	6019      	str	r1, [r3, #0]
 8005d92:	6815      	ldr	r5, [r2, #0]
 8005d94:	6862      	ldr	r2, [r4, #4]
 8005d96:	4628      	mov	r0, r5
 8005d98:	2100      	movs	r1, #0
 8005d9a:	f7ff fc9d 	bl	80056d8 <memchr>
 8005d9e:	b108      	cbz	r0, 8005da4 <_printf_i+0x1b4>
 8005da0:	1b40      	subs	r0, r0, r5
 8005da2:	6060      	str	r0, [r4, #4]
 8005da4:	6863      	ldr	r3, [r4, #4]
 8005da6:	e004      	b.n	8005db2 <_printf_i+0x1c2>
 8005da8:	f104 0542 	add.w	r5, r4, #66	; 0x42
 8005dac:	f884 2042 	strb.w	r2, [r4, #66]	; 0x42
 8005db0:	2301      	movs	r3, #1
 8005db2:	6123      	str	r3, [r4, #16]
 8005db4:	2300      	movs	r3, #0
 8005db6:	f884 3043 	strb.w	r3, [r4, #67]	; 0x43
 8005dba:	f8cd 8000 	str.w	r8, [sp]
 8005dbe:	4630      	mov	r0, r6
 8005dc0:	4621      	mov	r1, r4
 8005dc2:	aa03      	add	r2, sp, #12
 8005dc4:	463b      	mov	r3, r7
 8005dc6:	f7ff fe9d 	bl	8005b04 <_printf_common>
 8005dca:	3001      	adds	r0, #1
 8005dcc:	d102      	bne.n	8005dd4 <_printf_i+0x1e4>
 8005dce:	f04f 30ff 	mov.w	r0, #4294967295
 8005dd2:	e01f      	b.n	8005e14 <_printf_i+0x224>
 8005dd4:	4630      	mov	r0, r6
 8005dd6:	4639      	mov	r1, r7
 8005dd8:	462a      	mov	r2, r5
 8005dda:	6923      	ldr	r3, [r4, #16]
 8005ddc:	47c0      	blx	r8
 8005dde:	3001      	adds	r0, #1
 8005de0:	d0f5      	beq.n	8005dce <_printf_i+0x1de>
 8005de2:	6823      	ldr	r3, [r4, #0]
 8005de4:	079b      	lsls	r3, r3, #30
 8005de6:	d405      	bmi.n	8005df4 <_printf_i+0x204>
 8005de8:	68e0      	ldr	r0, [r4, #12]
 8005dea:	9b03      	ldr	r3, [sp, #12]
 8005dec:	4298      	cmp	r0, r3
 8005dee:	bfb8      	it	lt
 8005df0:	4618      	movlt	r0, r3
 8005df2:	e00f      	b.n	8005e14 <_printf_i+0x224>
 8005df4:	2500      	movs	r5, #0
 8005df6:	68e3      	ldr	r3, [r4, #12]
 8005df8:	9a03      	ldr	r2, [sp, #12]
 8005dfa:	1a9b      	subs	r3, r3, r2
 8005dfc:	429d      	cmp	r5, r3
 8005dfe:	daf3      	bge.n	8005de8 <_printf_i+0x1f8>
 8005e00:	4630      	mov	r0, r6
 8005e02:	4639      	mov	r1, r7
 8005e04:	f104 0219 	add.w	r2, r4, #25
 8005e08:	2301      	movs	r3, #1
 8005e0a:	47c0      	blx	r8
 8005e0c:	3001      	adds	r0, #1
 8005e0e:	d0de      	beq.n	8005dce <_printf_i+0x1de>
 8005e10:	3501      	adds	r5, #1
 8005e12:	e7f0      	b.n	8005df6 <_printf_i+0x206>
 8005e14:	b004      	add	sp, #16
 8005e16:	e8bd 81f0 	ldmia.w	sp!, {r4, r5, r6, r7, r8, pc}
 8005e1a:	bf00      	nop
 8005e1c:	08007931 	.word	0x08007931
 8005e20:	08007942 	.word	0x08007942

08005e24 <_scanf_chars>:
 8005e24:	e92d 41f0 	stmdb	sp!, {r4, r5, r6, r7, r8, lr}
 8005e28:	4615      	mov	r5, r2
 8005e2a:	688a      	ldr	r2, [r1, #8]
 8005e2c:	4680      	mov	r8, r0
 8005e2e:	460c      	mov	r4, r1
 8005e30:	b932      	cbnz	r2, 8005e40 <_scanf_chars+0x1c>
 8005e32:	698a      	ldr	r2, [r1, #24]
 8005e34:	2a00      	cmp	r2, #0
 8005e36:	bf0c      	ite	eq
 8005e38:	2201      	moveq	r2, #1
 8005e3a:	f04f 32ff 	movne.w	r2, #4294967295
 8005e3e:	608a      	str	r2, [r1, #8]
 8005e40:	6822      	ldr	r2, [r4, #0]
 8005e42:	06d1      	lsls	r1, r2, #27
 8005e44:	bf5f      	itttt	pl
 8005e46:	681a      	ldrpl	r2, [r3, #0]
 8005e48:	1d11      	addpl	r1, r2, #4
 8005e4a:	6019      	strpl	r1, [r3, #0]
 8005e4c:	6817      	ldrpl	r7, [r2, #0]
 8005e4e:	2600      	movs	r6, #0
 8005e50:	69a0      	ldr	r0, [r4, #24]
 8005e52:	bb00      	cbnz	r0, 8005e96 <_scanf_chars+0x72>
 8005e54:	6823      	ldr	r3, [r4, #0]
 8005e56:	06da      	lsls	r2, r3, #27
 8005e58:	bf5e      	ittt	pl
 8005e5a:	682b      	ldrpl	r3, [r5, #0]
 8005e5c:	781b      	ldrbpl	r3, [r3, #0]
 8005e5e:	703b      	strbpl	r3, [r7, #0]
 8005e60:	682a      	ldr	r2, [r5, #0]
 8005e62:	686b      	ldr	r3, [r5, #4]
 8005e64:	f102 0201 	add.w	r2, r2, #1
 8005e68:	602a      	str	r2, [r5, #0]
 8005e6a:	68a2      	ldr	r2, [r4, #8]
 8005e6c:	f103 33ff 	add.w	r3, r3, #4294967295
 8005e70:	f102 32ff 	add.w	r2, r2, #4294967295
 8005e74:	606b      	str	r3, [r5, #4]
 8005e76:	f106 0601 	add.w	r6, r6, #1
 8005e7a:	bf58      	it	pl
 8005e7c:	3701      	addpl	r7, #1
 8005e7e:	60a2      	str	r2, [r4, #8]
 8005e80:	b1ea      	cbz	r2, 8005ebe <_scanf_chars+0x9a>
 8005e82:	2b00      	cmp	r3, #0
 8005e84:	dce4      	bgt.n	8005e50 <_scanf_chars+0x2c>
 8005e86:	f8d4 3180 	ldr.w	r3, [r4, #384]	; 0x180
 8005e8a:	4640      	mov	r0, r8
 8005e8c:	4629      	mov	r1, r5
 8005e8e:	4798      	blx	r3
 8005e90:	2800      	cmp	r0, #0
 8005e92:	d0dd      	beq.n	8005e50 <_scanf_chars+0x2c>
 8005e94:	e013      	b.n	8005ebe <_scanf_chars+0x9a>
 8005e96:	2801      	cmp	r0, #1
 8005e98:	d107      	bne.n	8005eaa <_scanf_chars+0x86>
 8005e9a:	682b      	ldr	r3, [r5, #0]
 8005e9c:	6962      	ldr	r2, [r4, #20]
 8005e9e:	781b      	ldrb	r3, [r3, #0]
 8005ea0:	5cd3      	ldrb	r3, [r2, r3]
 8005ea2:	2b00      	cmp	r3, #0
 8005ea4:	d1d6      	bne.n	8005e54 <_scanf_chars+0x30>
 8005ea6:	b1c6      	cbz	r6, 8005eda <_scanf_chars+0xb6>
 8005ea8:	e009      	b.n	8005ebe <_scanf_chars+0x9a>
 8005eaa:	2802      	cmp	r0, #2
 8005eac:	d107      	bne.n	8005ebe <_scanf_chars+0x9a>
 8005eae:	682b      	ldr	r3, [r5, #0]
 8005eb0:	4a0b      	ldr	r2, [pc, #44]	; (8005ee0 <_scanf_chars+0xbc>)
 8005eb2:	781b      	ldrb	r3, [r3, #0]
 8005eb4:	6812      	ldr	r2, [r2, #0]
 8005eb6:	4413      	add	r3, r2
 8005eb8:	785b      	ldrb	r3, [r3, #1]
 8005eba:	071b      	lsls	r3, r3, #28
 8005ebc:	d5ca      	bpl.n	8005e54 <_scanf_chars+0x30>
 8005ebe:	6823      	ldr	r3, [r4, #0]
 8005ec0:	f013 0310 	ands.w	r3, r3, #16
 8005ec4:	d105      	bne.n	8005ed2 <_scanf_chars+0xae>
 8005ec6:	68e2      	ldr	r2, [r4, #12]
 8005ec8:	3201      	adds	r2, #1
 8005eca:	60e2      	str	r2, [r4, #12]
 8005ecc:	69a2      	ldr	r2, [r4, #24]
 8005ece:	b102      	cbz	r2, 8005ed2 <_scanf_chars+0xae>
 8005ed0:	703b      	strb	r3, [r7, #0]
 8005ed2:	6923      	ldr	r3, [r4, #16]
 8005ed4:	441e      	add	r6, r3
 8005ed6:	6126      	str	r6, [r4, #16]
 8005ed8:	2000      	movs	r0, #0
 8005eda:	e8bd 81f0 	ldmia.w	sp!, {r4, r5, r6, r7, r8, pc}
 8005ede:	bf00      	nop
 8005ee0:	20000204 	.word	0x20000204

08005ee4 <_scanf_i>:
 8005ee4:	e92d 4ff0 	stmdb	sp!, {r4, r5, r6, r7, r8, r9, r10, r11, lr}
 8005ee8:	469a      	mov	r10, r3
 8005eea:	4b73      	ldr	r3, [pc, #460]	; (80060b8 <_scanf_i+0x1d4>)
 8005eec:	460c      	mov	r4, r1
 8005eee:	4683      	mov	r11, r0
 8005ef0:	4616      	mov	r6, r2
 8005ef2:	e893 0007 	ldmia.w	r3, {r0, r1, r2}
 8005ef6:	b087      	sub	sp, #28
 8005ef8:	ab03      	add	r3, sp, #12
 8005efa:	e883 0007 	stmia.w	r3, {r0, r1, r2}
 8005efe:	4b6f      	ldr	r3, [pc, #444]	; (80060bc <_scanf_i+0x1d8>)
 8005f00:	69a1      	ldr	r1, [r4, #24]
 8005f02:	4a6f      	ldr	r2, [pc, #444]	; (80060c0 <_scanf_i+0x1dc>)
 8005f04:	2903      	cmp	r1, #3
 8005f06:	bf18      	it	ne
 8005f08:	461a      	movne	r2, r3
 8005f0a:	68a3      	ldr	r3, [r4, #8]
 8005f0c:	9200      	str	r2, [sp, #0]
 8005f0e:	1e5a      	subs	r2, r3, #1
 8005f10:	f5b2 7fae 	cmp.w	r2, #348	; 0x15c
 8005f14:	bf81      	itttt	hi
 8005f16:	f46f 75ae 	mvnhi.w	r5, #348	; 0x15c
 8005f1a:	eb03 0805 	addhi.w	r8, r3, r5
 8005f1e:	f240 135d 	movwhi	r3, #349	; 0x15d
 8005f22:	60a3      	strhi	r3, [r4, #8]
 8005f24:	6823      	ldr	r3, [r4, #0]
 8005f26:	f104 091c 	add.w	r9, r4, #28
 8005f2a:	f443 6350 	orr.w	r3, r3, #3328	; 0xd00
 8005f2e:	6023      	str	r3, [r4, #0]
 8005f30:	bf98      	it	ls
 8005f32:	f04f 0800 	movls.w	r8, #0
 8005f36:	464f      	mov	r7, r9
 8005f38:	2300      	movs	r3, #0
 8005f3a:	6832      	ldr	r2, [r6, #0]
 8005f3c:	9301      	str	r3, [sp, #4]
 8005f3e:	a903      	add	r1, sp, #12
 8005f40:	f851 0023 	ldr.w	r0, [r1, r3, lsl #2]
 8005f44:	7811      	ldrb	r1, [r2, #0]
 8005f46:	2202      	movs	r2, #2
 8005f48:	f7ff fbc6 	bl	80056d8 <memchr>
 8005f4c:	9b01      	ldr	r3, [sp, #4]
 8005f4e:	2800      	cmp	r0, #0
 8005f50:	d036      	beq.n	8005fc0 <_scanf_i+0xdc>
 8005f52:	2b01      	cmp	r3, #1
 8005f54:	d10b      	bne.n	8005f6e <_scanf_i+0x8a>
 8005f56:	6862      	ldr	r2, [r4, #4]
 8005f58:	b92a      	cbnz	r2, 8005f66 <_scanf_i+0x82>
 8005f5a:	2208      	movs	r2, #8
 8005f5c:	6062      	str	r2, [r4, #4]
 8005f5e:	6822      	ldr	r2, [r4, #0]
 8005f60:	f442 7200 	orr.w	r2, r2, #512	; 0x200
 8005f64:	6022      	str	r2, [r4, #0]
 8005f66:	6822      	ldr	r2, [r4, #0]
 8005f68:	f422 62a0 	bic.w	r2, r2, #1280	; 0x500
 8005f6c:	e00b      	b.n	8005f86 <_scanf_i+0xa2>
 8005f6e:	2b02      	cmp	r3, #2
 8005f70:	d10a      	bne.n	8005f88 <_scanf_i+0xa4>
 8005f72:	6822      	ldr	r2, [r4, #0]
 8005f74:	f402 61c0 	and.w	r1, r2, #1536	; 0x600
 8005f78:	f5b1 7f00 	cmp.w	r1, #512	; 0x200
 8005f7c:	d120      	bne.n	8005fc0 <_scanf_i+0xdc>
 8005f7e:	2110      	movs	r1, #16
 8005f80:	6061      	str	r1, [r4, #4]
 8005f82:	f442 7280 	orr.w	r2, r2, #256	; 0x100
 8005f86:	6022      	str	r2, [r4, #0]
 8005f88:	68a2      	ldr	r2, [r4, #8]
 8005f8a:	1e51      	subs	r1, r2, #1
 8005f8c:	60a1      	str	r1, [r4, #8]
 8005f8e:	b1ba      	cbz	r2, 8005fc0 <_scanf_i+0xdc>
 8005f90:	6832      	ldr	r2, [r6, #0]
 8005f92:	1c51      	adds	r1, r2, #1
 8005f94:	6031      	str	r1, [r6, #0]
 8005f96:	7812      	ldrb	r2, [r2, #0]
 8005f98:	703a      	strb	r2, [r7, #0]
 8005f9a:	6872      	ldr	r2, [r6, #4]
 8005f9c:	3a01      	subs	r2, #1
 8005f9e:	2a00      	cmp	r2, #0
 8005fa0:	f107 0501 	add.w	r5, r7, #1
 8005fa4:	6072      	str	r2, [r6, #4]
 8005fa6:	dc0a      	bgt.n	8005fbe <_scanf_i+0xda>
 8005fa8:	f8d4 2180 	ldr.w	r2, [r4, #384]	; 0x180
 8005fac:	9301      	str	r3, [sp, #4]
 8005fae:	4658      	mov	r0, r11
 8005fb0:	4631      	mov	r1, r6
 8005fb2:	4790      	blx	r2
 8005fb4:	2800      	cmp	r0, #0
 8005fb6:	d140      	bne.n	800603a <_scanf_i+0x156>
 8005fb8:	462f      	mov	r7, r5
 8005fba:	9b01      	ldr	r3, [sp, #4]
 8005fbc:	e000      	b.n	8005fc0 <_scanf_i+0xdc>
 8005fbe:	462f      	mov	r7, r5
 8005fc0:	3301      	adds	r3, #1
 8005fc2:	2b03      	cmp	r3, #3
 8005fc4:	d1b9      	bne.n	8005f3a <_scanf_i+0x56>
 8005fc6:	6863      	ldr	r3, [r4, #4]
 8005fc8:	b90b      	cbnz	r3, 8005fce <_scanf_i+0xea>
 8005fca:	230a      	movs	r3, #10
 8005fcc:	6063      	str	r3, [r4, #4]
 8005fce:	6863      	ldr	r3, [r4, #4]
 8005fd0:	493c      	ldr	r1, [pc, #240]	; (80060c4 <_scanf_i+0x1e0>)
 8005fd2:	6960      	ldr	r0, [r4, #20]
 8005fd4:	1ac9      	subs	r1, r1, r3
 8005fd6:	f000 f899 	bl	800610c <__sccl>
 8005fda:	463d      	mov	r5, r7
 8005fdc:	2700      	movs	r7, #0
 8005fde:	68a3      	ldr	r3, [r4, #8]
 8005fe0:	b363      	cbz	r3, 800603c <_scanf_i+0x158>
 8005fe2:	6831      	ldr	r1, [r6, #0]
 8005fe4:	6960      	ldr	r0, [r4, #20]
 8005fe6:	780a      	ldrb	r2, [r1, #0]
 8005fe8:	5c80      	ldrb	r0, [r0, r2]
 8005fea:	b338      	cbz	r0, 800603c <_scanf_i+0x158>
 8005fec:	2a30      	cmp	r2, #48	; 0x30
 8005fee:	6822      	ldr	r2, [r4, #0]
 8005ff0:	d10a      	bne.n	8006008 <_scanf_i+0x124>
 8005ff2:	0510      	lsls	r0, r2, #20
 8005ff4:	d508      	bpl.n	8006008 <_scanf_i+0x124>
 8005ff6:	3701      	adds	r7, #1
 8005ff8:	f1b8 0f00 	cmp.w	r8, #0
 8005ffc:	d00a      	beq.n	8006014 <_scanf_i+0x130>
 8005ffe:	3301      	adds	r3, #1
 8006000:	f108 38ff 	add.w	r8, r8, #4294967295
 8006004:	60a3      	str	r3, [r4, #8]
 8006006:	e005      	b.n	8006014 <_scanf_i+0x130>
 8006008:	f422 6210 	bic.w	r2, r2, #2304	; 0x900
 800600c:	6022      	str	r2, [r4, #0]
 800600e:	780b      	ldrb	r3, [r1, #0]
 8006010:	702b      	strb	r3, [r5, #0]
 8006012:	3501      	adds	r5, #1
 8006014:	6873      	ldr	r3, [r6, #4]
 8006016:	3b01      	subs	r3, #1
 8006018:	2b00      	cmp	r3, #0
 800601a:	6073      	str	r3, [r6, #4]
 800601c:	dd03      	ble.n	8006026 <_scanf_i+0x142>
 800601e:	6833      	ldr	r3, [r6, #0]
 8006020:	3301      	adds	r3, #1
 8006022:	6033      	str	r3, [r6, #0]
 8006024:	e005      	b.n	8006032 <_scanf_i+0x14e>
 8006026:	f8d4 3180 	ldr.w	r3, [r4, #384]	; 0x180
 800602a:	4658      	mov	r0, r11
 800602c:	4631      	mov	r1, r6
 800602e:	4798      	blx	r3
 8006030:	b920      	cbnz	r0, 800603c <_scanf_i+0x158>
 8006032:	68a3      	ldr	r3, [r4, #8]
 8006034:	3b01      	subs	r3, #1
 8006036:	60a3      	str	r3, [r4, #8]
 8006038:	e7d1      	b.n	8005fde <_scanf_i+0xfa>
 800603a:	2700      	movs	r7, #0
 800603c:	6823      	ldr	r3, [r4, #0]
 800603e:	05d9      	lsls	r1, r3, #23
 8006040:	d50d      	bpl.n	800605e <_scanf_i+0x17a>
 8006042:	454d      	cmp	r5, r9
 8006044:	d909      	bls.n	800605a <_scanf_i+0x176>
 8006046:	f815 1c01 	ldrb.w	r1, [r5, #-1]
 800604a:	f8d4 317c 	ldr.w	r3, [r4, #380]	; 0x17c
 800604e:	4658      	mov	r0, r11
 8006050:	4632      	mov	r2, r6
 8006052:	4798      	blx	r3
 8006054:	f105 38ff 	add.w	r8, r5, #4294967295
 8006058:	4645      	mov	r5, r8
 800605a:	454d      	cmp	r5, r9
 800605c:	d027      	beq.n	80060ae <_scanf_i+0x1ca>
 800605e:	6822      	ldr	r2, [r4, #0]
 8006060:	f012 0210 	ands.w	r2, r2, #16
 8006064:	d11b      	bne.n	800609e <_scanf_i+0x1ba>
 8006066:	702a      	strb	r2, [r5, #0]
 8006068:	6863      	ldr	r3, [r4, #4]
 800606a:	9e00      	ldr	r6, [sp, #0]
 800606c:	4658      	mov	r0, r11
 800606e:	4649      	mov	r1, r9
 8006070:	47b0      	blx	r6
 8006072:	6822      	ldr	r2, [r4, #0]
 8006074:	f8da 3000 	ldr.w	r3, [r10]
 8006078:	f012 0f20 	tst.w	r2, #32
 800607c:	d107      	bne.n	800608e <_scanf_i+0x1aa>
 800607e:	07d2      	lsls	r2, r2, #31
 8006080:	d505      	bpl.n	800608e <_scanf_i+0x1aa>
 8006082:	1d1a      	adds	r2, r3, #4
 8006084:	f8ca 2000 	str.w	r2, [r10]
 8006088:	681b      	ldr	r3, [r3, #0]
 800608a:	8018      	strh	r0, [r3, #0]
 800608c:	e004      	b.n	8006098 <_scanf_i+0x1b4>
 800608e:	1d1a      	adds	r2, r3, #4
 8006090:	f8ca 2000 	str.w	r2, [r10]
 8006094:	681b      	ldr	r3, [r3, #0]
 8006096:	6018      	str	r0, [r3, #0]
 8006098:	68e3      	ldr	r3, [r4, #12]
 800609a:	3301      	adds	r3, #1
 800609c:	60e3      	str	r3, [r4, #12]
 800609e:	ebc9 0505 	rsb	r5, r9, r5
 80060a2:	443d      	add	r5, r7
 80060a4:	6927      	ldr	r7, [r4, #16]
 80060a6:	443d      	add	r5, r7
 80060a8:	6125      	str	r5, [r4, #16]
 80060aa:	2000      	movs	r0, #0
 80060ac:	e000      	b.n	80060b0 <_scanf_i+0x1cc>
 80060ae:	2001      	movs	r0, #1
 80060b0:	b007      	add	sp, #28
 80060b2:	e8bd 8ff0 	ldmia.w	sp!, {r4, r5, r6, r7, r8, r9, r10, r11, pc}
 80060b6:	bf00      	nop
 80060b8:	08007954 	.word	0x08007954
 80060bc:	0800651d 	.word	0x0800651d
 80060c0:	08006411 	.word	0x08006411
 80060c4:	08007970 	.word	0x08007970

080060c8 <_open_r>:
 80060c8:	b538      	push	{r3, r4, r5, lr}
 80060ca:	4c07      	ldr	r4, [pc, #28]	; (80060e8 <_open_r+0x20>)
 80060cc:	4605      	mov	r5, r0
 80060ce:	2000      	movs	r0, #0
 80060d0:	6020      	str	r0, [r4, #0]
 80060d2:	4608      	mov	r0, r1
 80060d4:	4611      	mov	r1, r2
 80060d6:	461a      	mov	r2, r3
 80060d8:	f7fe fb6a 	bl	80047b0 <_open>
 80060dc:	1c43      	adds	r3, r0, #1
 80060de:	d102      	bne.n	80060e6 <_open_r+0x1e>
 80060e0:	6823      	ldr	r3, [r4, #0]
 80060e2:	b103      	cbz	r3, 80060e6 <_open_r+0x1e>
 80060e4:	602b      	str	r3, [r5, #0]
 80060e6:	bd38      	pop	{r3, r4, r5, pc}
 80060e8:	20000660 	.word	0x20000660

080060ec <_sbrk_r>:
 80060ec:	b538      	push	{r3, r4, r5, lr}
 80060ee:	4c06      	ldr	r4, [pc, #24]	; (8006108 <_sbrk_r+0x1c>)
 80060f0:	2300      	movs	r3, #0
 80060f2:	4605      	mov	r5, r0
 80060f4:	4608      	mov	r0, r1
 80060f6:	6023      	str	r3, [r4, #0]
 80060f8:	f7fe fd12 	bl	8004b20 <_sbrk>
 80060fc:	1c43      	adds	r3, r0, #1
 80060fe:	d102      	bne.n	8006106 <_sbrk_r+0x1a>
 8006100:	6823      	ldr	r3, [r4, #0]
 8006102:	b103      	cbz	r3, 8006106 <_sbrk_r+0x1a>
 8006104:	602b      	str	r3, [r5, #0]
 8006106:	bd38      	pop	{r3, r4, r5, pc}
 8006108:	20000660 	.word	0x20000660

0800610c <__sccl>:
 800610c:	b5f0      	push	{r4, r5, r6, r7, lr}
 800610e:	780a      	ldrb	r2, [r1, #0]
 8006110:	2a5e      	cmp	r2, #94	; 0x5e
 8006112:	bf13      	iteet	ne
 8006114:	1c4b      	addne	r3, r1, #1
 8006116:	1c8b      	addeq	r3, r1, #2
 8006118:	784a      	ldrbeq	r2, [r1, #1]
 800611a:	2100      	movne	r1, #0
 800611c:	bf08      	it	eq
 800611e:	2101      	moveq	r1, #1
 8006120:	1e44      	subs	r4, r0, #1
 8006122:	f100 05ff 	add.w	r5, r0, #255	; 0xff
 8006126:	f804 1f01 	strb.w	r1, [r4, #1]!
 800612a:	42ac      	cmp	r4, r5
 800612c:	d1fb      	bne.n	8006126 <__sccl+0x1a>
 800612e:	b90a      	cbnz	r2, 8006134 <__sccl+0x28>
 8006130:	1e58      	subs	r0, r3, #1
 8006132:	bdf0      	pop	{r4, r5, r6, r7, pc}
 8006134:	f1c1 0401 	rsb	r4, r1, #1
 8006138:	b2e7      	uxtb	r7, r4
 800613a:	5487      	strb	r7, [r0, r2]
 800613c:	7819      	ldrb	r1, [r3, #0]
 800613e:	292d      	cmp	r1, #45	; 0x2d
 8006140:	f103 0601 	add.w	r6, r3, #1
 8006144:	d005      	beq.n	8006152 <__sccl+0x46>
 8006146:	295d      	cmp	r1, #93	; 0x5d
 8006148:	d00e      	beq.n	8006168 <__sccl+0x5c>
 800614a:	b179      	cbz	r1, 800616c <__sccl+0x60>
 800614c:	460a      	mov	r2, r1
 800614e:	4633      	mov	r3, r6
 8006150:	e7f2      	b.n	8006138 <__sccl+0x2c>
 8006152:	785d      	ldrb	r5, [r3, #1]
 8006154:	2d5d      	cmp	r5, #93	; 0x5d
 8006156:	d0f9      	beq.n	800614c <__sccl+0x40>
 8006158:	4295      	cmp	r5, r2
 800615a:	dbf7      	blt.n	800614c <__sccl+0x40>
 800615c:	3302      	adds	r3, #2
 800615e:	3201      	adds	r2, #1
 8006160:	42aa      	cmp	r2, r5
 8006162:	5487      	strb	r7, [r0, r2]
 8006164:	dbfb      	blt.n	800615e <__sccl+0x52>
 8006166:	e7e9      	b.n	800613c <__sccl+0x30>
 8006168:	4630      	mov	r0, r6
 800616a:	bdf0      	pop	{r4, r5, r6, r7, pc}
 800616c:	4618      	mov	r0, r3
 800616e:	bdf0      	pop	{r4, r5, r6, r7, pc}

08006170 <setbuf>:
 8006170:	2900      	cmp	r1, #0
 8006172:	bf0c      	ite	eq
 8006174:	2202      	moveq	r2, #2
 8006176:	2200      	movne	r2, #0
 8006178:	f44f 6380 	mov.w	r3, #1024	; 0x400
 800617c:	f000 b800 	b.w	8006180 <setvbuf>

08006180 <setvbuf>:
 8006180:	e92d 41f0 	stmdb	sp!, {r4, r5, r6, r7, r8, lr}
 8006184:	461d      	mov	r5, r3
 8006186:	4b3d      	ldr	r3, [pc, #244]	; (800627c <setvbuf+0xfc>)
 8006188:	681e      	ldr	r6, [r3, #0]
 800618a:	4604      	mov	r4, r0
 800618c:	460f      	mov	r7, r1
 800618e:	4690      	mov	r8, r2
 8006190:	b126      	cbz	r6, 800619c <setvbuf+0x1c>
 8006192:	69b3      	ldr	r3, [r6, #24]
 8006194:	b913      	cbnz	r3, 800619c <setvbuf+0x1c>
 8006196:	4630      	mov	r0, r6
 8006198:	f7ff f8a6 	bl	80052e8 <__sinit>
 800619c:	4b38      	ldr	r3, [pc, #224]	; (8006280 <setvbuf+0x100>)
 800619e:	429c      	cmp	r4, r3
 80061a0:	d101      	bne.n	80061a6 <setvbuf+0x26>
 80061a2:	6874      	ldr	r4, [r6, #4]
 80061a4:	e008      	b.n	80061b8 <setvbuf+0x38>
 80061a6:	4b37      	ldr	r3, [pc, #220]	; (8006284 <setvbuf+0x104>)
 80061a8:	429c      	cmp	r4, r3
 80061aa:	d101      	bne.n	80061b0 <setvbuf+0x30>
 80061ac:	68b4      	ldr	r4, [r6, #8]
 80061ae:	e003      	b.n	80061b8 <setvbuf+0x38>
 80061b0:	4b35      	ldr	r3, [pc, #212]	; (8006288 <setvbuf+0x108>)
 80061b2:	429c      	cmp	r4, r3
 80061b4:	bf08      	it	eq
 80061b6:	68f4      	ldreq	r4, [r6, #12]
 80061b8:	f1b8 0f02 	cmp.w	r8, #2
 80061bc:	d85a      	bhi.n	8006274 <setvbuf+0xf4>
 80061be:	2d00      	cmp	r5, #0
 80061c0:	db58      	blt.n	8006274 <setvbuf+0xf4>
 80061c2:	4630      	mov	r0, r6
 80061c4:	4621      	mov	r1, r4
 80061c6:	f7ff f813 	bl	80051f0 <_fflush_r>
 80061ca:	2300      	movs	r3, #0
 80061cc:	6063      	str	r3, [r4, #4]
 80061ce:	61a3      	str	r3, [r4, #24]
 80061d0:	89a3      	ldrh	r3, [r4, #12]
 80061d2:	061b      	lsls	r3, r3, #24
 80061d4:	d503      	bpl.n	80061de <setvbuf+0x5e>
 80061d6:	4630      	mov	r0, r6
 80061d8:	6921      	ldr	r1, [r4, #16]
 80061da:	f7ff fabb 	bl	8005754 <_free_r>
 80061de:	89a3      	ldrh	r3, [r4, #12]
 80061e0:	f1b8 0f02 	cmp.w	r8, #2
 80061e4:	f023 0383 	bic.w	r3, r3, #131	; 0x83
 80061e8:	81a3      	strh	r3, [r4, #12]
 80061ea:	d012      	beq.n	8006212 <setvbuf+0x92>
 80061ec:	bb37      	cbnz	r7, 800623c <setvbuf+0xbc>
 80061ee:	2d00      	cmp	r5, #0
 80061f0:	bf08      	it	eq
 80061f2:	f44f 6580 	moveq.w	r5, #1024	; 0x400
 80061f6:	4628      	mov	r0, r5
 80061f8:	f7fb fe7a 	bl	8001ef0 <__wrap_malloc>
 80061fc:	4607      	mov	r7, r0
 80061fe:	b9c8      	cbnz	r0, 8006234 <setvbuf+0xb4>
 8006200:	f44f 6080 	mov.w	r0, #1024	; 0x400
 8006204:	f7fb fe74 	bl	8001ef0 <__wrap_malloc>
 8006208:	4607      	mov	r7, r0
 800620a:	b988      	cbnz	r0, 8006230 <setvbuf+0xb0>
 800620c:	f04f 30ff 	mov.w	r0, #4294967295
 8006210:	e000      	b.n	8006214 <setvbuf+0x94>
 8006212:	2000      	movs	r0, #0
 8006214:	89a3      	ldrh	r3, [r4, #12]
 8006216:	f043 0302 	orr.w	r3, r3, #2
 800621a:	81a3      	strh	r3, [r4, #12]
 800621c:	2300      	movs	r3, #0
 800621e:	60a3      	str	r3, [r4, #8]
 8006220:	f104 0347 	add.w	r3, r4, #71	; 0x47
 8006224:	6023      	str	r3, [r4, #0]
 8006226:	6123      	str	r3, [r4, #16]
 8006228:	2301      	movs	r3, #1
 800622a:	6163      	str	r3, [r4, #20]
 800622c:	e8bd 81f0 	ldmia.w	sp!, {r4, r5, r6, r7, r8, pc}
 8006230:	f44f 6580 	mov.w	r5, #1024	; 0x400
 8006234:	89a3      	ldrh	r3, [r4, #12]
 8006236:	f043 0380 	orr.w	r3, r3, #128	; 0x80
 800623a:	81a3      	strh	r3, [r4, #12]
 800623c:	f1b8 0f01 	cmp.w	r8, #1
 8006240:	bf01      	itttt	eq
 8006242:	89a3      	ldrheq	r3, [r4, #12]
 8006244:	f043 0301 	orreq.w	r3, r3, #1
 8006248:	81a3      	strheq	r3, [r4, #12]
 800624a:	426b      	negeq	r3, r5
 800624c:	bf08      	it	eq
 800624e:	61a3      	streq	r3, [r4, #24]
 8006250:	4b0e      	ldr	r3, [pc, #56]	; (800628c <setvbuf+0x10c>)
 8006252:	62b3      	str	r3, [r6, #40]	; 0x28
 8006254:	89a3      	ldrh	r3, [r4, #12]
 8006256:	6027      	str	r7, [r4, #0]
 8006258:	f003 0008 	and.w	r0, r3, #8
 800625c:	b280      	uxth	r0, r0
 800625e:	6127      	str	r7, [r4, #16]
 8006260:	6165      	str	r5, [r4, #20]
 8006262:	b148      	cbz	r0, 8006278 <setvbuf+0xf8>
 8006264:	f013 0f03 	tst.w	r3, #3
 8006268:	bf18      	it	ne
 800626a:	2500      	movne	r5, #0
 800626c:	60a5      	str	r5, [r4, #8]
 800626e:	2000      	movs	r0, #0
 8006270:	e8bd 81f0 	ldmia.w	sp!, {r4, r5, r6, r7, r8, pc}
 8006274:	f04f 30ff 	mov.w	r0, #4294967295
 8006278:	e8bd 81f0 	ldmia.w	sp!, {r4, r5, r6, r7, r8, pc}
 800627c:	20000200 	.word	0x20000200
 8006280:	080078b8 	.word	0x080078b8
 8006284:	080078d8 	.word	0x080078d8
 8006288:	080078f8 	.word	0x080078f8
 800628c:	08005269 	.word	0x08005269

08006290 <siprintf>:
 8006290:	b40e      	push	{r1, r2, r3}
 8006292:	b500      	push	{lr}
 8006294:	b09c      	sub	sp, #112	; 0x70
 8006296:	f44f 7102 	mov.w	r1, #520	; 0x208
 800629a:	f8ad 1014 	strh.w	r1, [sp, #20]
 800629e:	f06f 4100 	mvn.w	r1, #2147483648	; 0x80000000
 80062a2:	9104      	str	r1, [sp, #16]
 80062a4:	9107      	str	r1, [sp, #28]
 80062a6:	f64f 71ff 	movw	r1, #65535	; 0xffff
 80062aa:	ab1d      	add	r3, sp, #116	; 0x74
 80062ac:	f8ad 1016 	strh.w	r1, [sp, #22]
 80062b0:	4908      	ldr	r1, [pc, #32]	; (80062d4 <siprintf+0x44>)
 80062b2:	f853 2b04 	ldr.w	r2, [r3], #4
 80062b6:	9002      	str	r0, [sp, #8]
 80062b8:	9006      	str	r0, [sp, #24]
 80062ba:	6808      	ldr	r0, [r1, #0]
 80062bc:	9301      	str	r3, [sp, #4]
 80062be:	a902      	add	r1, sp, #8
 80062c0:	f000 fbb2 	bl	8006a28 <_svfiprintf_r>
 80062c4:	9b02      	ldr	r3, [sp, #8]
 80062c6:	2200      	movs	r2, #0
 80062c8:	701a      	strb	r2, [r3, #0]
 80062ca:	b01c      	add	sp, #112	; 0x70
 80062cc:	f85d eb04 	ldr.w	lr, [sp], #4
 80062d0:	b003      	add	sp, #12
 80062d2:	4770      	bx	lr
 80062d4:	20000200 	.word	0x20000200

080062d8 <siscanf>:
 80062d8:	b40e      	push	{r1, r2, r3}
 80062da:	b530      	push	{r4, r5, lr}
 80062dc:	b09c      	sub	sp, #112	; 0x70
 80062de:	ac1f      	add	r4, sp, #124	; 0x7c
 80062e0:	f44f 7201 	mov.w	r2, #516	; 0x204
 80062e4:	f854 5b04 	ldr.w	r5, [r4], #4
 80062e8:	f8ad 2014 	strh.w	r2, [sp, #20]
 80062ec:	9002      	str	r0, [sp, #8]
 80062ee:	9006      	str	r0, [sp, #24]
 80062f0:	f000 f86b 	bl	80063ca <strlen>
 80062f4:	4b0b      	ldr	r3, [pc, #44]	; (8006324 <siscanf+0x4c>)
 80062f6:	930b      	str	r3, [sp, #44]	; 0x2c
 80062f8:	2300      	movs	r3, #0
 80062fa:	930f      	str	r3, [sp, #60]	; 0x3c
 80062fc:	9314      	str	r3, [sp, #80]	; 0x50
 80062fe:	f64f 73ff 	movw	r3, #65535	; 0xffff
 8006302:	f8ad 3016 	strh.w	r3, [sp, #22]
 8006306:	4b08      	ldr	r3, [pc, #32]	; (8006328 <siscanf+0x50>)
 8006308:	9003      	str	r0, [sp, #12]
 800630a:	9007      	str	r0, [sp, #28]
 800630c:	a902      	add	r1, sp, #8
 800630e:	6818      	ldr	r0, [r3, #0]
 8006310:	9401      	str	r4, [sp, #4]
 8006312:	462a      	mov	r2, r5
 8006314:	4623      	mov	r3, r4
 8006316:	f000 fcd3 	bl	8006cc0 <__ssvfiscanf_r>
 800631a:	b01c      	add	sp, #112	; 0x70
 800631c:	e8bd 4030 	ldmia.w	sp!, {r4, r5, lr}
 8006320:	b003      	add	sp, #12
 8006322:	4770      	bx	lr
 8006324:	0800634f 	.word	0x0800634f
 8006328:	20000200 	.word	0x20000200

0800632c <__sread>:
 800632c:	b510      	push	{r4, lr}
 800632e:	460c      	mov	r4, r1
 8006330:	f9b1 100e 	ldrsh.w	r1, [r1, #14]
 8006334:	f000 fe12 	bl	8006f5c <_read_r>
 8006338:	2800      	cmp	r0, #0
 800633a:	bfab      	itete	ge
 800633c:	6d63      	ldrge	r3, [r4, #84]	; 0x54
 800633e:	89a3      	ldrhlt	r3, [r4, #12]
 8006340:	181b      	addge	r3, r3, r0
 8006342:	f423 5380 	biclt.w	r3, r3, #4096	; 0x1000
 8006346:	bfac      	ite	ge
 8006348:	6563      	strge	r3, [r4, #84]	; 0x54
 800634a:	81a3      	strhlt	r3, [r4, #12]
 800634c:	bd10      	pop	{r4, pc}

0800634e <__seofread>:
 800634e:	2000      	movs	r0, #0
 8006350:	4770      	bx	lr

08006352 <__swrite>:
 8006352:	e92d 41f0 	stmdb	sp!, {r4, r5, r6, r7, r8, lr}
 8006356:	461d      	mov	r5, r3
 8006358:	898b      	ldrh	r3, [r1, #12]
 800635a:	05db      	lsls	r3, r3, #23
 800635c:	4607      	mov	r7, r0
 800635e:	460c      	mov	r4, r1
 8006360:	4616      	mov	r6, r2
 8006362:	d505      	bpl.n	8006370 <__swrite+0x1e>
 8006364:	f9b1 100e 	ldrsh.w	r1, [r1, #14]
 8006368:	2200      	movs	r2, #0
 800636a:	2302      	movs	r3, #2
 800636c:	f000 faca 	bl	8006904 <_lseek_r>
 8006370:	89a3      	ldrh	r3, [r4, #12]
 8006372:	f9b4 100e 	ldrsh.w	r1, [r4, #14]
 8006376:	f423 5380 	bic.w	r3, r3, #4096	; 0x1000
 800637a:	81a3      	strh	r3, [r4, #12]
 800637c:	4638      	mov	r0, r7
 800637e:	4632      	mov	r2, r6
 8006380:	462b      	mov	r3, r5
 8006382:	e8bd 41f0 	ldmia.w	sp!, {r4, r5, r6, r7, r8, lr}
 8006386:	f000 b9d5 	b.w	8006734 <_write_r>

0800638a <__sseek>:
 800638a:	b510      	push	{r4, lr}
 800638c:	460c      	mov	r4, r1
 800638e:	f9b1 100e 	ldrsh.w	r1, [r1, #14]
 8006392:	f000 fab7 	bl	8006904 <_lseek_r>
 8006396:	1c43      	adds	r3, r0, #1
 8006398:	89a3      	ldrh	r3, [r4, #12]
 800639a:	bf15      	itete	ne
 800639c:	6560      	strne	r0, [r4, #84]	; 0x54
 800639e:	f423 5380 	biceq.w	r3, r3, #4096	; 0x1000
 80063a2:	f443 5380 	orrne.w	r3, r3, #4096	; 0x1000
 80063a6:	81a3      	strheq	r3, [r4, #12]
 80063a8:	bf18      	it	ne
 80063aa:	81a3      	strhne	r3, [r4, #12]
 80063ac:	bd10      	pop	{r4, pc}

080063ae <__sclose>:
 80063ae:	f9b1 100e 	ldrsh.w	r1, [r1, #14]
 80063b2:	f000 ba3d 	b.w	8006830 <_close_r>

080063b6 <strcmp>:
 80063b6:	f810 2b01 	ldrb.w	r2, [r0], #1
 80063ba:	f811 3b01 	ldrb.w	r3, [r1], #1
 80063be:	2a01      	cmp	r2, #1
 80063c0:	bf28      	it	cs
 80063c2:	429a      	cmpcs	r2, r3
 80063c4:	d0f7      	beq.n	80063b6 <strcmp>
 80063c6:	1ad0      	subs	r0, r2, r3
 80063c8:	4770      	bx	lr

080063ca <strlen>:
 80063ca:	4603      	mov	r3, r0
 80063cc:	f813 2b01 	ldrb.w	r2, [r3], #1
 80063d0:	2a00      	cmp	r2, #0
 80063d2:	d1fb      	bne.n	80063cc <strlen+0x2>
 80063d4:	1a18      	subs	r0, r3, r0
 80063d6:	3801      	subs	r0, #1
 80063d8:	4770      	bx	lr

080063da <strncmp>:
 80063da:	b570      	push	{r4, r5, r6, lr}
 80063dc:	b1aa      	cbz	r2, 800640a <strncmp+0x30>
 80063de:	1e45      	subs	r5, r0, #1
 80063e0:	3901      	subs	r1, #1
 80063e2:	786b      	ldrb	r3, [r5, #1]
 80063e4:	f811 4f01 	ldrb.w	r4, [r1, #1]!
 80063e8:	42a3      	cmp	r3, r4
 80063ea:	f105 0601 	add.w	r6, r5, #1
 80063ee:	d106      	bne.n	80063fe <strncmp+0x24>
 80063f0:	f06f 0401 	mvn.w	r4, #1
 80063f4:	1b64      	subs	r4, r4, r5
 80063f6:	4414      	add	r4, r2
 80063f8:	42e0      	cmn	r0, r4
 80063fa:	d102      	bne.n	8006402 <strncmp+0x28>
 80063fc:	461c      	mov	r4, r3
 80063fe:	1b18      	subs	r0, r3, r4
 8006400:	bd70      	pop	{r4, r5, r6, pc}
 8006402:	4635      	mov	r5, r6
 8006404:	2b00      	cmp	r3, #0
 8006406:	d1ec      	bne.n	80063e2 <strncmp+0x8>
 8006408:	e7f8      	b.n	80063fc <strncmp+0x22>
 800640a:	4610      	mov	r0, r2
 800640c:	bd70      	pop	{r4, r5, r6, pc}
	...

08006410 <_strtol_r>:
 8006410:	e92d 47f0 	stmdb	sp!, {r4, r5, r6, r7, r8, r9, r10, lr}
 8006414:	4c40      	ldr	r4, [pc, #256]	; (8006518 <_strtol_r+0x108>)
 8006416:	f8d4 9000 	ldr.w	r9, [r4]
 800641a:	460f      	mov	r7, r1
 800641c:	463d      	mov	r5, r7
 800641e:	f815 eb01 	ldrb.w	lr, [r5], #1
 8006422:	eb09 040e 	add.w	r4, r9, lr
 8006426:	7866      	ldrb	r6, [r4, #1]
 8006428:	f006 0408 	and.w	r4, r6, #8
 800642c:	f004 06ff 	and.w	r6, r4, #255	; 0xff
 8006430:	b10c      	cbz	r4, 8006436 <_strtol_r+0x26>
 8006432:	462f      	mov	r7, r5
 8006434:	e7f2      	b.n	800641c <_strtol_r+0xc>
 8006436:	4674      	mov	r4, lr
 8006438:	2c2d      	cmp	r4, #45	; 0x2d
 800643a:	d103      	bne.n	8006444 <_strtol_r+0x34>
 800643c:	1cbd      	adds	r5, r7, #2
 800643e:	787c      	ldrb	r4, [r7, #1]
 8006440:	2601      	movs	r6, #1
 8006442:	e003      	b.n	800644c <_strtol_r+0x3c>
 8006444:	2c2b      	cmp	r4, #43	; 0x2b
 8006446:	bf04      	itt	eq
 8006448:	787c      	ldrbeq	r4, [r7, #1]
 800644a:	1cbd      	addeq	r5, r7, #2
 800644c:	b113      	cbz	r3, 8006454 <_strtol_r+0x44>
 800644e:	2b10      	cmp	r3, #16
 8006450:	d10a      	bne.n	8006468 <_strtol_r+0x58>
 8006452:	e05a      	b.n	800650a <_strtol_r+0xfa>
 8006454:	2c30      	cmp	r4, #48	; 0x30
 8006456:	d156      	bne.n	8006506 <_strtol_r+0xf6>
 8006458:	782c      	ldrb	r4, [r5, #0]
 800645a:	f004 04df 	and.w	r4, r4, #223	; 0xdf
 800645e:	2c58      	cmp	r4, #88	; 0x58
 8006460:	d14c      	bne.n	80064fc <_strtol_r+0xec>
 8006462:	786c      	ldrb	r4, [r5, #1]
 8006464:	2310      	movs	r3, #16
 8006466:	3502      	adds	r5, #2
 8006468:	2e00      	cmp	r6, #0
 800646a:	bf14      	ite	ne
 800646c:	f04f 4800 	movne.w	r8, #2147483648	; 0x80000000
 8006470:	f06f 4800 	mvneq.w	r8, #2147483648	; 0x80000000
 8006474:	2700      	movs	r7, #0
 8006476:	fbb8 faf3 	udiv	r10, r8, r3
 800647a:	46be      	mov	lr, r7
 800647c:	fb03 881a 	mls	r8, r3, r10, r8
 8006480:	eb09 0c04 	add.w	r12, r9, r4
 8006484:	f89c c001 	ldrb.w	r12, [r12, #1]
 8006488:	f01c 0f04 	tst.w	r12, #4
 800648c:	d001      	beq.n	8006492 <_strtol_r+0x82>
 800648e:	3c30      	subs	r4, #48	; 0x30
 8006490:	e00b      	b.n	80064aa <_strtol_r+0x9a>
 8006492:	f01c 0c03 	ands.w	r12, r12, #3
 8006496:	d01b      	beq.n	80064d0 <_strtol_r+0xc0>
 8006498:	f1bc 0f01 	cmp.w	r12, #1
 800649c:	bf0c      	ite	eq
 800649e:	f04f 0c37 	moveq.w	r12, #55	; 0x37
 80064a2:	f04f 0c57 	movne.w	r12, #87	; 0x57
 80064a6:	ebcc 0404 	rsb	r4, r12, r4
 80064aa:	429c      	cmp	r4, r3
 80064ac:	da10      	bge.n	80064d0 <_strtol_r+0xc0>
 80064ae:	f1b7 3fff 	cmp.w	r7, #4294967295
 80064b2:	d00a      	beq.n	80064ca <_strtol_r+0xba>
 80064b4:	45d6      	cmp	lr, r10
 80064b6:	d806      	bhi.n	80064c6 <_strtol_r+0xb6>
 80064b8:	d101      	bne.n	80064be <_strtol_r+0xae>
 80064ba:	4544      	cmp	r4, r8
 80064bc:	dc03      	bgt.n	80064c6 <_strtol_r+0xb6>
 80064be:	fb03 4e0e 	mla	lr, r3, lr, r4
 80064c2:	2701      	movs	r7, #1
 80064c4:	e001      	b.n	80064ca <_strtol_r+0xba>
 80064c6:	f04f 37ff 	mov.w	r7, #4294967295
 80064ca:	f815 4b01 	ldrb.w	r4, [r5], #1
 80064ce:	e7d7      	b.n	8006480 <_strtol_r+0x70>
 80064d0:	1c7c      	adds	r4, r7, #1
 80064d2:	4673      	mov	r3, lr
 80064d4:	d10a      	bne.n	80064ec <_strtol_r+0xdc>
 80064d6:	2e00      	cmp	r6, #0
 80064d8:	f04f 0122 	mov.w	r1, #34	; 0x22
 80064dc:	bf14      	ite	ne
 80064de:	f04f 4300 	movne.w	r3, #2147483648	; 0x80000000
 80064e2:	f06f 4300 	mvneq.w	r3, #2147483648	; 0x80000000
 80064e6:	6001      	str	r1, [r0, #0]
 80064e8:	b92a      	cbnz	r2, 80064f6 <_strtol_r+0xe6>
 80064ea:	e011      	b.n	8006510 <_strtol_r+0x100>
 80064ec:	b10e      	cbz	r6, 80064f2 <_strtol_r+0xe2>
 80064ee:	f1ce 0300 	rsb	r3, lr, #0
 80064f2:	b16a      	cbz	r2, 8006510 <_strtol_r+0x100>
 80064f4:	b107      	cbz	r7, 80064f8 <_strtol_r+0xe8>
 80064f6:	1e69      	subs	r1, r5, #1
 80064f8:	6011      	str	r1, [r2, #0]
 80064fa:	e009      	b.n	8006510 <_strtol_r+0x100>
 80064fc:	2430      	movs	r4, #48	; 0x30
 80064fe:	2b00      	cmp	r3, #0
 8006500:	d1b2      	bne.n	8006468 <_strtol_r+0x58>
 8006502:	2308      	movs	r3, #8
 8006504:	e7b0      	b.n	8006468 <_strtol_r+0x58>
 8006506:	230a      	movs	r3, #10
 8006508:	e7ae      	b.n	8006468 <_strtol_r+0x58>
 800650a:	2c30      	cmp	r4, #48	; 0x30
 800650c:	d1ac      	bne.n	8006468 <_strtol_r+0x58>
 800650e:	e7a3      	b.n	8006458 <_strtol_r+0x48>
 8006510:	4618      	mov	r0, r3
 8006512:	e8bd 87f0 	ldmia.w	sp!, {r4, r5, r6, r7, r8, r9, r10, pc}
 8006516:	bf00      	nop
 8006518:	20000204 	.word	0x20000204

0800651c <_strtoul_r>:
 800651c:	e92d 47f0 	stmdb	sp!, {r4, r5, r6, r7, r8, r9, r10, lr}
 8006520:	4c3b      	ldr	r4, [pc, #236]	; (8006610 <_strtoul_r+0xf4>)
 8006522:	f8d4 9000 	ldr.w	r9, [r4]
 8006526:	460e      	mov	r6, r1
 8006528:	4635      	mov	r5, r6
 800652a:	f815 eb01 	ldrb.w	lr, [r5], #1
 800652e:	eb09 040e 	add.w	r4, r9, lr
 8006532:	7867      	ldrb	r7, [r4, #1]
 8006534:	f007 0408 	and.w	r4, r7, #8
 8006538:	f004 07ff 	and.w	r7, r4, #255	; 0xff
 800653c:	b10c      	cbz	r4, 8006542 <_strtoul_r+0x26>
 800653e:	462e      	mov	r6, r5
 8006540:	e7f2      	b.n	8006528 <_strtoul_r+0xc>
 8006542:	4674      	mov	r4, lr
 8006544:	2c2d      	cmp	r4, #45	; 0x2d
 8006546:	d103      	bne.n	8006550 <_strtoul_r+0x34>
 8006548:	1cb5      	adds	r5, r6, #2
 800654a:	7874      	ldrb	r4, [r6, #1]
 800654c:	2701      	movs	r7, #1
 800654e:	e003      	b.n	8006558 <_strtoul_r+0x3c>
 8006550:	2c2b      	cmp	r4, #43	; 0x2b
 8006552:	bf04      	itt	eq
 8006554:	7874      	ldrbeq	r4, [r6, #1]
 8006556:	1cb5      	addeq	r5, r6, #2
 8006558:	b113      	cbz	r3, 8006560 <_strtoul_r+0x44>
 800655a:	2b10      	cmp	r3, #16
 800655c:	d10a      	bne.n	8006574 <_strtoul_r+0x58>
 800655e:	e051      	b.n	8006604 <_strtoul_r+0xe8>
 8006560:	2c30      	cmp	r4, #48	; 0x30
 8006562:	d14d      	bne.n	8006600 <_strtoul_r+0xe4>
 8006564:	782c      	ldrb	r4, [r5, #0]
 8006566:	f004 04df 	and.w	r4, r4, #223	; 0xdf
 800656a:	2c58      	cmp	r4, #88	; 0x58
 800656c:	d143      	bne.n	80065f6 <_strtoul_r+0xda>
 800656e:	786c      	ldrb	r4, [r5, #1]
 8006570:	2310      	movs	r3, #16
 8006572:	3502      	adds	r5, #2
 8006574:	f04f 38ff 	mov.w	r8, #4294967295
 8006578:	2600      	movs	r6, #0
 800657a:	fbb8 f8f3 	udiv	r8, r8, r3
 800657e:	fb03 fa08 	mul.w	r10, r3, r8
 8006582:	ea6f 0a0a 	mvn.w	r10, r10
 8006586:	46b6      	mov	lr, r6
 8006588:	eb09 0c04 	add.w	r12, r9, r4
 800658c:	f89c c001 	ldrb.w	r12, [r12, #1]
 8006590:	f01c 0f04 	tst.w	r12, #4
 8006594:	d001      	beq.n	800659a <_strtoul_r+0x7e>
 8006596:	3c30      	subs	r4, #48	; 0x30
 8006598:	e00b      	b.n	80065b2 <_strtoul_r+0x96>
 800659a:	f01c 0c03 	ands.w	r12, r12, #3
 800659e:	d01b      	beq.n	80065d8 <_strtoul_r+0xbc>
 80065a0:	f1bc 0f01 	cmp.w	r12, #1
 80065a4:	bf0c      	ite	eq
 80065a6:	f04f 0c37 	moveq.w	r12, #55	; 0x37
 80065aa:	f04f 0c57 	movne.w	r12, #87	; 0x57
 80065ae:	ebcc 0404 	rsb	r4, r12, r4
 80065b2:	429c      	cmp	r4, r3
 80065b4:	da10      	bge.n	80065d8 <_strtoul_r+0xbc>
 80065b6:	f1b6 3fff 	cmp.w	r6, #4294967295
 80065ba:	d00a      	beq.n	80065d2 <_strtoul_r+0xb6>
 80065bc:	45c6      	cmp	lr, r8
 80065be:	d806      	bhi.n	80065ce <_strtoul_r+0xb2>
 80065c0:	d101      	bne.n	80065c6 <_strtoul_r+0xaa>
 80065c2:	4554      	cmp	r4, r10
 80065c4:	dc03      	bgt.n	80065ce <_strtoul_r+0xb2>
 80065c6:	fb03 4e0e 	mla	lr, r3, lr, r4
 80065ca:	2601      	movs	r6, #1
 80065cc:	e001      	b.n	80065d2 <_strtoul_r+0xb6>
 80065ce:	f04f 36ff 	mov.w	r6, #4294967295
 80065d2:	f815 4b01 	ldrb.w	r4, [r5], #1
 80065d6:	e7d7      	b.n	8006588 <_strtoul_r+0x6c>
 80065d8:	1c74      	adds	r4, r6, #1
 80065da:	4673      	mov	r3, lr
 80065dc:	d103      	bne.n	80065e6 <_strtoul_r+0xca>
 80065de:	2322      	movs	r3, #34	; 0x22
 80065e0:	6003      	str	r3, [r0, #0]
 80065e2:	4633      	mov	r3, r6
 80065e4:	e002      	b.n	80065ec <_strtoul_r+0xd0>
 80065e6:	b10f      	cbz	r7, 80065ec <_strtoul_r+0xd0>
 80065e8:	f1ce 0300 	rsb	r3, lr, #0
 80065ec:	b16a      	cbz	r2, 800660a <_strtoul_r+0xee>
 80065ee:	b106      	cbz	r6, 80065f2 <_strtoul_r+0xd6>
 80065f0:	1e69      	subs	r1, r5, #1
 80065f2:	6011      	str	r1, [r2, #0]
 80065f4:	e009      	b.n	800660a <_strtoul_r+0xee>
 80065f6:	2430      	movs	r4, #48	; 0x30
 80065f8:	2b00      	cmp	r3, #0
 80065fa:	d1bb      	bne.n	8006574 <_strtoul_r+0x58>
 80065fc:	2308      	movs	r3, #8
 80065fe:	e7b9      	b.n	8006574 <_strtoul_r+0x58>
 8006600:	230a      	movs	r3, #10
 8006602:	e7b7      	b.n	8006574 <_strtoul_r+0x58>
 8006604:	2c30      	cmp	r4, #48	; 0x30
 8006606:	d1b5      	bne.n	8006574 <_strtoul_r+0x58>
 8006608:	e7ac      	b.n	8006564 <_strtoul_r+0x48>
 800660a:	4618      	mov	r0, r3
 800660c:	e8bd 87f0 	ldmia.w	sp!, {r4, r5, r6, r7, r8, r9, r10, pc}
 8006610:	20000204 	.word	0x20000204

08006614 <__submore>:
 8006614:	e92d 41f0 	stmdb	sp!, {r4, r5, r6, r7, r8, lr}
 8006618:	460c      	mov	r4, r1
 800661a:	6b49      	ldr	r1, [r1, #52]	; 0x34
 800661c:	f104 0344 	add.w	r3, r4, #68	; 0x44
 8006620:	4299      	cmp	r1, r3
 8006622:	d11c      	bne.n	800665e <__submore+0x4a>
 8006624:	f44f 6180 	mov.w	r1, #1024	; 0x400
 8006628:	f7ff f8d8 	bl	80057dc <_malloc_r>
 800662c:	b918      	cbnz	r0, 8006636 <__submore+0x22>
 800662e:	f04f 30ff 	mov.w	r0, #4294967295
 8006632:	e8bd 81f0 	ldmia.w	sp!, {r4, r5, r6, r7, r8, pc}
 8006636:	f44f 6380 	mov.w	r3, #1024	; 0x400
 800663a:	63a3      	str	r3, [r4, #56]	; 0x38
 800663c:	f894 3046 	ldrb.w	r3, [r4, #70]	; 0x46
 8006640:	6360      	str	r0, [r4, #52]	; 0x34
 8006642:	f880 33ff 	strb.w	r3, [r0, #1023]	; 0x3ff
 8006646:	f894 3045 	ldrb.w	r3, [r4, #69]	; 0x45
 800664a:	f880 33fe 	strb.w	r3, [r0, #1022]	; 0x3fe
 800664e:	f894 3044 	ldrb.w	r3, [r4, #68]	; 0x44
 8006652:	f880 33fd 	strb.w	r3, [r0, #1021]	; 0x3fd
 8006656:	f200 30fd 	addw	r0, r0, #1021	; 0x3fd
 800665a:	6020      	str	r0, [r4, #0]
 800665c:	e012      	b.n	8006684 <__submore+0x70>
 800665e:	6ba6      	ldr	r6, [r4, #56]	; 0x38
 8006660:	0077      	lsls	r7, r6, #1
 8006662:	463a      	mov	r2, r7
 8006664:	f000 f960 	bl	8006928 <_realloc_r>
 8006668:	4605      	mov	r5, r0
 800666a:	2800      	cmp	r0, #0
 800666c:	d0df      	beq.n	800662e <__submore+0x1a>
 800666e:	eb00 0806 	add.w	r8, r0, r6
 8006672:	4640      	mov	r0, r8
 8006674:	4629      	mov	r1, r5
 8006676:	4632      	mov	r2, r6
 8006678:	f7ff f83d 	bl	80056f6 <memcpy>
 800667c:	f8c4 8000 	str.w	r8, [r4]
 8006680:	6365      	str	r5, [r4, #52]	; 0x34
 8006682:	63a7      	str	r7, [r4, #56]	; 0x38
 8006684:	2000      	movs	r0, #0
 8006686:	e8bd 81f0 	ldmia.w	sp!, {r4, r5, r6, r7, r8, pc}
	...

0800668c <__swbuf_r>:
 800668c:	b570      	push	{r4, r5, r6, lr}
 800668e:	460d      	mov	r5, r1
 8006690:	4614      	mov	r4, r2
 8006692:	4606      	mov	r6, r0
 8006694:	b118      	cbz	r0, 800669e <__swbuf_r+0x12>
 8006696:	6983      	ldr	r3, [r0, #24]
 8006698:	b90b      	cbnz	r3, 800669e <__swbuf_r+0x12>
 800669a:	f7fe fe25 	bl	80052e8 <__sinit>
 800669e:	4b22      	ldr	r3, [pc, #136]	; (8006728 <__swbuf_r+0x9c>)
 80066a0:	429c      	cmp	r4, r3
 80066a2:	d101      	bne.n	80066a8 <__swbuf_r+0x1c>
 80066a4:	6874      	ldr	r4, [r6, #4]
 80066a6:	e008      	b.n	80066ba <__swbuf_r+0x2e>
 80066a8:	4b20      	ldr	r3, [pc, #128]	; (800672c <__swbuf_r+0xa0>)
 80066aa:	429c      	cmp	r4, r3
 80066ac:	d101      	bne.n	80066b2 <__swbuf_r+0x26>
 80066ae:	68b4      	ldr	r4, [r6, #8]
 80066b0:	e003      	b.n	80066ba <__swbuf_r+0x2e>
 80066b2:	4b1f      	ldr	r3, [pc, #124]	; (8006730 <__swbuf_r+0xa4>)
 80066b4:	429c      	cmp	r4, r3
 80066b6:	bf08      	it	eq
 80066b8:	68f4      	ldreq	r4, [r6, #12]
 80066ba:	69a3      	ldr	r3, [r4, #24]
 80066bc:	60a3      	str	r3, [r4, #8]
 80066be:	89a3      	ldrh	r3, [r4, #12]
 80066c0:	071a      	lsls	r2, r3, #28
 80066c2:	d509      	bpl.n	80066d8 <__swbuf_r+0x4c>
 80066c4:	6923      	ldr	r3, [r4, #16]
 80066c6:	b13b      	cbz	r3, 80066d8 <__swbuf_r+0x4c>
 80066c8:	6823      	ldr	r3, [r4, #0]
 80066ca:	6920      	ldr	r0, [r4, #16]
 80066cc:	1a18      	subs	r0, r3, r0
 80066ce:	6963      	ldr	r3, [r4, #20]
 80066d0:	4298      	cmp	r0, r3
 80066d2:	b2ed      	uxtb	r5, r5
 80066d4:	db0f      	blt.n	80066f6 <__swbuf_r+0x6a>
 80066d6:	e008      	b.n	80066ea <__swbuf_r+0x5e>
 80066d8:	4630      	mov	r0, r6
 80066da:	4621      	mov	r1, r4
 80066dc:	f000 f83c 	bl	8006758 <__swsetup_r>
 80066e0:	2800      	cmp	r0, #0
 80066e2:	d0f1      	beq.n	80066c8 <__swbuf_r+0x3c>
 80066e4:	f04f 30ff 	mov.w	r0, #4294967295
 80066e8:	bd70      	pop	{r4, r5, r6, pc}
 80066ea:	4630      	mov	r0, r6
 80066ec:	4621      	mov	r1, r4
 80066ee:	f7fe fd7f 	bl	80051f0 <_fflush_r>
 80066f2:	2800      	cmp	r0, #0
 80066f4:	d1f6      	bne.n	80066e4 <__swbuf_r+0x58>
 80066f6:	68a3      	ldr	r3, [r4, #8]
 80066f8:	3b01      	subs	r3, #1
 80066fa:	60a3      	str	r3, [r4, #8]
 80066fc:	6823      	ldr	r3, [r4, #0]
 80066fe:	1c5a      	adds	r2, r3, #1
 8006700:	6022      	str	r2, [r4, #0]
 8006702:	701d      	strb	r5, [r3, #0]
 8006704:	6963      	ldr	r3, [r4, #20]
 8006706:	3001      	adds	r0, #1
 8006708:	4298      	cmp	r0, r3
 800670a:	d004      	beq.n	8006716 <__swbuf_r+0x8a>
 800670c:	89a3      	ldrh	r3, [r4, #12]
 800670e:	07db      	lsls	r3, r3, #31
 8006710:	d507      	bpl.n	8006722 <__swbuf_r+0x96>
 8006712:	2d0a      	cmp	r5, #10
 8006714:	d105      	bne.n	8006722 <__swbuf_r+0x96>
 8006716:	4630      	mov	r0, r6
 8006718:	4621      	mov	r1, r4
 800671a:	f7fe fd69 	bl	80051f0 <_fflush_r>
 800671e:	2800      	cmp	r0, #0
 8006720:	d1e0      	bne.n	80066e4 <__swbuf_r+0x58>
 8006722:	4628      	mov	r0, r5
 8006724:	bd70      	pop	{r4, r5, r6, pc}
 8006726:	bf00      	nop
 8006728:	080078b8 	.word	0x080078b8
 800672c:	080078d8 	.word	0x080078d8
 8006730:	080078f8 	.word	0x080078f8

08006734 <_write_r>:
 8006734:	b538      	push	{r3, r4, r5, lr}
 8006736:	4c07      	ldr	r4, [pc, #28]	; (8006754 <_write_r+0x20>)
 8006738:	4605      	mov	r5, r0
 800673a:	2000      	movs	r0, #0
 800673c:	6020      	str	r0, [r4, #0]
 800673e:	4608      	mov	r0, r1
 8006740:	4611      	mov	r1, r2
 8006742:	461a      	mov	r2, r3
 8006744:	f7fe f8fc 	bl	8004940 <_write>
 8006748:	1c43      	adds	r3, r0, #1
 800674a:	d102      	bne.n	8006752 <_write_r+0x1e>
 800674c:	6823      	ldr	r3, [r4, #0]
 800674e:	b103      	cbz	r3, 8006752 <_write_r+0x1e>
 8006750:	602b      	str	r3, [r5, #0]
 8006752:	bd38      	pop	{r3, r4, r5, pc}
 8006754:	20000660 	.word	0x20000660

08006758 <__swsetup_r>:
 8006758:	4b31      	ldr	r3, [pc, #196]	; (8006820 <__swsetup_r+0xc8>)
 800675a:	b570      	push	{r4, r5, r6, lr}
 800675c:	681d      	ldr	r5, [r3, #0]
 800675e:	4606      	mov	r6, r0
 8006760:	460c      	mov	r4, r1
 8006762:	b125      	cbz	r5, 800676e <__swsetup_r+0x16>
 8006764:	69ab      	ldr	r3, [r5, #24]
 8006766:	b913      	cbnz	r3, 800676e <__swsetup_r+0x16>
 8006768:	4628      	mov	r0, r5
 800676a:	f7fe fdbd 	bl	80052e8 <__sinit>
 800676e:	4b2d      	ldr	r3, [pc, #180]	; (8006824 <__swsetup_r+0xcc>)
 8006770:	429c      	cmp	r4, r3
 8006772:	d101      	bne.n	8006778 <__swsetup_r+0x20>
 8006774:	686c      	ldr	r4, [r5, #4]
 8006776:	e008      	b.n	800678a <__swsetup_r+0x32>
 8006778:	4b2b      	ldr	r3, [pc, #172]	; (8006828 <__swsetup_r+0xd0>)
 800677a:	429c      	cmp	r4, r3
 800677c:	d101      	bne.n	8006782 <__swsetup_r+0x2a>
 800677e:	68ac      	ldr	r4, [r5, #8]
 8006780:	e003      	b.n	800678a <__swsetup_r+0x32>
 8006782:	4b2a      	ldr	r3, [pc, #168]	; (800682c <__swsetup_r+0xd4>)
 8006784:	429c      	cmp	r4, r3
 8006786:	bf08      	it	eq
 8006788:	68ec      	ldreq	r4, [r5, #12]
 800678a:	89a3      	ldrh	r3, [r4, #12]
 800678c:	b29a      	uxth	r2, r3
 800678e:	0711      	lsls	r1, r2, #28
 8006790:	d41d      	bmi.n	80067ce <__swsetup_r+0x76>
 8006792:	06d5      	lsls	r5, r2, #27
 8006794:	d402      	bmi.n	800679c <__swsetup_r+0x44>
 8006796:	2209      	movs	r2, #9
 8006798:	6032      	str	r2, [r6, #0]
 800679a:	e038      	b.n	800680e <__swsetup_r+0xb6>
 800679c:	0750      	lsls	r0, r2, #29
 800679e:	d512      	bpl.n	80067c6 <__swsetup_r+0x6e>
 80067a0:	6b61      	ldr	r1, [r4, #52]	; 0x34
 80067a2:	b141      	cbz	r1, 80067b6 <__swsetup_r+0x5e>
 80067a4:	f104 0344 	add.w	r3, r4, #68	; 0x44
 80067a8:	4299      	cmp	r1, r3
 80067aa:	d002      	beq.n	80067b2 <__swsetup_r+0x5a>
 80067ac:	4630      	mov	r0, r6
 80067ae:	f7fe ffd1 	bl	8005754 <_free_r>
 80067b2:	2300      	movs	r3, #0
 80067b4:	6363      	str	r3, [r4, #52]	; 0x34
 80067b6:	89a3      	ldrh	r3, [r4, #12]
 80067b8:	f023 0324 	bic.w	r3, r3, #36	; 0x24
 80067bc:	81a3      	strh	r3, [r4, #12]
 80067be:	2300      	movs	r3, #0
 80067c0:	6063      	str	r3, [r4, #4]
 80067c2:	6923      	ldr	r3, [r4, #16]
 80067c4:	6023      	str	r3, [r4, #0]
 80067c6:	89a3      	ldrh	r3, [r4, #12]
 80067c8:	f043 0308 	orr.w	r3, r3, #8
 80067cc:	81a3      	strh	r3, [r4, #12]
 80067ce:	6923      	ldr	r3, [r4, #16]
 80067d0:	b94b      	cbnz	r3, 80067e6 <__swsetup_r+0x8e>
 80067d2:	89a3      	ldrh	r3, [r4, #12]
 80067d4:	f403 7320 	and.w	r3, r3, #640	; 0x280
 80067d8:	f5b3 7f00 	cmp.w	r3, #512	; 0x200
 80067dc:	d003      	beq.n	80067e6 <__swsetup_r+0x8e>
 80067de:	4630      	mov	r0, r6
 80067e0:	4621      	mov	r1, r4
 80067e2:	f7fe ff1b 	bl	800561c <__smakebuf_r>
 80067e6:	89a3      	ldrh	r3, [r4, #12]
 80067e8:	f013 0201 	ands.w	r2, r3, #1
 80067ec:	d005      	beq.n	80067fa <__swsetup_r+0xa2>
 80067ee:	2200      	movs	r2, #0
 80067f0:	60a2      	str	r2, [r4, #8]
 80067f2:	6962      	ldr	r2, [r4, #20]
 80067f4:	4252      	negs	r2, r2
 80067f6:	61a2      	str	r2, [r4, #24]
 80067f8:	e003      	b.n	8006802 <__swsetup_r+0xaa>
 80067fa:	0799      	lsls	r1, r3, #30
 80067fc:	bf58      	it	pl
 80067fe:	6962      	ldrpl	r2, [r4, #20]
 8006800:	60a2      	str	r2, [r4, #8]
 8006802:	6922      	ldr	r2, [r4, #16]
 8006804:	b94a      	cbnz	r2, 800681a <__swsetup_r+0xc2>
 8006806:	f003 0080 	and.w	r0, r3, #128	; 0x80
 800680a:	b280      	uxth	r0, r0
 800680c:	b130      	cbz	r0, 800681c <__swsetup_r+0xc4>
 800680e:	f043 0340 	orr.w	r3, r3, #64	; 0x40
 8006812:	81a3      	strh	r3, [r4, #12]
 8006814:	f04f 30ff 	mov.w	r0, #4294967295
 8006818:	bd70      	pop	{r4, r5, r6, pc}
 800681a:	2000      	movs	r0, #0
 800681c:	bd70      	pop	{r4, r5, r6, pc}
 800681e:	bf00      	nop
 8006820:	20000200 	.word	0x20000200
 8006824:	080078b8 	.word	0x080078b8
 8006828:	080078d8 	.word	0x080078d8
 800682c:	080078f8 	.word	0x080078f8

08006830 <_close_r>:
 8006830:	b538      	push	{r3, r4, r5, lr}
 8006832:	4c06      	ldr	r4, [pc, #24]	; (800684c <_close_r+0x1c>)
 8006834:	2300      	movs	r3, #0
 8006836:	4605      	mov	r5, r0
 8006838:	4608      	mov	r0, r1
 800683a:	6023      	str	r3, [r4, #0]
 800683c:	f7fe f858 	bl	80048f0 <_close>
 8006840:	1c43      	adds	r3, r0, #1
 8006842:	d102      	bne.n	800684a <_close_r+0x1a>
 8006844:	6823      	ldr	r3, [r4, #0]
 8006846:	b103      	cbz	r3, 800684a <_close_r+0x1a>
 8006848:	602b      	str	r3, [r5, #0]
 800684a:	bd38      	pop	{r3, r4, r5, pc}
 800684c:	20000660 	.word	0x20000660

08006850 <__sflags>:
 8006850:	780b      	ldrb	r3, [r1, #0]
 8006852:	2b72      	cmp	r3, #114	; 0x72
 8006854:	b530      	push	{r4, r5, lr}
 8006856:	d00e      	beq.n	8006876 <__sflags+0x26>
 8006858:	2b77      	cmp	r3, #119	; 0x77
 800685a:	d007      	beq.n	800686c <__sflags+0x1c>
 800685c:	2b61      	cmp	r3, #97	; 0x61
 800685e:	d10e      	bne.n	800687e <__sflags+0x2e>
 8006860:	f44f 7402 	mov.w	r4, #520	; 0x208
 8006864:	2301      	movs	r3, #1
 8006866:	f44f 7084 	mov.w	r0, #264	; 0x108
 800686a:	e01a      	b.n	80068a2 <__sflags+0x52>
 800686c:	f44f 64c0 	mov.w	r4, #1536	; 0x600
 8006870:	2301      	movs	r3, #1
 8006872:	2008      	movs	r0, #8
 8006874:	e015      	b.n	80068a2 <__sflags+0x52>
 8006876:	2400      	movs	r4, #0
 8006878:	4623      	mov	r3, r4
 800687a:	2004      	movs	r0, #4
 800687c:	e011      	b.n	80068a2 <__sflags+0x52>
 800687e:	2316      	movs	r3, #22
 8006880:	6003      	str	r3, [r0, #0]
 8006882:	2000      	movs	r0, #0
 8006884:	bd30      	pop	{r4, r5, pc}
 8006886:	2d62      	cmp	r5, #98	; 0x62
 8006888:	d010      	beq.n	80068ac <__sflags+0x5c>
 800688a:	2d78      	cmp	r5, #120	; 0x78
 800688c:	d011      	beq.n	80068b2 <__sflags+0x62>
 800688e:	2d2b      	cmp	r5, #43	; 0x2b
 8006890:	d107      	bne.n	80068a2 <__sflags+0x52>
 8006892:	f020 001c 	bic.w	r0, r0, #28
 8006896:	f023 0303 	bic.w	r3, r3, #3
 800689a:	f040 0010 	orr.w	r0, r0, #16
 800689e:	f043 0302 	orr.w	r3, r3, #2
 80068a2:	f811 5f01 	ldrb.w	r5, [r1, #1]!
 80068a6:	2d00      	cmp	r5, #0
 80068a8:	d1ed      	bne.n	8006886 <__sflags+0x36>
 80068aa:	e005      	b.n	80068b8 <__sflags+0x68>
 80068ac:	f443 3380 	orr.w	r3, r3, #65536	; 0x10000
 80068b0:	e7f7      	b.n	80068a2 <__sflags+0x52>
 80068b2:	f443 6300 	orr.w	r3, r3, #2048	; 0x800
 80068b6:	e7f4      	b.n	80068a2 <__sflags+0x52>
 80068b8:	4323      	orrs	r3, r4
 80068ba:	6013      	str	r3, [r2, #0]
 80068bc:	bd30      	pop	{r4, r5, pc}
	...

080068c0 <_fstat_r>:
 80068c0:	b538      	push	{r3, r4, r5, lr}
 80068c2:	4c07      	ldr	r4, [pc, #28]	; (80068e0 <_fstat_r+0x20>)
 80068c4:	2300      	movs	r3, #0
 80068c6:	4605      	mov	r5, r0
 80068c8:	4608      	mov	r0, r1
 80068ca:	4611      	mov	r1, r2
 80068cc:	6023      	str	r3, [r4, #0]
 80068ce:	f7fe f8fd 	bl	8004acc <_fstat>
 80068d2:	1c43      	adds	r3, r0, #1
 80068d4:	d102      	bne.n	80068dc <_fstat_r+0x1c>
 80068d6:	6823      	ldr	r3, [r4, #0]
 80068d8:	b103      	cbz	r3, 80068dc <_fstat_r+0x1c>
 80068da:	602b      	str	r3, [r5, #0]
 80068dc:	bd38      	pop	{r3, r4, r5, pc}
 80068de:	bf00      	nop
 80068e0:	20000660 	.word	0x20000660

080068e4 <_isatty_r>:
 80068e4:	b538      	push	{r3, r4, r5, lr}
 80068e6:	4c06      	ldr	r4, [pc, #24]	; (8006900 <_isatty_r+0x1c>)
 80068e8:	2300      	movs	r3, #0
 80068ea:	4605      	mov	r5, r0
 80068ec:	4608      	mov	r0, r1
 80068ee:	6023      	str	r3, [r4, #0]
 80068f0:	f7fb fae4 	bl	8001ebc <__wrap__isatty>
 80068f4:	1c43      	adds	r3, r0, #1
 80068f6:	d102      	bne.n	80068fe <_isatty_r+0x1a>
 80068f8:	6823      	ldr	r3, [r4, #0]
 80068fa:	b103      	cbz	r3, 80068fe <_isatty_r+0x1a>
 80068fc:	602b      	str	r3, [r5, #0]
 80068fe:	bd38      	pop	{r3, r4, r5, pc}
 8006900:	20000660 	.word	0x20000660

08006904 <_lseek_r>:
 8006904:	b538      	push	{r3, r4, r5, lr}
 8006906:	4c07      	ldr	r4, [pc, #28]	; (8006924 <_lseek_r+0x20>)
 8006908:	4605      	mov	r5, r0
 800690a:	2000      	movs	r0, #0
 800690c:	6020      	str	r0, [r4, #0]
 800690e:	4608      	mov	r0, r1
 8006910:	4611      	mov	r1, r2
 8006912:	461a      	mov	r2, r3
 8006914:	f7fe f8b4 	bl	8004a80 <_lseek>
 8006918:	1c43      	adds	r3, r0, #1
 800691a:	d102      	bne.n	8006922 <_lseek_r+0x1e>
 800691c:	6823      	ldr	r3, [r4, #0]
 800691e:	b103      	cbz	r3, 8006922 <_lseek_r+0x1e>
 8006920:	602b      	str	r3, [r5, #0]
 8006922:	bd38      	pop	{r3, r4, r5, pc}
 8006924:	20000660 	.word	0x20000660

08006928 <_realloc_r>:
 8006928:	b5f8      	push	{r3, r4, r5, r6, r7, lr}
 800692a:	4607      	mov	r7, r0
 800692c:	4615      	mov	r5, r2
 800692e:	460e      	mov	r6, r1
 8006930:	b921      	cbnz	r1, 800693c <_realloc_r+0x14>
 8006932:	4611      	mov	r1, r2
 8006934:	e8bd 40f8 	ldmia.w	sp!, {r3, r4, r5, r6, r7, lr}
 8006938:	f7fe bf50 	b.w	80057dc <_malloc_r>
 800693c:	b91a      	cbnz	r2, 8006946 <_realloc_r+0x1e>
 800693e:	f7fe ff09 	bl	8005754 <_free_r>
 8006942:	4628      	mov	r0, r5
 8006944:	bdf8      	pop	{r3, r4, r5, r6, r7, pc}
 8006946:	f000 fb1b 	bl	8006f80 <_malloc_usable_size_r>
 800694a:	42a8      	cmp	r0, r5
 800694c:	d20e      	bcs.n	800696c <_realloc_r+0x44>
 800694e:	4638      	mov	r0, r7
 8006950:	4629      	mov	r1, r5
 8006952:	f7fe ff43 	bl	80057dc <_malloc_r>
 8006956:	4604      	mov	r4, r0
 8006958:	b150      	cbz	r0, 8006970 <_realloc_r+0x48>
 800695a:	4631      	mov	r1, r6
 800695c:	462a      	mov	r2, r5
 800695e:	f7fe feca 	bl	80056f6 <memcpy>
 8006962:	4638      	mov	r0, r7
 8006964:	4631      	mov	r1, r6
 8006966:	f7fe fef5 	bl	8005754 <_free_r>
 800696a:	e001      	b.n	8006970 <_realloc_r+0x48>
 800696c:	4630      	mov	r0, r6
 800696e:	bdf8      	pop	{r3, r4, r5, r6, r7, pc}
 8006970:	4620      	mov	r0, r4
 8006972:	bdf8      	pop	{r3, r4, r5, r6, r7, pc}

08006974 <__ssputs_r>:
 8006974:	e92d 47f0 	stmdb	sp!, {r4, r5, r6, r7, r8, r9, r10, lr}
 8006978:	688e      	ldr	r6, [r1, #8]
 800697a:	42b3      	cmp	r3, r6
 800697c:	4682      	mov	r10, r0
 800697e:	460c      	mov	r4, r1
 8006980:	4690      	mov	r8, r2
 8006982:	4699      	mov	r9, r3
 8006984:	d340      	bcc.n	8006a08 <__ssputs_r+0x94>
 8006986:	898a      	ldrh	r2, [r1, #12]
 8006988:	f412 6f90 	tst.w	r2, #1152	; 0x480
 800698c:	d03a      	beq.n	8006a04 <__ssputs_r+0x90>
 800698e:	6825      	ldr	r5, [r4, #0]
 8006990:	6909      	ldr	r1, [r1, #16]
 8006992:	1a6f      	subs	r7, r5, r1
 8006994:	6965      	ldr	r5, [r4, #20]
 8006996:	2302      	movs	r3, #2
 8006998:	eb05 0545 	add.w	r5, r5, r5, lsl #1
 800699c:	fb95 f5f3 	sdiv	r5, r5, r3
 80069a0:	1c7b      	adds	r3, r7, #1
 80069a2:	444b      	add	r3, r9
 80069a4:	429d      	cmp	r5, r3
 80069a6:	bf38      	it	cc
 80069a8:	461d      	movcc	r5, r3
 80069aa:	0553      	lsls	r3, r2, #21
 80069ac:	d50f      	bpl.n	80069ce <__ssputs_r+0x5a>
 80069ae:	4629      	mov	r1, r5
 80069b0:	f7fe ff14 	bl	80057dc <_malloc_r>
 80069b4:	4606      	mov	r6, r0
 80069b6:	b198      	cbz	r0, 80069e0 <__ssputs_r+0x6c>
 80069b8:	6921      	ldr	r1, [r4, #16]
 80069ba:	463a      	mov	r2, r7
 80069bc:	f7fe fe9b 	bl	80056f6 <memcpy>
 80069c0:	89a3      	ldrh	r3, [r4, #12]
 80069c2:	f423 6390 	bic.w	r3, r3, #1152	; 0x480
 80069c6:	f043 0380 	orr.w	r3, r3, #128	; 0x80
 80069ca:	81a3      	strh	r3, [r4, #12]
 80069cc:	e013      	b.n	80069f6 <__ssputs_r+0x82>
 80069ce:	462a      	mov	r2, r5
 80069d0:	f7ff ffaa 	bl	8006928 <_realloc_r>
 80069d4:	4606      	mov	r6, r0
 80069d6:	b970      	cbnz	r0, 80069f6 <__ssputs_r+0x82>
 80069d8:	4650      	mov	r0, r10
 80069da:	6921      	ldr	r1, [r4, #16]
 80069dc:	f7fe feba 	bl	8005754 <_free_r>
 80069e0:	230c      	movs	r3, #12
 80069e2:	f8ca 3000 	str.w	r3, [r10]
 80069e6:	89a3      	ldrh	r3, [r4, #12]
 80069e8:	f043 0340 	orr.w	r3, r3, #64	; 0x40
 80069ec:	81a3      	strh	r3, [r4, #12]
 80069ee:	f04f 30ff 	mov.w	r0, #4294967295
 80069f2:	e8bd 87f0 	ldmia.w	sp!, {r4, r5, r6, r7, r8, r9, r10, pc}
 80069f6:	6126      	str	r6, [r4, #16]
 80069f8:	6165      	str	r5, [r4, #20]
 80069fa:	443e      	add	r6, r7
 80069fc:	1bed      	subs	r5, r5, r7
 80069fe:	6026      	str	r6, [r4, #0]
 8006a00:	60a5      	str	r5, [r4, #8]
 8006a02:	464e      	mov	r6, r9
 8006a04:	45b1      	cmp	r9, r6
 8006a06:	d200      	bcs.n	8006a0a <__ssputs_r+0x96>
 8006a08:	464e      	mov	r6, r9
 8006a0a:	4632      	mov	r2, r6
 8006a0c:	6820      	ldr	r0, [r4, #0]
 8006a0e:	4641      	mov	r1, r8
 8006a10:	f7fe fe7c 	bl	800570c <memmove>
 8006a14:	68a3      	ldr	r3, [r4, #8]
 8006a16:	1b9b      	subs	r3, r3, r6
 8006a18:	60a3      	str	r3, [r4, #8]
 8006a1a:	6823      	ldr	r3, [r4, #0]
 8006a1c:	441e      	add	r6, r3
 8006a1e:	6026      	str	r6, [r4, #0]
 8006a20:	2000      	movs	r0, #0
 8006a22:	e8bd 87f0 	ldmia.w	sp!, {r4, r5, r6, r7, r8, r9, r10, pc}
	...

08006a28 <_svfiprintf_r>:
 8006a28:	e92d 43f0 	stmdb	sp!, {r4, r5, r6, r7, r8, r9, lr}
 8006a2c:	b09d      	sub	sp, #116	; 0x74
 8006a2e:	4606      	mov	r6, r0
 8006a30:	9303      	str	r3, [sp, #12]
 8006a32:	898b      	ldrh	r3, [r1, #12]
 8006a34:	061c      	lsls	r4, r3, #24
 8006a36:	460d      	mov	r5, r1
 8006a38:	4690      	mov	r8, r2
 8006a3a:	d50c      	bpl.n	8006a56 <_svfiprintf_r+0x2e>
 8006a3c:	690b      	ldr	r3, [r1, #16]
 8006a3e:	b953      	cbnz	r3, 8006a56 <_svfiprintf_r+0x2e>
 8006a40:	2140      	movs	r1, #64	; 0x40
 8006a42:	f7fe fecb 	bl	80057dc <_malloc_r>
 8006a46:	6028      	str	r0, [r5, #0]
 8006a48:	6128      	str	r0, [r5, #16]
 8006a4a:	b910      	cbnz	r0, 8006a52 <_svfiprintf_r+0x2a>
 8006a4c:	230c      	movs	r3, #12
 8006a4e:	6033      	str	r3, [r6, #0]
 8006a50:	e0cc      	b.n	8006bec <_svfiprintf_r+0x1c4>
 8006a52:	2340      	movs	r3, #64	; 0x40
 8006a54:	616b      	str	r3, [r5, #20]
 8006a56:	2300      	movs	r3, #0
 8006a58:	9309      	str	r3, [sp, #36]	; 0x24
 8006a5a:	2320      	movs	r3, #32
 8006a5c:	f88d 3029 	strb.w	r3, [sp, #41]	; 0x29
 8006a60:	2330      	movs	r3, #48	; 0x30
 8006a62:	f88d 302a 	strb.w	r3, [sp, #42]	; 0x2a
 8006a66:	4643      	mov	r3, r8
 8006a68:	461c      	mov	r4, r3
 8006a6a:	f813 2b01 	ldrb.w	r2, [r3], #1
 8006a6e:	b91a      	cbnz	r2, 8006a78 <_svfiprintf_r+0x50>
 8006a70:	ebb4 0908 	subs.w	r9, r4, r8
 8006a74:	d00f      	beq.n	8006a96 <_svfiprintf_r+0x6e>
 8006a76:	e002      	b.n	8006a7e <_svfiprintf_r+0x56>
 8006a78:	2a25      	cmp	r2, #37	; 0x25
 8006a7a:	d1f5      	bne.n	8006a68 <_svfiprintf_r+0x40>
 8006a7c:	e7f8      	b.n	8006a70 <_svfiprintf_r+0x48>
 8006a7e:	4630      	mov	r0, r6
 8006a80:	4629      	mov	r1, r5
 8006a82:	4642      	mov	r2, r8
 8006a84:	464b      	mov	r3, r9
 8006a86:	f7ff ff75 	bl	8006974 <__ssputs_r>
 8006a8a:	3001      	adds	r0, #1
 8006a8c:	f000 80a9 	beq.w	8006be2 <_svfiprintf_r+0x1ba>
 8006a90:	9b09      	ldr	r3, [sp, #36]	; 0x24
 8006a92:	444b      	add	r3, r9
 8006a94:	9309      	str	r3, [sp, #36]	; 0x24
 8006a96:	7823      	ldrb	r3, [r4, #0]
 8006a98:	2b00      	cmp	r3, #0
 8006a9a:	f000 80a2 	beq.w	8006be2 <_svfiprintf_r+0x1ba>
 8006a9e:	2300      	movs	r3, #0
 8006aa0:	f04f 32ff 	mov.w	r2, #4294967295
 8006aa4:	9304      	str	r3, [sp, #16]
 8006aa6:	9307      	str	r3, [sp, #28]
 8006aa8:	9205      	str	r2, [sp, #20]
 8006aaa:	9306      	str	r3, [sp, #24]
 8006aac:	f88d 3053 	strb.w	r3, [sp, #83]	; 0x53
 8006ab0:	931a      	str	r3, [sp, #104]	; 0x68
 8006ab2:	f104 0801 	add.w	r8, r4, #1
 8006ab6:	4644      	mov	r4, r8
 8006ab8:	f8df 9148 	ldr.w	r9, [pc, #328]	; 8006c04 <_svfiprintf_r+0x1dc>
 8006abc:	7821      	ldrb	r1, [r4, #0]
 8006abe:	4648      	mov	r0, r9
 8006ac0:	2205      	movs	r2, #5
 8006ac2:	f7fe fe09 	bl	80056d8 <memchr>
 8006ac6:	f108 0801 	add.w	r8, r8, #1
 8006aca:	9b04      	ldr	r3, [sp, #16]
 8006acc:	b130      	cbz	r0, 8006adc <_svfiprintf_r+0xb4>
 8006ace:	ebc9 0000 	rsb	r0, r9, r0
 8006ad2:	2201      	movs	r2, #1
 8006ad4:	4082      	lsls	r2, r0
 8006ad6:	4313      	orrs	r3, r2
 8006ad8:	9304      	str	r3, [sp, #16]
 8006ada:	e7ec      	b.n	8006ab6 <_svfiprintf_r+0x8e>
 8006adc:	06d8      	lsls	r0, r3, #27
 8006ade:	bf44      	itt	mi
 8006ae0:	2220      	movmi	r2, #32
 8006ae2:	f88d 2053 	strbmi.w	r2, [sp, #83]	; 0x53
 8006ae6:	0719      	lsls	r1, r3, #28
 8006ae8:	bf44      	itt	mi
 8006aea:	222b      	movmi	r2, #43	; 0x2b
 8006aec:	f88d 2053 	strbmi.w	r2, [sp, #83]	; 0x53
 8006af0:	7822      	ldrb	r2, [r4, #0]
 8006af2:	2a2a      	cmp	r2, #42	; 0x2a
 8006af4:	d002      	beq.n	8006afc <_svfiprintf_r+0xd4>
 8006af6:	9907      	ldr	r1, [sp, #28]
 8006af8:	4623      	mov	r3, r4
 8006afa:	e00e      	b.n	8006b1a <_svfiprintf_r+0xf2>
 8006afc:	9a03      	ldr	r2, [sp, #12]
 8006afe:	1d11      	adds	r1, r2, #4
 8006b00:	6812      	ldr	r2, [r2, #0]
 8006b02:	9103      	str	r1, [sp, #12]
 8006b04:	2a00      	cmp	r2, #0
 8006b06:	bfbb      	ittet	lt
 8006b08:	4252      	neglt	r2, r2
 8006b0a:	f043 0302 	orrlt.w	r3, r3, #2
 8006b0e:	9207      	strge	r2, [sp, #28]
 8006b10:	9207      	strlt	r2, [sp, #28]
 8006b12:	bfb8      	it	lt
 8006b14:	9304      	strlt	r3, [sp, #16]
 8006b16:	3401      	adds	r4, #1
 8006b18:	e00a      	b.n	8006b30 <_svfiprintf_r+0x108>
 8006b1a:	461c      	mov	r4, r3
 8006b1c:	3301      	adds	r3, #1
 8006b1e:	7822      	ldrb	r2, [r4, #0]
 8006b20:	3a30      	subs	r2, #48	; 0x30
 8006b22:	2a09      	cmp	r2, #9
 8006b24:	d803      	bhi.n	8006b2e <_svfiprintf_r+0x106>
 8006b26:	200a      	movs	r0, #10
 8006b28:	fb00 2101 	mla	r1, r0, r1, r2
 8006b2c:	e7f5      	b.n	8006b1a <_svfiprintf_r+0xf2>
 8006b2e:	9107      	str	r1, [sp, #28]
 8006b30:	7823      	ldrb	r3, [r4, #0]
 8006b32:	2b2e      	cmp	r3, #46	; 0x2e
 8006b34:	d11a      	bne.n	8006b6c <_svfiprintf_r+0x144>
 8006b36:	7863      	ldrb	r3, [r4, #1]
 8006b38:	2b2a      	cmp	r3, #42	; 0x2a
 8006b3a:	d10a      	bne.n	8006b52 <_svfiprintf_r+0x12a>
 8006b3c:	9b03      	ldr	r3, [sp, #12]
 8006b3e:	1d1a      	adds	r2, r3, #4
 8006b40:	681b      	ldr	r3, [r3, #0]
 8006b42:	9203      	str	r2, [sp, #12]
 8006b44:	2b00      	cmp	r3, #0
 8006b46:	bfb8      	it	lt
 8006b48:	f04f 33ff 	movlt.w	r3, #4294967295
 8006b4c:	3402      	adds	r4, #2
 8006b4e:	9305      	str	r3, [sp, #20]
 8006b50:	e00c      	b.n	8006b6c <_svfiprintf_r+0x144>
 8006b52:	1c61      	adds	r1, r4, #1
 8006b54:	2200      	movs	r2, #0
 8006b56:	460c      	mov	r4, r1
 8006b58:	3101      	adds	r1, #1
 8006b5a:	7823      	ldrb	r3, [r4, #0]
 8006b5c:	3b30      	subs	r3, #48	; 0x30
 8006b5e:	2b09      	cmp	r3, #9
 8006b60:	d803      	bhi.n	8006b6a <_svfiprintf_r+0x142>
 8006b62:	200a      	movs	r0, #10
 8006b64:	fb00 3202 	mla	r2, r0, r2, r3
 8006b68:	e7f5      	b.n	8006b56 <_svfiprintf_r+0x12e>
 8006b6a:	9205      	str	r2, [sp, #20]
 8006b6c:	f8df 8098 	ldr.w	r8, [pc, #152]	; 8006c08 <_svfiprintf_r+0x1e0>
 8006b70:	7821      	ldrb	r1, [r4, #0]
 8006b72:	4640      	mov	r0, r8
 8006b74:	2203      	movs	r2, #3
 8006b76:	f7fe fdaf 	bl	80056d8 <memchr>
 8006b7a:	b138      	cbz	r0, 8006b8c <_svfiprintf_r+0x164>
 8006b7c:	9a04      	ldr	r2, [sp, #16]
 8006b7e:	ebc8 0000 	rsb	r0, r8, r0
 8006b82:	2340      	movs	r3, #64	; 0x40
 8006b84:	4083      	lsls	r3, r0
 8006b86:	4313      	orrs	r3, r2
 8006b88:	9304      	str	r3, [sp, #16]
 8006b8a:	3401      	adds	r4, #1
 8006b8c:	7821      	ldrb	r1, [r4, #0]
 8006b8e:	481a      	ldr	r0, [pc, #104]	; (8006bf8 <_svfiprintf_r+0x1d0>)
 8006b90:	f88d 1028 	strb.w	r1, [sp, #40]	; 0x28
 8006b94:	2206      	movs	r2, #6
 8006b96:	f104 0801 	add.w	r8, r4, #1
 8006b9a:	f7fe fd9d 	bl	80056d8 <memchr>
 8006b9e:	b188      	cbz	r0, 8006bc4 <_svfiprintf_r+0x19c>
 8006ba0:	4b16      	ldr	r3, [pc, #88]	; (8006bfc <_svfiprintf_r+0x1d4>)
 8006ba2:	b933      	cbnz	r3, 8006bb2 <_svfiprintf_r+0x18a>
 8006ba4:	9b03      	ldr	r3, [sp, #12]
 8006ba6:	3307      	adds	r3, #7
 8006ba8:	f023 0307 	bic.w	r3, r3, #7
 8006bac:	3308      	adds	r3, #8
 8006bae:	9303      	str	r3, [sp, #12]
 8006bb0:	e013      	b.n	8006bda <_svfiprintf_r+0x1b2>
 8006bb2:	ab03      	add	r3, sp, #12
 8006bb4:	9300      	str	r3, [sp, #0]
 8006bb6:	4630      	mov	r0, r6
 8006bb8:	a904      	add	r1, sp, #16
 8006bba:	462a      	mov	r2, r5
 8006bbc:	4b10      	ldr	r3, [pc, #64]	; (8006c00 <_svfiprintf_r+0x1d8>)
 8006bbe:	f3af 8000 	nop.w
 8006bc2:	e007      	b.n	8006bd4 <_svfiprintf_r+0x1ac>
 8006bc4:	ab03      	add	r3, sp, #12
 8006bc6:	9300      	str	r3, [sp, #0]
 8006bc8:	4630      	mov	r0, r6
 8006bca:	a904      	add	r1, sp, #16
 8006bcc:	462a      	mov	r2, r5
 8006bce:	4b0c      	ldr	r3, [pc, #48]	; (8006c00 <_svfiprintf_r+0x1d8>)
 8006bd0:	f7ff f80e 	bl	8005bf0 <_printf_i>
 8006bd4:	1c42      	adds	r2, r0, #1
 8006bd6:	4607      	mov	r7, r0
 8006bd8:	d003      	beq.n	8006be2 <_svfiprintf_r+0x1ba>
 8006bda:	9b09      	ldr	r3, [sp, #36]	; 0x24
 8006bdc:	443b      	add	r3, r7
 8006bde:	9309      	str	r3, [sp, #36]	; 0x24
 8006be0:	e741      	b.n	8006a66 <_svfiprintf_r+0x3e>
 8006be2:	89ab      	ldrh	r3, [r5, #12]
 8006be4:	065b      	lsls	r3, r3, #25
 8006be6:	d401      	bmi.n	8006bec <_svfiprintf_r+0x1c4>
 8006be8:	9809      	ldr	r0, [sp, #36]	; 0x24
 8006bea:	e001      	b.n	8006bf0 <_svfiprintf_r+0x1c8>
 8006bec:	f04f 30ff 	mov.w	r0, #4294967295
 8006bf0:	b01d      	add	sp, #116	; 0x74
 8006bf2:	e8bd 83f0 	ldmia.w	sp!, {r4, r5, r6, r7, r8, r9, pc}
 8006bf6:	bf00      	nop
 8006bf8:	0800792a 	.word	0x0800792a
 8006bfc:	00000000 	.word	0x00000000
 8006c00:	08006975 	.word	0x08006975
 8006c04:	08007920 	.word	0x08007920
 8006c08:	08007926 	.word	0x08007926

08006c0c <_sungetc_r>:
 8006c0c:	b538      	push	{r3, r4, r5, lr}
 8006c0e:	1c4b      	adds	r3, r1, #1
 8006c10:	4614      	mov	r4, r2
 8006c12:	d102      	bne.n	8006c1a <_sungetc_r+0xe>
 8006c14:	f04f 30ff 	mov.w	r0, #4294967295
 8006c18:	bd38      	pop	{r3, r4, r5, pc}
 8006c1a:	8993      	ldrh	r3, [r2, #12]
 8006c1c:	f023 0320 	bic.w	r3, r3, #32
 8006c20:	8193      	strh	r3, [r2, #12]
 8006c22:	6b53      	ldr	r3, [r2, #52]	; 0x34
 8006c24:	6852      	ldr	r2, [r2, #4]
 8006c26:	b2cd      	uxtb	r5, r1
 8006c28:	b183      	cbz	r3, 8006c4c <_sungetc_r+0x40>
 8006c2a:	6ba3      	ldr	r3, [r4, #56]	; 0x38
 8006c2c:	429a      	cmp	r2, r3
 8006c2e:	da07      	bge.n	8006c40 <_sungetc_r+0x34>
 8006c30:	6823      	ldr	r3, [r4, #0]
 8006c32:	1e5a      	subs	r2, r3, #1
 8006c34:	6022      	str	r2, [r4, #0]
 8006c36:	f803 5c01 	strb.w	r5, [r3, #-1]
 8006c3a:	6863      	ldr	r3, [r4, #4]
 8006c3c:	3301      	adds	r3, #1
 8006c3e:	e01f      	b.n	8006c80 <_sungetc_r+0x74>
 8006c40:	4621      	mov	r1, r4
 8006c42:	f7ff fce7 	bl	8006614 <__submore>
 8006c46:	2800      	cmp	r0, #0
 8006c48:	d0f2      	beq.n	8006c30 <_sungetc_r+0x24>
 8006c4a:	e7e3      	b.n	8006c14 <_sungetc_r+0x8>
 8006c4c:	6921      	ldr	r1, [r4, #16]
 8006c4e:	6823      	ldr	r3, [r4, #0]
 8006c50:	b151      	cbz	r1, 8006c68 <_sungetc_r+0x5c>
 8006c52:	428b      	cmp	r3, r1
 8006c54:	d908      	bls.n	8006c68 <_sungetc_r+0x5c>
 8006c56:	f813 0c01 	ldrb.w	r0, [r3, #-1]
 8006c5a:	42a8      	cmp	r0, r5
 8006c5c:	d104      	bne.n	8006c68 <_sungetc_r+0x5c>
 8006c5e:	3b01      	subs	r3, #1
 8006c60:	3201      	adds	r2, #1
 8006c62:	6023      	str	r3, [r4, #0]
 8006c64:	6062      	str	r2, [r4, #4]
 8006c66:	bd38      	pop	{r3, r4, r5, pc}
 8006c68:	63e3      	str	r3, [r4, #60]	; 0x3c
 8006c6a:	f104 0344 	add.w	r3, r4, #68	; 0x44
 8006c6e:	6363      	str	r3, [r4, #52]	; 0x34
 8006c70:	2303      	movs	r3, #3
 8006c72:	63a3      	str	r3, [r4, #56]	; 0x38
 8006c74:	4623      	mov	r3, r4
 8006c76:	6422      	str	r2, [r4, #64]	; 0x40
 8006c78:	f803 5f46 	strb.w	r5, [r3, #70]!
 8006c7c:	6023      	str	r3, [r4, #0]
 8006c7e:	2301      	movs	r3, #1
 8006c80:	6063      	str	r3, [r4, #4]
 8006c82:	4628      	mov	r0, r5
 8006c84:	bd38      	pop	{r3, r4, r5, pc}

08006c86 <__ssrefill_r>:
 8006c86:	b510      	push	{r4, lr}
 8006c88:	460c      	mov	r4, r1
 8006c8a:	6b49      	ldr	r1, [r1, #52]	; 0x34
 8006c8c:	b169      	cbz	r1, 8006caa <__ssrefill_r+0x24>
 8006c8e:	f104 0344 	add.w	r3, r4, #68	; 0x44
 8006c92:	4299      	cmp	r1, r3
 8006c94:	d001      	beq.n	8006c9a <__ssrefill_r+0x14>
 8006c96:	f7fe fd5d 	bl	8005754 <_free_r>
 8006c9a:	6c23      	ldr	r3, [r4, #64]	; 0x40
 8006c9c:	6063      	str	r3, [r4, #4]
 8006c9e:	2000      	movs	r0, #0
 8006ca0:	6360      	str	r0, [r4, #52]	; 0x34
 8006ca2:	b113      	cbz	r3, 8006caa <__ssrefill_r+0x24>
 8006ca4:	6be3      	ldr	r3, [r4, #60]	; 0x3c
 8006ca6:	6023      	str	r3, [r4, #0]
 8006ca8:	bd10      	pop	{r4, pc}
 8006caa:	6923      	ldr	r3, [r4, #16]
 8006cac:	6023      	str	r3, [r4, #0]
 8006cae:	2300      	movs	r3, #0
 8006cb0:	6063      	str	r3, [r4, #4]
 8006cb2:	89a3      	ldrh	r3, [r4, #12]
 8006cb4:	f043 0320 	orr.w	r3, r3, #32
 8006cb8:	81a3      	strh	r3, [r4, #12]
 8006cba:	f04f 30ff 	mov.w	r0, #4294967295
 8006cbe:	bd10      	pop	{r4, pc}

08006cc0 <__ssvfiscanf_r>:
 8006cc0:	e92d 47f0 	stmdb	sp!, {r4, r5, r6, r7, r8, r9, r10, lr}
 8006cc4:	f5ad 7d24 	sub.w	sp, sp, #656	; 0x290
 8006cc8:	f10d 0a0c 	add.w	r10, sp, #12
 8006ccc:	9301      	str	r3, [sp, #4]
 8006cce:	2300      	movs	r3, #0
 8006cd0:	9346      	str	r3, [sp, #280]	; 0x118
 8006cd2:	9347      	str	r3, [sp, #284]	; 0x11c
 8006cd4:	4b9c      	ldr	r3, [pc, #624]	; (8006f48 <__ssvfiscanf_r+0x288>)
 8006cd6:	93a2      	str	r3, [sp, #648]	; 0x288
 8006cd8:	4b9c      	ldr	r3, [pc, #624]	; (8006f4c <__ssvfiscanf_r+0x28c>)
 8006cda:	f8cd a120 	str.w	r10, [sp, #288]	; 0x120
 8006cde:	4607      	mov	r7, r0
 8006ce0:	460c      	mov	r4, r1
 8006ce2:	4690      	mov	r8, r2
 8006ce4:	93a3      	str	r3, [sp, #652]	; 0x28c
 8006ce6:	f898 5000 	ldrb.w	r5, [r8]
 8006cea:	2d00      	cmp	r5, #0
 8006cec:	f000 8124 	beq.w	8006f38 <__ssvfiscanf_r+0x278>
 8006cf0:	4997      	ldr	r1, [pc, #604]	; (8006f50 <__ssvfiscanf_r+0x290>)
 8006cf2:	680b      	ldr	r3, [r1, #0]
 8006cf4:	442b      	add	r3, r5
 8006cf6:	4689      	mov	r9, r1
 8006cf8:	785b      	ldrb	r3, [r3, #1]
 8006cfa:	f003 0308 	and.w	r3, r3, #8
 8006cfe:	f003 02ff 	and.w	r2, r3, #255	; 0xff
 8006d02:	b1eb      	cbz	r3, 8006d40 <__ssvfiscanf_r+0x80>
 8006d04:	6863      	ldr	r3, [r4, #4]
 8006d06:	2b00      	cmp	r3, #0
 8006d08:	dd10      	ble.n	8006d2c <__ssvfiscanf_r+0x6c>
 8006d0a:	6823      	ldr	r3, [r4, #0]
 8006d0c:	f8d9 1000 	ldr.w	r1, [r9]
 8006d10:	781a      	ldrb	r2, [r3, #0]
 8006d12:	440a      	add	r2, r1
 8006d14:	7852      	ldrb	r2, [r2, #1]
 8006d16:	0715      	lsls	r5, r2, #28
 8006d18:	d50e      	bpl.n	8006d38 <__ssvfiscanf_r+0x78>
 8006d1a:	9a47      	ldr	r2, [sp, #284]	; 0x11c
 8006d1c:	3201      	adds	r2, #1
 8006d1e:	9247      	str	r2, [sp, #284]	; 0x11c
 8006d20:	6862      	ldr	r2, [r4, #4]
 8006d22:	3301      	adds	r3, #1
 8006d24:	3a01      	subs	r2, #1
 8006d26:	6062      	str	r2, [r4, #4]
 8006d28:	6023      	str	r3, [r4, #0]
 8006d2a:	e7eb      	b.n	8006d04 <__ssvfiscanf_r+0x44>
 8006d2c:	9ba3      	ldr	r3, [sp, #652]	; 0x28c
 8006d2e:	4638      	mov	r0, r7
 8006d30:	4621      	mov	r1, r4
 8006d32:	4798      	blx	r3
 8006d34:	2800      	cmp	r0, #0
 8006d36:	d0e8      	beq.n	8006d0a <__ssvfiscanf_r+0x4a>
 8006d38:	f108 0601 	add.w	r6, r8, #1
 8006d3c:	46b0      	mov	r8, r6
 8006d3e:	e7d2      	b.n	8006ce6 <__ssvfiscanf_r+0x26>
 8006d40:	2d25      	cmp	r5, #37	; 0x25
 8006d42:	f108 0601 	add.w	r6, r8, #1
 8006d46:	d14f      	bne.n	8006de8 <__ssvfiscanf_r+0x128>
 8006d48:	9245      	str	r2, [sp, #276]	; 0x114
 8006d4a:	9243      	str	r2, [sp, #268]	; 0x10c
 8006d4c:	f898 3001 	ldrb.w	r3, [r8, #1]
 8006d50:	2b2a      	cmp	r3, #42	; 0x2a
 8006d52:	d103      	bne.n	8006d5c <__ssvfiscanf_r+0x9c>
 8006d54:	2310      	movs	r3, #16
 8006d56:	9343      	str	r3, [sp, #268]	; 0x10c
 8006d58:	f108 0602 	add.w	r6, r8, #2
 8006d5c:	7831      	ldrb	r1, [r6, #0]
 8006d5e:	f1a1 0330 	sub.w	r3, r1, #48	; 0x30
 8006d62:	2b09      	cmp	r3, #9
 8006d64:	4635      	mov	r5, r6
 8006d66:	f106 0601 	add.w	r6, r6, #1
 8006d6a:	d806      	bhi.n	8006d7a <__ssvfiscanf_r+0xba>
 8006d6c:	9b45      	ldr	r3, [sp, #276]	; 0x114
 8006d6e:	220a      	movs	r2, #10
 8006d70:	fb02 1303 	mla	r3, r2, r3, r1
 8006d74:	3b30      	subs	r3, #48	; 0x30
 8006d76:	9345      	str	r3, [sp, #276]	; 0x114
 8006d78:	e7f0      	b.n	8006d5c <__ssvfiscanf_r+0x9c>
 8006d7a:	f8df 81dc 	ldr.w	r8, [pc, #476]	; 8006f58 <__ssvfiscanf_r+0x298>
 8006d7e:	2203      	movs	r2, #3
 8006d80:	4640      	mov	r0, r8
 8006d82:	f7fe fca9 	bl	80056d8 <memchr>
 8006d86:	b140      	cbz	r0, 8006d9a <__ssvfiscanf_r+0xda>
 8006d88:	2301      	movs	r3, #1
 8006d8a:	ebc8 0000 	rsb	r0, r8, r0
 8006d8e:	fa03 f200 	lsl.w	r2, r3, r0
 8006d92:	9b43      	ldr	r3, [sp, #268]	; 0x10c
 8006d94:	4313      	orrs	r3, r2
 8006d96:	9343      	str	r3, [sp, #268]	; 0x10c
 8006d98:	4635      	mov	r5, r6
 8006d9a:	1c6e      	adds	r6, r5, #1
 8006d9c:	782d      	ldrb	r5, [r5, #0]
 8006d9e:	2d67      	cmp	r5, #103	; 0x67
 8006da0:	d80f      	bhi.n	8006dc2 <__ssvfiscanf_r+0x102>
 8006da2:	2d65      	cmp	r5, #101	; 0x65
 8006da4:	d278      	bcs.n	8006e98 <__ssvfiscanf_r+0x1d8>
 8006da6:	2d5b      	cmp	r5, #91	; 0x5b
 8006da8:	d054      	beq.n	8006e54 <__ssvfiscanf_r+0x194>
 8006daa:	d805      	bhi.n	8006db8 <__ssvfiscanf_r+0xf8>
 8006dac:	2d00      	cmp	r5, #0
 8006dae:	f000 80c5 	beq.w	8006f3c <__ssvfiscanf_r+0x27c>
 8006db2:	2d25      	cmp	r5, #37	; 0x25
 8006db4:	d018      	beq.n	8006de8 <__ssvfiscanf_r+0x128>
 8006db6:	e071      	b.n	8006e9c <__ssvfiscanf_r+0x1dc>
 8006db8:	2d63      	cmp	r5, #99	; 0x63
 8006dba:	d057      	beq.n	8006e6c <__ssvfiscanf_r+0x1ac>
 8006dbc:	2d64      	cmp	r5, #100	; 0x64
 8006dbe:	d03f      	beq.n	8006e40 <__ssvfiscanf_r+0x180>
 8006dc0:	e06c      	b.n	8006e9c <__ssvfiscanf_r+0x1dc>
 8006dc2:	2d70      	cmp	r5, #112	; 0x70
 8006dc4:	d032      	beq.n	8006e2c <__ssvfiscanf_r+0x16c>
 8006dc6:	d807      	bhi.n	8006dd8 <__ssvfiscanf_r+0x118>
 8006dc8:	2d6e      	cmp	r5, #110	; 0x6e
 8006dca:	d055      	beq.n	8006e78 <__ssvfiscanf_r+0x1b8>
 8006dcc:	d83a      	bhi.n	8006e44 <__ssvfiscanf_r+0x184>
 8006dce:	2d69      	cmp	r5, #105	; 0x69
 8006dd0:	d164      	bne.n	8006e9c <__ssvfiscanf_r+0x1dc>
 8006dd2:	2300      	movs	r3, #0
 8006dd4:	9344      	str	r3, [sp, #272]	; 0x110
 8006dd6:	e03b      	b.n	8006e50 <__ssvfiscanf_r+0x190>
 8006dd8:	2d75      	cmp	r5, #117	; 0x75
 8006dda:	d031      	beq.n	8006e40 <__ssvfiscanf_r+0x180>
 8006ddc:	2d78      	cmp	r5, #120	; 0x78
 8006dde:	d029      	beq.n	8006e34 <__ssvfiscanf_r+0x174>
 8006de0:	2d73      	cmp	r5, #115	; 0x73
 8006de2:	d15b      	bne.n	8006e9c <__ssvfiscanf_r+0x1dc>
 8006de4:	2302      	movs	r3, #2
 8006de6:	e03f      	b.n	8006e68 <__ssvfiscanf_r+0x1a8>
 8006de8:	6863      	ldr	r3, [r4, #4]
 8006dea:	2b00      	cmp	r3, #0
 8006dec:	dd0d      	ble.n	8006e0a <__ssvfiscanf_r+0x14a>
 8006dee:	6823      	ldr	r3, [r4, #0]
 8006df0:	781a      	ldrb	r2, [r3, #0]
 8006df2:	42aa      	cmp	r2, r5
 8006df4:	f040 80a0 	bne.w	8006f38 <__ssvfiscanf_r+0x278>
 8006df8:	3301      	adds	r3, #1
 8006dfa:	6862      	ldr	r2, [r4, #4]
 8006dfc:	6023      	str	r3, [r4, #0]
 8006dfe:	9b47      	ldr	r3, [sp, #284]	; 0x11c
 8006e00:	3a01      	subs	r2, #1
 8006e02:	3301      	adds	r3, #1
 8006e04:	6062      	str	r2, [r4, #4]
 8006e06:	9347      	str	r3, [sp, #284]	; 0x11c
 8006e08:	e798      	b.n	8006d3c <__ssvfiscanf_r+0x7c>
 8006e0a:	9ba3      	ldr	r3, [sp, #652]	; 0x28c
 8006e0c:	4638      	mov	r0, r7
 8006e0e:	4621      	mov	r1, r4
 8006e10:	4798      	blx	r3
 8006e12:	2800      	cmp	r0, #0
 8006e14:	d0eb      	beq.n	8006dee <__ssvfiscanf_r+0x12e>
 8006e16:	9846      	ldr	r0, [sp, #280]	; 0x118
 8006e18:	2800      	cmp	r0, #0
 8006e1a:	f000 808f 	beq.w	8006f3c <__ssvfiscanf_r+0x27c>
 8006e1e:	89a3      	ldrh	r3, [r4, #12]
 8006e20:	f013 0f40 	tst.w	r3, #64	; 0x40
 8006e24:	bf18      	it	ne
 8006e26:	f04f 30ff 	movne.w	r0, #4294967295
 8006e2a:	e089      	b.n	8006f40 <__ssvfiscanf_r+0x280>
 8006e2c:	9b43      	ldr	r3, [sp, #268]	; 0x10c
 8006e2e:	f043 0320 	orr.w	r3, r3, #32
 8006e32:	9343      	str	r3, [sp, #268]	; 0x10c
 8006e34:	9b43      	ldr	r3, [sp, #268]	; 0x10c
 8006e36:	f443 7300 	orr.w	r3, r3, #512	; 0x200
 8006e3a:	9343      	str	r3, [sp, #268]	; 0x10c
 8006e3c:	2310      	movs	r3, #16
 8006e3e:	e002      	b.n	8006e46 <__ssvfiscanf_r+0x186>
 8006e40:	230a      	movs	r3, #10
 8006e42:	e000      	b.n	8006e46 <__ssvfiscanf_r+0x186>
 8006e44:	2308      	movs	r3, #8
 8006e46:	2d6e      	cmp	r5, #110	; 0x6e
 8006e48:	9344      	str	r3, [sp, #272]	; 0x110
 8006e4a:	dd01      	ble.n	8006e50 <__ssvfiscanf_r+0x190>
 8006e4c:	2304      	movs	r3, #4
 8006e4e:	e00b      	b.n	8006e68 <__ssvfiscanf_r+0x1a8>
 8006e50:	2303      	movs	r3, #3
 8006e52:	e009      	b.n	8006e68 <__ssvfiscanf_r+0x1a8>
 8006e54:	4631      	mov	r1, r6
 8006e56:	4650      	mov	r0, r10
 8006e58:	f7ff f958 	bl	800610c <__sccl>
 8006e5c:	9b43      	ldr	r3, [sp, #268]	; 0x10c
 8006e5e:	f043 0340 	orr.w	r3, r3, #64	; 0x40
 8006e62:	9343      	str	r3, [sp, #268]	; 0x10c
 8006e64:	4606      	mov	r6, r0
 8006e66:	2301      	movs	r3, #1
 8006e68:	9349      	str	r3, [sp, #292]	; 0x124
 8006e6a:	e01b      	b.n	8006ea4 <__ssvfiscanf_r+0x1e4>
 8006e6c:	9b43      	ldr	r3, [sp, #268]	; 0x10c
 8006e6e:	f043 0340 	orr.w	r3, r3, #64	; 0x40
 8006e72:	9343      	str	r3, [sp, #268]	; 0x10c
 8006e74:	2300      	movs	r3, #0
 8006e76:	e7f7      	b.n	8006e68 <__ssvfiscanf_r+0x1a8>
 8006e78:	9a43      	ldr	r2, [sp, #268]	; 0x10c
 8006e7a:	06d0      	lsls	r0, r2, #27
 8006e7c:	f53f af5e 	bmi.w	8006d3c <__ssvfiscanf_r+0x7c>
 8006e80:	f012 0f01 	tst.w	r2, #1
 8006e84:	9a01      	ldr	r2, [sp, #4]
 8006e86:	9b47      	ldr	r3, [sp, #284]	; 0x11c
 8006e88:	f102 0104 	add.w	r1, r2, #4
 8006e8c:	9101      	str	r1, [sp, #4]
 8006e8e:	6812      	ldr	r2, [r2, #0]
 8006e90:	bf14      	ite	ne
 8006e92:	8013      	strhne	r3, [r2, #0]
 8006e94:	6013      	streq	r3, [r2, #0]
 8006e96:	e751      	b.n	8006d3c <__ssvfiscanf_r+0x7c>
 8006e98:	2305      	movs	r3, #5
 8006e9a:	e7e5      	b.n	8006e68 <__ssvfiscanf_r+0x1a8>
 8006e9c:	2303      	movs	r3, #3
 8006e9e:	9349      	str	r3, [sp, #292]	; 0x124
 8006ea0:	230a      	movs	r3, #10
 8006ea2:	9344      	str	r3, [sp, #272]	; 0x110
 8006ea4:	6863      	ldr	r3, [r4, #4]
 8006ea6:	2b00      	cmp	r3, #0
 8006ea8:	dd03      	ble.n	8006eb2 <__ssvfiscanf_r+0x1f2>
 8006eaa:	9b43      	ldr	r3, [sp, #268]	; 0x10c
 8006eac:	0659      	lsls	r1, r3, #25
 8006eae:	d511      	bpl.n	8006ed4 <__ssvfiscanf_r+0x214>
 8006eb0:	e018      	b.n	8006ee4 <__ssvfiscanf_r+0x224>
 8006eb2:	9ba3      	ldr	r3, [sp, #652]	; 0x28c
 8006eb4:	4638      	mov	r0, r7
 8006eb6:	4621      	mov	r1, r4
 8006eb8:	4798      	blx	r3
 8006eba:	2800      	cmp	r0, #0
 8006ebc:	d0f5      	beq.n	8006eaa <__ssvfiscanf_r+0x1ea>
 8006ebe:	e7aa      	b.n	8006e16 <__ssvfiscanf_r+0x156>
 8006ec0:	9a47      	ldr	r2, [sp, #284]	; 0x11c
 8006ec2:	3201      	adds	r2, #1
 8006ec4:	9247      	str	r2, [sp, #284]	; 0x11c
 8006ec6:	6862      	ldr	r2, [r4, #4]
 8006ec8:	3a01      	subs	r2, #1
 8006eca:	2a00      	cmp	r2, #0
 8006ecc:	6062      	str	r2, [r4, #4]
 8006ece:	dd13      	ble.n	8006ef8 <__ssvfiscanf_r+0x238>
 8006ed0:	3301      	adds	r3, #1
 8006ed2:	6023      	str	r3, [r4, #0]
 8006ed4:	6823      	ldr	r3, [r4, #0]
 8006ed6:	f8d9 1000 	ldr.w	r1, [r9]
 8006eda:	781a      	ldrb	r2, [r3, #0]
 8006edc:	440a      	add	r2, r1
 8006ede:	7852      	ldrb	r2, [r2, #1]
 8006ee0:	0712      	lsls	r2, r2, #28
 8006ee2:	d4ed      	bmi.n	8006ec0 <__ssvfiscanf_r+0x200>
 8006ee4:	9b49      	ldr	r3, [sp, #292]	; 0x124
 8006ee6:	2b02      	cmp	r3, #2
 8006ee8:	dc0d      	bgt.n	8006f06 <__ssvfiscanf_r+0x246>
 8006eea:	4638      	mov	r0, r7
 8006eec:	a943      	add	r1, sp, #268	; 0x10c
 8006eee:	4622      	mov	r2, r4
 8006ef0:	ab01      	add	r3, sp, #4
 8006ef2:	f7fe ff97 	bl	8005e24 <_scanf_chars>
 8006ef6:	e019      	b.n	8006f2c <__ssvfiscanf_r+0x26c>
 8006ef8:	9ba3      	ldr	r3, [sp, #652]	; 0x28c
 8006efa:	4638      	mov	r0, r7
 8006efc:	4621      	mov	r1, r4
 8006efe:	4798      	blx	r3
 8006f00:	2800      	cmp	r0, #0
 8006f02:	d0e7      	beq.n	8006ed4 <__ssvfiscanf_r+0x214>
 8006f04:	e787      	b.n	8006e16 <__ssvfiscanf_r+0x156>
 8006f06:	2b04      	cmp	r3, #4
 8006f08:	dc06      	bgt.n	8006f18 <__ssvfiscanf_r+0x258>
 8006f0a:	4638      	mov	r0, r7
 8006f0c:	a943      	add	r1, sp, #268	; 0x10c
 8006f0e:	4622      	mov	r2, r4
 8006f10:	ab01      	add	r3, sp, #4
 8006f12:	f7fe ffe7 	bl	8005ee4 <_scanf_i>
 8006f16:	e009      	b.n	8006f2c <__ssvfiscanf_r+0x26c>
 8006f18:	4b0e      	ldr	r3, [pc, #56]	; (8006f54 <__ssvfiscanf_r+0x294>)
 8006f1a:	2b00      	cmp	r3, #0
 8006f1c:	f43f af0e 	beq.w	8006d3c <__ssvfiscanf_r+0x7c>
 8006f20:	4638      	mov	r0, r7
 8006f22:	a943      	add	r1, sp, #268	; 0x10c
 8006f24:	4622      	mov	r2, r4
 8006f26:	ab01      	add	r3, sp, #4
 8006f28:	f3af 8000 	nop.w
 8006f2c:	2801      	cmp	r0, #1
 8006f2e:	d003      	beq.n	8006f38 <__ssvfiscanf_r+0x278>
 8006f30:	2802      	cmp	r0, #2
 8006f32:	f47f af03 	bne.w	8006d3c <__ssvfiscanf_r+0x7c>
 8006f36:	e76e      	b.n	8006e16 <__ssvfiscanf_r+0x156>
 8006f38:	9846      	ldr	r0, [sp, #280]	; 0x118
 8006f3a:	e001      	b.n	8006f40 <__ssvfiscanf_r+0x280>
 8006f3c:	f04f 30ff 	mov.w	r0, #4294967295
 8006f40:	f50d 7d24 	add.w	sp, sp, #656	; 0x290
 8006f44:	e8bd 87f0 	ldmia.w	sp!, {r4, r5, r6, r7, r8, r9, r10, pc}
 8006f48:	08006c0d 	.word	0x08006c0d
 8006f4c:	08006c87 	.word	0x08006c87
 8006f50:	20000204 	.word	0x20000204
 8006f54:	00000000 	.word	0x00000000
 8006f58:	08007926 	.word	0x08007926

08006f5c <_read_r>:
 8006f5c:	b538      	push	{r3, r4, r5, lr}
 8006f5e:	4c07      	ldr	r4, [pc, #28]	; (8006f7c <_read_r+0x20>)
 8006f60:	4605      	mov	r5, r0
 8006f62:	2000      	movs	r0, #0
 8006f64:	6020      	str	r0, [r4, #0]
 8006f66:	4608      	mov	r0, r1
 8006f68:	4611      	mov	r1, r2
 8006f6a:	461a      	mov	r2, r3
 8006f6c:	f7fd fd2c 	bl	80049c8 <_read>
 8006f70:	1c43      	adds	r3, r0, #1
 8006f72:	d102      	bne.n	8006f7a <_read_r+0x1e>
 8006f74:	6823      	ldr	r3, [r4, #0]
 8006f76:	b103      	cbz	r3, 8006f7a <_read_r+0x1e>
 8006f78:	602b      	str	r3, [r5, #0]
 8006f7a:	bd38      	pop	{r3, r4, r5, pc}
 8006f7c:	20000660 	.word	0x20000660

08006f80 <_malloc_usable_size_r>:
 8006f80:	f851 0c04 	ldr.w	r0, [r1, #-4]
 8006f84:	2800      	cmp	r0, #0
 8006f86:	bfbe      	ittt	lt
 8006f88:	1809      	addlt	r1, r1, r0
 8006f8a:	f851 3c04 	ldrlt.w	r3, [r1, #-4]
 8006f8e:	18c0      	addlt	r0, r0, r3
 8006f90:	3804      	subs	r0, #4
 8006f92:	4770      	bx	lr

08006f94 <_init>:
 8006f94:	b5f8      	push	{r3, r4, r5, r6, r7, lr}
 8006f96:	bf00      	nop
 8006f98:	bcf8      	pop	{r3, r4, r5, r6, r7}
 8006f9a:	bc08      	pop	{r3}
 8006f9c:	469e      	mov	lr, r3
 8006f9e:	4770      	bx	lr

08006fa0 <_fini>:
 8006fa0:	b5f8      	push	{r3, r4, r5, r6, r7, lr}
 8006fa2:	bf00      	nop
 8006fa4:	bcf8      	pop	{r3, r4, r5, r6, r7}
 8006fa6:	bc08      	pop	{r3}
 8006fa8:	469e      	mov	lr, r3
 8006faa:	4770      	bx	lr
 8006fac:	2d6a626f 	.word	0x2d6a626f
 8006fb0:	6e69703e 	.word	0x6e69703e
 8006fb4:	203d2120 	.word	0x203d2120
 8006fb8:	6e695028 	.word	0x6e695028
 8006fbc:	656d614e 	.word	0x656d614e
 8006fc0:	00434e29 	.word	0x00434e29
 8006fc4:	6e2f3a43 	.word	0x6e2f3a43
 8006fc8:	656c6375 	.word	0x656c6375
 8006fcc:	63672f6f 	.word	0x63672f6f
 8006fd0:	626d3463 	.word	0x626d3463
 8006fd4:	652f6465 	.word	0x652f6465
 8006fd8:	72657478 	.word	0x72657478
 8006fdc:	2f6c616e 	.word	0x2f6c616e
 8006fe0:	6465626d 	.word	0x6465626d
 8006fe4:	62696c2f 	.word	0x62696c2f
 8006fe8:	69726172 	.word	0x69726172
 8006fec:	6d2f7365 	.word	0x6d2f7365
 8006ff0:	2f646562 	.word	0x2f646562
 8006ff4:	67726174 	.word	0x67726174
 8006ff8:	2f737465 	.word	0x2f737465
 8006ffc:	2f6c6168 	.word	0x2f6c6168
 8007000:	47524154 	.word	0x47524154
 8007004:	535f5445 	.word	0x535f5445
 8007008:	542f4d54 	.word	0x542f4d54
 800700c:	45475241 	.word	0x45475241
 8007010:	54535f54 	.word	0x54535f54
 8007014:	4632334d 	.word	0x4632334d
 8007018:	70672f34 	.word	0x70672f34
 800701c:	6f5f6f69 	.word	0x6f5f6f69
 8007020:	63656a62 	.word	0x63656a62
 8007024:	00682e74 	.word	0x00682e74
 8007028:	6973754d 	.word	0x6973754d
 800702c:	6f432063 	.word	0x6f432063
 8007030:	6f72746e 	.word	0x6f72746e
 8007034:	0000006c 	.word	0x0000006c
 8007038:	6973754d 	.word	0x6973754d
 800703c:	6f432063 	.word	0x6f432063
 8007040:	6f72746e 	.word	0x6f72746e
 8007044:	00000a6c 	.word	0x00000a6c
 8007048:	43235441 	.word	0x43235441
 800704c:	000a0d43 	.word	0x000a0d43
 8007050:	76657250 	.word	0x76657250
 8007054:	00000000 	.word	0x00000000
 8007058:	79616c50 	.word	0x79616c50
 800705c:	00000000 	.word	0x00000000
 8007060:	4d235441 	.word	0x4d235441
 8007064:	000a0d41 	.word	0x000a0d41
 8007068:	7478654e 	.word	0x7478654e
 800706c:	00000000 	.word	0x00000000
 8007070:	756e654d 	.word	0x756e654d
 8007074:	00000000 	.word	0x00000000
 8007078:	20202020 	.word	0x20202020
 800707c:	00000000 	.word	0x00000000

08007080 <vtable for mbed::SerialBase>:
	...
 8007088:	080002ed 08000315 2d6a626f 6e69703e     ........obj->pin
 8007098:	203d2120 6e695028 656d614e 00434e29      != (PinName)NC.
 80070a8:	6e2f3a43 656c6375 63672f6f 626d3463     C:/nucleo/gcc4mb
 80070b8:	652f6465 72657478 2f6c616e 6465626d     ed/external/mbed
 80070c8:	62696c2f 69726172 6d2f7365 2f646562     /libraries/mbed/
 80070d8:	67726174 2f737465 2f6c6168 47524154     targets/hal/TARG
 80070e8:	535f5445 542f4d54 45475241 54535f54     ET_STM/TARGET_ST
 80070f8:	4632334d 70672f34 6f5f6f69 63656a62     M32F4/gpio_objec
 8007108:	00682e74 6f727245 4c203a72 43204443     t.h.Error: LCD C
 8007118:	72746e6f 656c6c6f 79742072 64206570     ontroller type d
 8007128:	2073656f 20746f6e 70707573 2074726f     oes not support 
 8007138:	73696874 73694420 79616c70 70797420     this Display typ
 8007148:	000d0a65 6f727245 4c203a72 43204443     e...Error: LCD C
 8007158:	72746e6f 656c6c6f 79742072 64206570     ontroller type d
 8007168:	2073656f 20746f6e 70707573 2074726f     oes not support 
 8007178:	6974616e 49206576 69204332 7265746e     native I2C inter
 8007188:	65636166 00000d0a 6f727245 4c203a72     face....Error: L
 8007198:	43204443 72746e6f 656c6c6f 79742072     CD Controller ty
 80071a8:	64206570 2073656f 20746f6e 70707573     pe does not supp
 80071b8:	2074726f 6974616e 53206576 20344950     ort native SPI4 
 80071c8:	65746e69 63616672 000d0a65 6f727245     interface...Erro
 80071d8:	4c203a72 43204443 72746e6f 656c6c6f     r: LCD Controlle
 80071e8:	79742072 64206570 2073656f 20746f6e     r type does not 
 80071f8:	70707573 2074726f 6974616e 53206576     support native S
 8007208:	20334950 69622038 69207374 7265746e     PI3 8 bits inter
 8007218:	65636166 00000d0a 6f727245 4c203a72     face....Error: L
 8007228:	43204443 72746e6f 656c6c6f 79742072     CD Controller ty
 8007238:	64206570 2073656f 20746f6e 70707573     pe does not supp
 8007248:	2074726f 6974616e 53206576 20334950     ort native SPI3 
 8007258:	69622039 69207374 7265746e 65636166     9 bits interface
 8007268:	00000d0a 6f727245 4c203a72 43204443     ....Error: LCD C
 8007278:	72746e6f 656c6c6f 79742072 64206570     ontroller type d
 8007288:	2073656f 20746f6e 70707573 2074726f     oes not support 
 8007298:	6974616e 53206576 20334950 62203031     native SPI3 10 b
 80072a8:	20737469 65746e69 63616672 000d0a65     its interface...
 80072b8:	6f727245 4c203a72 43204443 72746e6f     Error: LCD Contr
 80072c8:	656c6c6f 79742072 64206570 2073656f     oller type does 
 80072d8:	20746f6e 70707573 2074726f 6974616e     not support nati
 80072e8:	53206576 20334950 62203631 20737469     ve SPI3 16 bits 
 80072f8:	65746e69 63616672 000d0a65 6f727245     interface...Erro
 8007308:	4c203a72 43204443 72746e6f 656c6c6f     r: LCD Controlle
 8007318:	79742072 64206570 2073656f 20746f6e     r type does not 
 8007328:	70707573 2074726f 6974616e 53206576     support native S
 8007338:	20334950 62203432 20737469 65746e69     PI3 24 bits inte
 8007348:	63616672 000d0a65                       rface...

08007350 <vtable for TextLCD>:
	...
 8007358:	08004e41 08004e35 08004e99 08004efd     AN..5N...N...N..
 8007368:	08004eed 08004f09 08004f15 08001ccd     .N...O...O......
 8007378:	08001d45 080014e5 080015ad 08001d69     E...........i...
 8007388:	08001de5 08001e19 08001e65 08001609     ........e.......
 8007398:	fffffffc 00000000 08001d3d 08001d61     ........=...a...

080073a8 <vtable for TextLCD_Base>:
	...
 80073b0:	08004e41 08004e35 08004e99 08004efd     AN..5N...N...N..
 80073c0:	08004eed 08004f09 08004f15 00000000     .N...O...O......
 80073d0:	00000000 080014e5 080015ad 08001f2d     ............-...
 80073e0:	08001f2d 08001f2d 08001f2d 08001609     -...-...-.......
 80073f0:	fffffffc 00000000 00000000 00000000     ................
 8007400:	6465626d 73736120 61747265 6e6f6974     mbed assertation
 8007410:	69616620 3a64656c 2c732520 6c696620      failed: %s, fil
 8007420:	25203a65 6c202c73 20656e69 0a206425     e: %s, line %d .
 8007430:	00000000 2d6a626f 6e69703e 203d2120     ....obj->pin != 
 8007440:	6e695028 656d614e 00434e29 2e2f2e2e     (PinName)NC.../.
 8007450:	78652f2e 6e726574 6d2f6c61 2f646562     ./external/mbed/
 8007460:	7262696c 65697261 626d2f73 742f6465     libraries/mbed/t
 8007470:	65677261 682f7374 542f6c61 45475241     argets/hal/TARGE
 8007480:	54535f54 41542f4d 54454752 4d54535f     T_STM/TARGET_STM
 8007490:	34463233 6970672f 626f5f6f 7463656a     32F4/gpio_object
 80074a0:	0000682e 6c756f63 6f6e2064 69702074     .h..could not pi
 80074b0:	74756f6e 00000000 6d6e6970 6d207061     nout....pinmap m
 80074c0:	6d2d7369 68637461 00000000 6d6e6970     is-match....pinm
 80074d0:	6e207061 6620746f 646e756f 726f6620     ap not found for
 80074e0:	72657020 65687069 006c6172               peripheral.

080074ec <APBAHBPrescTable>:
 80074ec:	00000000 04030201 04030201 09080706     ................

080074fc <AHBPrescTable>:
	...
 8007504:	04030201 09080706 206e6970 28203d21     ........pin != (
 8007514:	4e6e6950 29656d61 0000434e 2e2f2e2e     PinName)NC..../.
 8007524:	78652f2e 6e726574 6d2f6c61 2f646562     ./external/mbed/
 8007534:	7262696c 65697261 626d2f73 742f6465     libraries/mbed/t
 8007544:	65677261 682f7374 542f6c61 45475241     argets/hal/TARGE
 8007554:	54535f54 41542f4d 54454752 4d54535f     T_STM/TARGET_STM
 8007564:	34463233 6970672f 70615f6f 00632e69     32F4/gpio_api.c.
 8007574:	2d6a626f 6e69703e 203d2120 6e695028     obj->pin != (Pin
 8007584:	656d614e 00434e29                       Name)NC.

0800758c <gpio_mode>:
 800758c:	00000000 00000001 00000011 00000002     ................
 800759c:	00000012 00000003 10110000 10210000     ..............!.
 80075ac:	10310000 10120000 10220000 10320000     ..1......."...2.
 80075bc:	10000000 6d6e6950 65207061 726f7272     ....Pinmap error
 80075cc:	7277203a 20676e6f 74726f70 6d756e20     : wrong port num
 80075dc:	2e726562 00000000 206e6970 28203d21     ber.....pin != (
 80075ec:	4e6e6950 29656d61 0000434e 2e2f2e2e     PinName)NC..../.
 80075fc:	78652f2e 6e726574 6d2f6c61 2f646562     ./external/mbed/
 800760c:	7262696c 65697261 626d2f73 742f6465     libraries/mbed/t
 800761c:	65677261 682f7374 542f6c61 45475241     argets/hal/TARGE
 800762c:	54535f54 41542f4d 54454752 4d54535f     T_STM/TARGET_STM
 800763c:	34463233 6e69702f 2e70616d 00000063     32F4/pinmap.c...
 800764c:	2d6a626f 7261753e 3d212074 41552820     obj->uart != (UA
 800765c:	614e5452 4e29656d 00000043 2e2f2e2e     RTName)NC...../.
 800766c:	78652f2e 6e726574 6d2f6c61 2f646562     ./external/mbed/
 800767c:	7262696c 65697261 626d2f73 742f6465     libraries/mbed/t
 800768c:	65677261 682f7374 542f6c61 45475241     argets/hal/TARGE
 800769c:	54535f54 41542f4d 54454752 4d54535f     T_STM/TARGET_STM
 80076ac:	34463233 7265732f 5f6c6169 2e697061     32F4/serial_api.
 80076bc:	00000063                                c...

080076c0 <PinMap_UART_TX>:
 80076c0:	00000002 40004400 00000393 00000009     .....D.@........
 80076d0:	40011000 00000393 0000000b 40011400     ...@...........@
 80076e0:	00000413 00000016 40011000 00000393     ...........@....
 80076f0:	00000026 40011400 00000413 000000ff     &......@........
 8007700:	ffffffff 00000000                       ........

08007708 <PinMap_UART_RX>:
 8007708:	00000003 40004400 00000393 0000000a     .....D.@........
 8007718:	40011000 00000393 0000000c 40011400     ...@...........@
 8007728:	00000413 00000017 40011000 00000393     ...........@....
 8007738:	00000027 40011400 00000413 000000ff     '......@........
 8007748:	ffffffff 00000000                       ........

08007750 <vtable for mbed::BusOut>:
	...
 8007758:	08004239 08004291                       9B...B..

08007760 <vtable for mbed::FileBase>:
	...
 8007768:	08004369 080043d1                       iC...C..

08007770 <vtable for mbed::FileLike>:
	...
 8007778:	08001f2d 08001f2d 08001f2d 08001f2d     -...-...-...-...
 8007788:	08001f2d 08001f2d 08004459 00000000     -...-...YD......
 8007798:	00000000 fffffffc 00000000 00000000     ................
	...

080077b0 <__stdin_name>:
 80077b0:	6474732f 00006e69                       /stdin..

080077b8 <__stdout_name>:
 80077b8:	6474732f 0074756f                       /stdout.

080077c0 <__stderr_name>:
 80077c0:	6474732f 00727265 0070253a 65637845     /stderr.:%p.Exce
 80077d0:	6f697470 0000006e                       ption...

080077d8 <vtable for mbed::FileHandle>:
	...
 80077e0:	08001f2d 08001f2d 08001f2d 08001f2d     -...-...-...-...
 80077f0:	08001f2d 08001f2d 08004459 00000000     -...-...YD......
	...

08007808 <vtable for mbed::Serial>:
	...
 8007810:	08000471 080004cd 08004c19 08004c39     q........L..9L..
 8007820:	ffffffa4 00000000 08004e41 08004e35     ........AN..5N..
 8007830:	08004e99 08004efd 08004eed 08004f09     .N...N...N...O..
 8007840:	08004f15 080004bd 080004e9 08004c55     .O..........UL..
 8007850:	08004c31 ffffffa0 00000000 080004c5     1L..............
 8007860:	080004f1 00000000 0070253a 00002b77     ........:%p.w+..

08007870 <vtable for mbed::Stream>:
	...
 8007878:	08004e41 08004e35 08004e99 08004efd     AN..5N...N...N..
 8007888:	08004eed 08004f09 08004f15 00000000     .N...O...O......
 8007898:	00000000 08001f2d 08001f2d fffffffc     ....-...-.......
	...

080078b8 <__sf_fake_stdin>:
	...

080078d8 <__sf_fake_stdout>:
	...

080078f8 <__sf_fake_stderr>:
	...
 8007918:	00000043                                C...

0800791c <_global_impure_ptr>:
 800791c:	200001a0 2b302d23 6c680020 6665004c     ... #-0+ .hlL.ef
 800792c:	47464567 32313000 36353433 41393837     gEFG.0123456789A
 800793c:	45444342 31300046 35343332 39383736     BCDEF.0123456789
 800794c:	64636261 00006665 08007972 08007975     abcdef..ry..uy..
 800795c:	08007978 61462d41 3938662d 33323130     xy..A-Fa-f890123
 800796c:	37363534 2d2b005d 00303000 00005878              4567].+-.00.xX.

0800797b <_ctype_>:
 800797b:	20202000 20202020 28282020 20282828     .         ((((( 
 800798b:	20202020 20202020 20202020 20202020                     
 800799b:	10108820 10101010 10101010 10101010      ...............
 80079ab:	04040410 04040404 10040404 10101010     ................
 80079bb:	41411010 41414141 01010101 01010101     ..AAAAAA........
 80079cb:	01010101 01010101 01010101 10101010     ................
 80079db:	42421010 42424242 02020202 02020202     ..BBBBBB........
 80079eb:	02020202 02020202 02020202 10101010     ................
 80079fb:	00000020 00000000 00000000 00000000      ...............
	...

08007a7c <__EH_FRAME_BEGIN__>:
 8007a7c:	00000010 00000000 00527a01 010e7c02     .........zR..|..
 8007a8c:	000d0c1b 00000010 00000018 ffffe91e     ................
 8007a9c:	00000014 00000000                       ........

08007aa4 <__FRAME_END__>:
 8007aa4:	00000000                                ....
